 Project-2nd-try

 Timestamp is 6740b4dc (Fri Nov 22 11:44:12 2024)

 Preferred load address is 0000000140000000

 Start         Length     Name                   Class
 0001:00000000 000022b2H .text                   CODE
 0001:000022c0 00000075H .text$_ZN3Fmx5Forms5TFormC3EPN6System7Classes10TComponentE CODE
 0001:00002340 0000004cH .text$_ZN13TMainpageformD0Ev CODE
 0001:00002390 0000007fH .text$_ZN3Fmx5Forms5TFormC3EPN6System7Classes10TComponentEx CODE
 0001:00002410 0000004cH .text$_ZN3Fmx5Forms5TFormD0Ev CODE
 0001:00002460 00000075H .text                   CODE
 0001:000024e0 0000004cH .text$_ZN12TPC1pageformD0Ev CODE
 0001:00002530 00000075H .text                   CODE
 0001:000025b0 0000004cH .text$_ZN12TPC2pageformD0Ev CODE
 0001:00002600 00000075H .text                   CODE
 0001:00002680 0000004cH .text$_ZN12TPC3pageformD0Ev CODE
 0001:000026d0 00000075H .text                   CODE
 0001:00002750 0000004cH .text$_ZN12TPC4pageformD0Ev CODE
 0001:000027a0 0000037dH .text                   CODE
 0001:00002b20 00000023H .text$_ZN6System7Classes15TComponentClassC1EPNS_10TMetaClassE CODE
 0001:00002b50 0000000eH .text$__clang_call_terminate CODE
 0001:00002b60 00000023H .text$_ZN6System7Classes15TComponentClassC2EPNS_10TMetaClassE CODE
 0001:00002b90 0000001eH .text$_ZN6System15DelphiMetaClassINS_7Classes15TComponentClassEEC2EPNS_10TMetaClassE CODE
 0001:00002bb0 00004046H .text                   CODE
 0001:00006c00 000000d2H .text$_ZN6System8Sysutils11ERangeErrorC3ENS_13UnicodeStringE CODE
 0001:00006ce0 0000004cH .text$_ZN6System8Sysutils11ERangeErrorD0Ev CODE
 0001:00006d30 0000005bH .text$_ZN6System11WideCharLenIwEEiPKT_ CODE
 0001:00006d90 0000005bH .text$_ZN6System11WideCharLenIDsEEiPKT_ CODE
 0001:00006df0 00000059H .text$_ZN6System11AnsiStringTILt0EEC2EPKci CODE
 0001:00006e50 000000e9H .text$_ZN6System11AnsiStringTILt0EED2Ev CODE
 0001:00006f40 00000030H .text$_ZN6System11AnsiStringTILt0EEC2Ev CODE
 0001:00006f70 0000002aH .text$_ZN6System13UnicodeStringC2ILt0EEERKNS_11AnsiStringTIXT_EEE CODE
 0001:00006fa0 000000d2H .text$_ZN6System8Sysutils9EIntErrorC3ENS_13UnicodeStringE CODE
 0001:00007080 000000d2H .text$_ZN6System8Sysutils9EExternalC3ENS_13UnicodeStringE CODE
 0001:00007160 0000004cH .text$_ZN6System8Sysutils9EIntErrorD0Ev CODE
 0001:000071b0 0000004cH .text$_ZN6System8Sysutils9EExternalD0Ev CODE
 0001:00007200 00000023H .text$_ZN6System11AnsiStringTILt0EEC2ERKS1_ CODE
 0001:00007230 00000012H .text$_ZN6System14AnsiStringBaseC2Ev CODE
 0001:00007250 00001a48H .text                   CODE
 0001:00008ca0 0000000bH .text$_ZN6System15DelphiInterfaceINS_10IInterfaceEEadEv CODE
 0001:00008cb0 0000004dH .text$_ZN6System15DelphiInterfaceINS_10IInterfaceEED2Ev CODE
 0001:00008d00 00000029H .text$_ZNSt3__110lock_guardINS_5mutexEEC2B6v15007ERS1_ CODE
 0001:00008d30 00000035H .text$_ZNSt3__113unordered_mapIPN6System7Typinfo9TTypeInfoEPSt9type_infoNS_4hashIS4_EENS_8equal_toIS4_EENS_9allocatorINS_4pairIKS4_S6_EEEEEC2B6v15007Ev CODE
 0001:00008d70 00000019H .text$_ZNSt3__113unordered_mapIPN6System7Typinfo9TTypeInfoEPSt9type_infoNS_4hashIS4_EENS_8equal_toIS4_EENS_9allocatorINS_4pairIKS4_S6_EEEEED2B6v15007Ev CODE
 0001:00008d90 00000084H .text$_ZNSt3__113unordered_mapIPN6System7Typinfo9TTypeInfoEPSt9type_infoNS_4hashIS4_EENS_8equal_toIS4_EENS_9allocatorINS_4pairIKS4_S6_EEEEEixERSD_ CODE
 0001:00008e20 0000004aH .text$_ZN6System11AnsiStringTILt65001EEC2ERKNS_13UnicodeStringE CODE
 0001:00008e70 00000098H .text$_ZNK6System11AnsiStringTILt65001EEplERKS1_ CODE
 0001:00008f10 0000004aH .text$_ZN6System11AnsiStringTILt65001EEC2EPKc CODE
 0001:00008f60 00000030H .text$_ZN6System11AnsiStringTILt65001EEC2Ev CODE
 0001:00008f90 0000002cH .text$_ZN6System11AnsiStringTILt65001EEaSERKS1_ CODE
 0001:00008fc0 00000019H .text$_ZN6System11AnsiStringTILt65001EED2Ev CODE
 0001:00008fe0 00000030H .text$_ZN10__cxxabiv117__class_type_infoC2Ev CODE
 0001:00009010 00000043H .text$_ZNK6System11AnsiStringTILt65001EE5c_strEv CODE
 0001:00009060 0000001cH .text$_ZNSt3__110lock_guardINS_5mutexEED2B6v15007Ev CODE
 0001:00009080 00000030H .text$_ZN10__cxxabiv116__shim_type_infoC2Ev CODE
 0001:000090b0 00000083H .text$_ZNSt3__112__hash_tableINS_17__hash_value_typeIPN6System7Typinfo9TTypeInfoEPSt9type_infoEENS_22__unordered_map_hasherIS5_S8_NS_4hashIS5_EENS_8equal_toIS5_EELb1EEENS_21__unordered_map_equalIS5_S8_SD_SB_Lb1EEENS_9allocatorIS8_EEEC2Ev CODE
 0001:00009140 00000007H .text$_ZNSt3__119__debug_db_insert_cB6v15007INS_13unordered_mapIPN6System7Typinfo9TTypeInfoEPSt9type_infoNS_4hashIS5_EENS_8equal_toIS5_EENS_9allocatorINS_4pairIKS5_S7_EEEEEEEEvPT_ CODE
 0001:00009150 00000030H .text$_ZNSt3__110unique_ptrIA_PNS_16__hash_node_baseIPNS_11__hash_nodeINS_17__hash_value_typeIPN6System7Typinfo9TTypeInfoEPSt9type_infoEEPvEEEENS_25__bucket_list_deallocatorINS_9allocatorISF_EEEEEC2B6v15007ILb1EvEEv CODE
 0001:00009180 00000030H .text$_ZNSt3__117__compressed_pairINS_16__hash_node_baseIPNS_11__hash_nodeINS_17__hash_value_typeIPN6System7Typinfo9TTypeInfoEPSt9type_infoEEPvEEEENS_9allocatorISC_EEEC2B6v15007ILb1EvEEv CODE
 0001:000091b0 0000003bH .text$_ZNSt3__117__compressed_pairIyNS_22__unordered_map_hasherIPN6System7Typinfo9TTypeInfoENS_17__hash_value_typeIS5_PSt9type_infoEENS_4hashIS5_EENS_8equal_toIS5_EELb1EEEEC2B6v15007IiNS_18__default_init_tagEEEOT_OT0_ CODE
 0001:000091f0 0000003bH .text$_ZNSt3__117__compressed_pairIfNS_21__unordered_map_equalIPN6System7Typinfo9TTypeInfoENS_17__hash_value_typeIS5_PSt9type_infoEENS_8equal_toIS5_EENS_4hashIS5_EELb1EEEEC2B6v15007IfNS_18__default_init_tagEEEOT_OT0_ CODE
 0001:00009230 0000003eH .text$_ZNSt3__117__compressed_pairIPPNS_16__hash_node_baseIPNS_11__hash_nodeINS_17__hash_value_typeIPN6System7Typinfo9TTypeInfoEPSt9type_infoEEPvEEEENS_25__bucket_list_deallocatorINS_9allocatorISF_EEEEEC2B6v15007INS_16__value_init_tagESN_EEOT_OT0_ CODE
 0001:00009270 0000001cH .text$_ZNSt3__122__compressed_pair_elemIPPNS_16__hash_node_baseIPNS_11__hash_nodeINS_17__hash_value_typeIPN6System7Typinfo9TTypeInfoEPSt9type_infoEEPvEEEELi0ELb0EEC2B6v15007ENS_16__value_init_tagE CODE
 0001:00009290 0000001dH .text$_ZNSt3__122__compressed_pair_elemINS_25__bucket_list_deallocatorINS_9allocatorIPNS_16__hash_node_baseIPNS_11__hash_nodeINS_17__hash_value_typeIPN6System7Typinfo9TTypeInfoEPSt9type_infoEEPvEEEEEEEELi1ELb0EEC2B6v15007ENS_16__value_init_tagE CODE
 0001:000092b0 00000038H .text$_ZNSt3__125__bucket_list_deallocatorINS_9allocatorIPNS_16__hash_node_baseIPNS_11__hash_nodeINS_17__hash_value_typeIPN6System7Typinfo9TTypeInfoEPSt9type_infoEEPvEEEEEEEC2B6v15007Ev CODE
 0001:000092f0 0000003bH .text$_ZNSt3__117__compressed_pairIyNS_9allocatorIPNS_16__hash_node_baseIPNS_11__hash_nodeINS_17__hash_value_typeIPN6System7Typinfo9TTypeInfoEPSt9type_infoEEPvEEEEEEEC2B6v15007IiNS_18__default_init_tagEEEOT_OT0_ CODE
 0001:00009330 00000021H .text$_ZNSt3__122__compressed_pair_elemIyLi0ELb0EEC2B6v15007IivEEOT_ CODE
 0001:00009360 0000001dH .text$_ZNSt3__122__compressed_pair_elemINS_9allocatorIPNS_16__hash_node_baseIPNS_11__hash_nodeINS_17__hash_value_typeIPN6System7Typinfo9TTypeInfoEPSt9type_infoEEPvEEEEEELi1ELb1EEC2B6v15007ENS_18__default_init_tagE CODE
 0001:00009380 00000019H .text$_ZNSt3__19allocatorIPNS_16__hash_node_baseIPNS_11__hash_nodeINS_17__hash_value_typeIPN6System7Typinfo9TTypeInfoEPSt9type_infoEEPvEEEEEC2B6v15007Ev CODE
 0001:000093a0 00000007H .text$_ZNSt3__116__non_trivial_ifILb1ENS_9allocatorIPNS_16__hash_node_baseIPNS_11__hash_nodeINS_17__hash_value_typeIPN6System7Typinfo9TTypeInfoEPSt9type_infoEEPvEEEEEEEC2B6v15007Ev CODE
 0001:000093b0 0000001dH .text$_ZNSt3__122__compressed_pair_elemINS_16__hash_node_baseIPNS_11__hash_nodeINS_17__hash_value_typeIPN6System7Typinfo9TTypeInfoEPSt9type_infoEEPvEEEELi0ELb0EEC2B6v15007ENS_16__value_init_tagE CODE
 0001:000093d0 0000001dH .text$_ZNSt3__122__compressed_pair_elemINS_9allocatorINS_11__hash_nodeINS_17__hash_value_typeIPN6System7Typinfo9TTypeInfoEPSt9type_infoEEPvEEEELi1ELb1EEC2B6v15007ENS_16__value_init_tagE CODE
 0001:000093f0 00000012H .text$_ZNSt3__116__hash_node_baseIPNS_11__hash_nodeINS_17__hash_value_typeIPN6System7Typinfo9TTypeInfoEPSt9type_infoEEPvEEEC2B6v15007Ev CODE
 0001:00009410 00000019H .text$_ZNSt3__19allocatorINS_11__hash_nodeINS_17__hash_value_typeIPN6System7Typinfo9TTypeInfoEPSt9type_infoEEPvEEEC2B6v15007Ev CODE
 0001:00009430 00000007H .text$_ZNSt3__116__non_trivial_ifILb1ENS_9allocatorINS_11__hash_nodeINS_17__hash_value_typeIPN6System7Typinfo9TTypeInfoEPSt9type_infoEEPvEEEEEC2B6v15007Ev CODE
 0001:00009440 0000001dH .text$_ZNSt3__122__compressed_pair_elemINS_22__unordered_map_hasherIPN6System7Typinfo9TTypeInfoENS_17__hash_value_typeIS5_PSt9type_infoEENS_4hashIS5_EENS_8equal_toIS5_EELb1EEELi1ELb1EEC2B6v15007ENS_18__default_init_tagE CODE
 0001:00009460 00000007H .text$_ZNSt3__122__unordered_map_hasherIPN6System7Typinfo9TTypeInfoENS_17__hash_value_typeIS4_PSt9type_infoEENS_4hashIS4_EENS_8equal_toIS4_EELb1EEC2B6v15007Ev CODE
 0001:00009470 00000023H .text$_ZNSt3__122__compressed_pair_elemIfLi0ELb0EEC2B6v15007IfvEEOT_ CODE
 0001:000094a0 0000001dH .text$_ZNSt3__122__compressed_pair_elemINS_21__unordered_map_equalIPN6System7Typinfo9TTypeInfoENS_17__hash_value_typeIS5_PSt9type_infoEENS_8equal_toIS5_EENS_4hashIS5_EELb1EEELi1ELb1EEC2B6v15007ENS_18__default_init_tagE CODE
 0001:000094c0 00000007H .text$_ZNSt3__121__unordered_map_equalIPN6System7Typinfo9TTypeInfoENS_17__hash_value_typeIS4_PSt9type_infoEENS_8equal_toIS4_EENS_4hashIS4_EELb1EEC2B6v15007Ev CODE
 0001:000094d0 00000051H .text$_ZNSt3__112__hash_tableINS_17__hash_value_typeIPN6System7Typinfo9TTypeInfoEPSt9type_infoEENS_22__unordered_map_hasherIS5_S8_NS_4hashIS5_EENS_8equal_toIS5_EELb1EEENS_21__unordered_map_equalIS5_S8_SD_SB_Lb1EEENS_9allocatorIS8_EEED2Ev CODE
 0001:00009530 000000adH .text$_ZNSt3__112__hash_tableINS_17__hash_value_typeIPN6System7Typinfo9TTypeInfoEPSt9type_infoEENS_22__unordered_map_hasherIS5_S8_NS_4hashIS5_EENS_8equal_toIS5_EELb1EEENS_21__unordered_map_equalIS5_S8_SD_SB_Lb1EEENS_9allocatorIS8_EEE17__deallocate_nodeEPNS_16__hash_node_baseIPNS_11__hash_nodeIS8_PvEEEE CODE
 0001:000095e0 00000019H .text$_ZNSt3__117__compressed_pairINS_16__hash_node_baseIPNS_11__hash_nodeINS_17__hash_value_typeIPN6System7Typinfo9TTypeInfoEPSt9type_infoEEPvEEEENS_9allocatorISC_EEE5firstB6v15007Ev CODE
 0001:00009600 00000007H .text$_ZNSt3__118__debug_db_erase_cB6v15007INS_12__hash_tableINS_17__hash_value_typeIPN6System7Typinfo9TTypeInfoEPSt9type_infoEENS_22__unordered_map_hasherIS6_S9_NS_4hashIS6_EENS_8equal_toIS6_EELb1EEENS_21__unordered_map_equalIS6_S9_SE_SC_Lb1EEENS_9allocatorIS9_EEEEEEvPT_ CODE
 0001:00009610 0000001dH .text$_ZNSt3__110unique_ptrIA_PNS_16__hash_node_baseIPNS_11__hash_nodeINS_17__hash_value_typeIPN6System7Typinfo9TTypeInfoEPSt9type_infoEEPvEEEENS_25__bucket_list_deallocatorINS_9allocatorISF_EEEEED2B6v15007Ev CODE
 0001:00009630 0000001dH .text$_ZNSt3__112__hash_tableINS_17__hash_value_typeIPN6System7Typinfo9TTypeInfoEPSt9type_infoEENS_22__unordered_map_hasherIS5_S8_NS_4hashIS5_EENS_8equal_toIS5_EELb1EEENS_21__unordered_map_equalIS5_S8_SD_SB_Lb1EEENS_9allocatorIS8_EEE12__node_allocB6v15007Ev CODE
 0001:00009650 00000019H .text$_ZNSt3__116__hash_node_baseIPNS_11__hash_nodeINS_17__hash_value_typeIPN6System7Typinfo9TTypeInfoEPSt9type_infoEEPvEEE8__upcastB6v15007Ev CODE
 0001:00009670 00000012H .text$_ZNSt3__116allocator_traitsINS_9allocatorINS_11__hash_nodeINS_17__hash_value_typeIPN6System7Typinfo9TTypeInfoEPSt9type_infoEEPvEEEEE7destroyB6v15007INS_4pairIKS7_S9_EEvvEEvRSD_PT_ CODE
 0001:00009690 00000019H .text$_ZNSt3__122__hash_key_value_typesINS_17__hash_value_typeIPN6System7Typinfo9TTypeInfoEPSt9type_infoEEE9__get_ptrB6v15007ERS8_ CODE
 0001:000096b0 0000002dH .text$_ZNSt3__116allocator_traitsINS_9allocatorINS_11__hash_nodeINS_17__hash_value_typeIPN6System7Typinfo9TTypeInfoEPSt9type_infoEEPvEEEEE10deallocateB6v15007ERSD_PSC_y CODE
 0001:000096e0 00000019H .text$_ZNSt3__117__compressed_pairINS_16__hash_node_baseIPNS_11__hash_nodeINS_17__hash_value_typeIPN6System7Typinfo9TTypeInfoEPSt9type_infoEEPvEEEENS_9allocatorISC_EEE6secondB6v15007Ev CODE
 0001:00009700 0000000bH .text$_ZNSt3__122__compressed_pair_elemINS_9allocatorINS_11__hash_nodeINS_17__hash_value_typeIPN6System7Typinfo9TTypeInfoEPSt9type_infoEEPvEEEELi1ELb1EE5__getB6v15007Ev CODE
 0001:00009710 0000000bH .text$_ZNSt3__114pointer_traitsIPNS_16__hash_node_baseIPNS_11__hash_nodeINS_17__hash_value_typeIPN6System7Typinfo9TTypeInfoEPSt9type_infoEEPvEEEEE10pointer_toB6v15007ERSE_ CODE
 0001:00009720 00000019H .text$_ZNSt3__117__hash_value_typeIPN6System7Typinfo9TTypeInfoEPSt9type_infoE11__get_valueB6v15007Ev CODE
 0001:00009740 00000019H .text$_ZNSt3__17launderB6v15007INS_4pairIKPN6System7Typinfo9TTypeInfoEPSt9type_infoEEEEPT_SB_ CODE
 0001:00009760 0000000bH .text$_ZNSt3__19__launderB6v15007INS_4pairIKPN6System7Typinfo9TTypeInfoEPSt9type_infoEEEEPT_SB_ CODE
 0001:00009770 0000003fH .text$_ZNSt3__19allocatorINS_11__hash_nodeINS_17__hash_value_typeIPN6System7Typinfo9TTypeInfoEPSt9type_infoEEPvEEE10deallocateB6v15007EPSB_y CODE
 0001:000097b0 00000062H .text$_ZNSt3__119__libcpp_deallocateB6v15007EPvyy CODE
 0001:00009820 00000014H .text$_ZNSt3__124__is_overaligned_for_newB6v15007Ey CODE
 0001:00009840 00000028H .text$_ZNSt3__127__do_deallocate_handle_sizeB6v15007IJSt11align_val_tEEEvPvyDpT_ CODE
 0001:00009870 0000001eH .text$_ZNSt3__127__do_deallocate_handle_sizeB6v15007IJEEEvPvyDpT_ CODE
 0001:00009890 00000023H .text$_ZNSt3__124__libcpp_operator_deleteB6v15007IJPvSt11align_val_tEEEvDpT_ CODE
 0001:000098c0 00000019H .text$_ZNSt3__124__libcpp_operator_deleteB6v15007IJPvEEEvDpT_ CODE
 0001:000098e0 0000000bH .text$_ZNSt3__122__compressed_pair_elemINS_16__hash_node_baseIPNS_11__hash_nodeINS_17__hash_value_typeIPN6System7Typinfo9TTypeInfoEPSt9type_infoEEPvEEEELi0ELb0EE5__getB6v15007Ev CODE
 0001:000098f0 0000005fH .text$_ZNSt3__110unique_ptrIA_PNS_16__hash_node_baseIPNS_11__hash_nodeINS_17__hash_value_typeIPN6System7Typinfo9TTypeInfoEPSt9type_infoEEPvEEEENS_25__bucket_list_deallocatorINS_9allocatorISF_EEEEE5resetB6v15007EDn CODE
 0001:00009950 00000019H .text$_ZNSt3__117__compressed_pairIPPNS_16__hash_node_baseIPNS_11__hash_nodeINS_17__hash_value_typeIPN6System7Typinfo9TTypeInfoEPSt9type_infoEEPvEEEENS_25__bucket_list_deallocatorINS_9allocatorISF_EEEEE5firstB6v15007Ev CODE
 0001:00009970 0000001dH .text$_ZNSt3__117__compressed_pairIPPNS_16__hash_node_baseIPNS_11__hash_nodeINS_17__hash_value_typeIPN6System7Typinfo9TTypeInfoEPSt9type_infoEEPvEEEENS_25__bucket_list_deallocatorINS_9allocatorISF_EEEEE6secondB6v15007Ev CODE
 0001:00009990 0000004eH .text$_ZNSt3__125__bucket_list_deallocatorINS_9allocatorIPNS_16__hash_node_baseIPNS_11__hash_nodeINS_17__hash_value_typeIPN6System7Typinfo9TTypeInfoEPSt9type_infoEEPvEEEEEEEclB6v15007EPSG_ CODE
 0001:000099e0 0000000bH .text$_ZNSt3__122__compressed_pair_elemIPPNS_16__hash_node_baseIPNS_11__hash_nodeINS_17__hash_value_typeIPN6System7Typinfo9TTypeInfoEPSt9type_infoEEPvEEEELi0ELb0EE5__getB6v15007Ev CODE
 0001:000099f0 0000000bH .text$_ZNSt3__122__compressed_pair_elemINS_25__bucket_list_deallocatorINS_9allocatorIPNS_16__hash_node_baseIPNS_11__hash_nodeINS_17__hash_value_typeIPN6System7Typinfo9TTypeInfoEPSt9type_infoEEPvEEEEEEEELi1ELb0EE5__getB6v15007Ev CODE
 0001:00009a00 0000002dH .text$_ZNSt3__116allocator_traitsINS_9allocatorIPNS_16__hash_node_baseIPNS_11__hash_nodeINS_17__hash_value_typeIPN6System7Typinfo9TTypeInfoEPSt9type_infoEEPvEEEEEEE10deallocateB6v15007ERSH_PSG_y CODE
 0001:00009a30 00000019H .text$_ZNSt3__125__bucket_list_deallocatorINS_9allocatorIPNS_16__hash_node_baseIPNS_11__hash_nodeINS_17__hash_value_typeIPN6System7Typinfo9TTypeInfoEPSt9type_infoEEPvEEEEEEE7__allocB6v15007Ev CODE
 0001:00009a50 00000019H .text$_ZNSt3__125__bucket_list_deallocatorINS_9allocatorIPNS_16__hash_node_baseIPNS_11__hash_nodeINS_17__hash_value_typeIPN6System7Typinfo9TTypeInfoEPSt9type_infoEEPvEEEEEEE4sizeB6v15007Ev CODE
 0001:00009a70 0000003fH .text$_ZNSt3__19allocatorIPNS_16__hash_node_baseIPNS_11__hash_nodeINS_17__hash_value_typeIPN6System7Typinfo9TTypeInfoEPSt9type_infoEEPvEEEEE10deallocateB6v15007EPSF_y CODE
 0001:00009ab0 00000019H .text$_ZNSt3__117__compressed_pairIyNS_9allocatorIPNS_16__hash_node_baseIPNS_11__hash_nodeINS_17__hash_value_typeIPN6System7Typinfo9TTypeInfoEPSt9type_infoEEPvEEEEEEE6secondB6v15007Ev CODE
 0001:00009ad0 0000000bH .text$_ZNSt3__122__compressed_pair_elemINS_9allocatorIPNS_16__hash_node_baseIPNS_11__hash_nodeINS_17__hash_value_typeIPN6System7Typinfo9TTypeInfoEPSt9type_infoEEPvEEEEEELi1ELb1EE5__getB6v15007Ev CODE
 0001:00009ae0 00000019H .text$_ZNSt3__117__compressed_pairIyNS_9allocatorIPNS_16__hash_node_baseIPNS_11__hash_nodeINS_17__hash_value_typeIPN6System7Typinfo9TTypeInfoEPSt9type_infoEEPvEEEEEEE5firstB6v15007Ev CODE
 0001:00009b00 0000000bH .text$_ZNSt3__122__compressed_pair_elemIyLi0ELb0EE5__getB6v15007Ev CODE
 0001:00009b10 0000076cH .text$_ZNSt3__112__hash_tableINS_17__hash_value_typeIPN6System7Typinfo9TTypeInfoEPSt9type_infoEENS_22__unordered_map_hasherIS5_S8_NS_4hashIS5_EENS_8equal_toIS5_EELb1EEENS_21__unordered_map_equalIS5_S8_SD_SB_Lb1EEENS_9allocatorIS8_EEE25__emplace_unique_key_argsIS5_JRKNS_21piecewise_construct_tENS_5tupleIJRKS5_EEENSO_IJEEEEEENS_4pairINS_15__hash_iteratorIPNS_11__hash_nodeIS8_PvEEEEbEERKT_DpOT0_ CODE
 0001:0000a280 00000022H .text$_ZNSt3__116forward_as_tupleB6v15007IJRKPN6System7Typinfo9TTypeInfoEEEENS_5tupleIJDpOT_EEESA_ CODE
 0001:0000a2b0 00000006H .text$_ZNSt3__116forward_as_tupleB6v15007IJEEENS_5tupleIJDpOT_EEES4_ CODE
 0001:0000a2c0 00000028H .text$_ZNKSt3__115__hash_iteratorIPNS_11__hash_nodeINS_17__hash_value_typeIPN6System7Typinfo9TTypeInfoEPSt9type_infoEEPvEEEptB6v15007Ev CODE
 0001:0000a2f0 0000001dH .text$_ZNSt3__112__hash_tableINS_17__hash_value_typeIPN6System7Typinfo9TTypeInfoEPSt9type_infoEENS_22__unordered_map_hasherIS5_S8_NS_4hashIS5_EENS_8equal_toIS5_EELb1EEENS_21__unordered_map_equalIS5_S8_SD_SB_Lb1EEENS_9allocatorIS8_EEE13hash_functionB6v15007Ev CODE
 0001:0000a310 00000026H .text$_ZNKSt3__122__unordered_map_hasherIPN6System7Typinfo9TTypeInfoENS_17__hash_value_typeIS4_PSt9type_infoEENS_4hashIS4_EENS_8equal_toIS4_EELb1EEclB6v15007ERKS4_ CODE
 0001:0000a340 00000021H .text$_ZNKSt3__112__hash_tableINS_17__hash_value_typeIPN6System7Typinfo9TTypeInfoEPSt9type_infoEENS_22__unordered_map_hasherIS5_S8_NS_4hashIS5_EENS_8equal_toIS5_EELb1EEENS_21__unordered_map_equalIS5_S8_SD_SB_Lb1EEENS_9allocatorIS8_EEE12bucket_countB6v15007Ev CODE
 0001:0000a370 00000087H .text$_ZNSt3__116__constrain_hashB6v15007Eyy CODE
 0001:0000a400 0000002cH .text$_ZNKSt3__110unique_ptrIA_PNS_16__hash_node_baseIPNS_11__hash_nodeINS_17__hash_value_typeIPN6System7Typinfo9TTypeInfoEPSt9type_infoEEPvEEEENS_25__bucket_list_deallocatorINS_9allocatorISF_EEEEEixB6v15007Ey CODE
 0001:0000a430 0000000fH .text$_ZNKSt3__116__hash_node_baseIPNS_11__hash_nodeINS_17__hash_value_typeIPN6System7Typinfo9TTypeInfoEPSt9type_infoEEPvEEE6__hashB6v15007Ev CODE
 0001:0000a440 0000001dH .text$_ZNSt3__112__hash_tableINS_17__hash_value_typeIPN6System7Typinfo9TTypeInfoEPSt9type_infoEENS_22__unordered_map_hasherIS5_S8_NS_4hashIS5_EENS_8equal_toIS5_EELb1EEENS_21__unordered_map_equalIS5_S8_SD_SB_Lb1EEENS_9allocatorIS8_EEE6key_eqB6v15007Ev CODE
 0001:0000a460 00000043H .text$_ZNKSt3__121__unordered_map_equalIPN6System7Typinfo9TTypeInfoENS_17__hash_value_typeIS4_PSt9type_infoEENS_8equal_toIS4_EENS_4hashIS4_EELb1EEclB6v15007ERKS8_RKS4_ CODE
 0001:0000a4b0 000001a9H .text$_ZNSt3__112__hash_tableINS_17__hash_value_typeIPN6System7Typinfo9TTypeInfoEPSt9type_infoEENS_22__unordered_map_hasherIS5_S8_NS_4hashIS5_EENS_8equal_toIS5_EELb1EEENS_21__unordered_map_equalIS5_S8_SD_SB_Lb1EEENS_9allocatorIS8_EEE21__construct_node_hashIRKNS_21piecewise_construct_tEJNS_5tupleIJRKS5_EEENSO_IJEEEEEENS_10unique_ptrINS_11__hash_nodeIS8_PvEENS_22__hash_node_destructorINSH_ISW_EEEEEEyOT_DpOT0_ CODE
 0001:0000a660 0000001dH .text$_ZNSt3__112__hash_tableINS_17__hash_value_typeIPN6System7Typinfo9TTypeInfoEPSt9type_infoEENS_22__unordered_map_hasherIS5_S8_NS_4hashIS5_EENS_8equal_toIS5_EELb1EEENS_21__unordered_map_equalIS5_S8_SD_SB_Lb1EEENS_9allocatorIS8_EEE4sizeB6v15007Ev CODE
 0001:0000a680 0000001dH .text$_ZNSt3__112__hash_tableINS_17__hash_value_typeIPN6System7Typinfo9TTypeInfoEPSt9type_infoEENS_22__unordered_map_hasherIS5_S8_NS_4hashIS5_EENS_8equal_toIS5_EELb1EEENS_21__unordered_map_equalIS5_S8_SD_SB_Lb1EEENS_9allocatorIS8_EEE15max_load_factorB6v15007Ev CODE
 0001:0000a6a0 00000023H .text$_ZNSt3__112__hash_tableINS_17__hash_value_typeIPN6System7Typinfo9TTypeInfoEPSt9type_infoEENS_22__unordered_map_hasherIS5_S8_NS_4hashIS5_EENS_8equal_toIS5_EELb1EEENS_21__unordered_map_equalIS5_S8_SD_SB_Lb1EEENS_9allocatorIS8_EEE15__rehash_uniqueB6v15007Ey CODE
 0001:0000a6d0 00000028H .text$_ZNSt3__13maxB6v15007IyEERKT_S3_S3_ CODE
 0001:0000a700 00000047H .text$_ZNSt3__116__is_hash_power2B6v15007Ey CODE
 0001:0000a750 0000001bH .text$_Z4ceilB6v15007f  CODE
 0001:0000a770 00000019H .text$_ZNSt3__116__hash_node_baseIPNS_11__hash_nodeINS_17__hash_value_typeIPN6System7Typinfo9TTypeInfoEPSt9type_infoEEPvEEE5__ptrB6v15007Ev CODE
 0001:0000a790 0000001bH .text$_ZNKSt3__110unique_ptrINS_11__hash_nodeINS_17__hash_value_typeIPN6System7Typinfo9TTypeInfoEPSt9type_infoEEPvEENS_22__hash_node_destructorINS_9allocatorISB_EEEEEptB6v15007Ev CODE
 0001:0000a7b0 0000001bH .text$_ZNKSt3__110unique_ptrINS_11__hash_nodeINS_17__hash_value_typeIPN6System7Typinfo9TTypeInfoEPSt9type_infoEEPvEENS_22__hash_node_destructorINS_9allocatorISB_EEEEE3getB6v15007Ev CODE
 0001:0000a7d0 0000003bH .text$_ZNSt3__110unique_ptrINS_11__hash_nodeINS_17__hash_value_typeIPN6System7Typinfo9TTypeInfoEPSt9type_infoEEPvEENS_22__hash_node_destructorINS_9allocatorISB_EEEEE7releaseB6v15007Ev CODE
 0001:0000a810 0000001dH .text$_ZNSt3__110unique_ptrINS_11__hash_nodeINS_17__hash_value_typeIPN6System7Typinfo9TTypeInfoEPSt9type_infoEEPvEENS_22__hash_node_destructorINS_9allocatorISB_EEEEED2B6v15007Ev CODE
 0001:0000a830 00000024H .text$_ZNSt3__115__hash_iteratorIPNS_11__hash_nodeINS_17__hash_value_typeIPN6System7Typinfo9TTypeInfoEPSt9type_infoEEPvEEEC2B6v15007EPNS_16__hash_node_baseISC_EEPKv CODE
 0001:0000a860 00000033H .text$_ZNSt3__14pairINS_15__hash_iteratorIPNS_11__hash_nodeINS_17__hash_value_typeIPN6System7Typinfo9TTypeInfoEPSt9type_infoEEPvEEEEbEC2B6v15007ISE_RbLSB_0EEEOT_OT0_ CODE
 0001:0000a8a0 00000019H .text$_ZNSt3__117__compressed_pairIyNS_22__unordered_map_hasherIPN6System7Typinfo9TTypeInfoENS_17__hash_value_typeIS5_PSt9type_infoEENS_4hashIS5_EENS_8equal_toIS5_EELb1EEEE6secondB6v15007Ev CODE
 0001:0000a8c0 0000000bH .text$_ZNSt3__122__compressed_pair_elemINS_22__unordered_map_hasherIPN6System7Typinfo9TTypeInfoENS_17__hash_value_typeIS5_PSt9type_infoEENS_4hashIS5_EENS_8equal_toIS5_EELb1EEELi1ELb1EE5__getB6v15007Ev CODE
 0001:0000a8d0 0000004aH .text$_ZNKSt3__14hashIPN6System7Typinfo9TTypeInfoEEclB6v15007ES4_ CODE
 0001:0000a920 00000501H .text$_ZNSt3__121__murmur2_or_cityhashIyLy64EEclEPKvy CODE
 0001:0000ae30 0000019dH .text$_ZNSt3__121__murmur2_or_cityhashIyLy64EE18__hash_len_0_to_16EPKcy CODE
 0001:0000afd0 0000010cH .text$_ZNSt3__121__murmur2_or_cityhashIyLy64EE19__hash_len_17_to_32EPKcy CODE
 0001:0000b0e0 00000339H .text$_ZNSt3__121__murmur2_or_cityhashIyLy64EE19__hash_len_33_to_64EPKcy CODE
 0001:0000b420 0000001eH .text$_ZNSt3__110__loadwordB6v15007IyEET_PKv CODE
 0001:0000b440 00000095H .text$_ZNSt3__121__murmur2_or_cityhashIyLy64EE13__hash_len_16Eyy CODE
 0001:0000b4e0 000000b0H .text$_ZNSt3__121__murmur2_or_cityhashIyLy64EE29__weak_hash_len_32_with_seedsEPKcyy CODE
 0001:0000b590 00000058H .text$_ZNSt3__121__murmur2_or_cityhashIyLy64EE8__rotateEyi CODE
 0001:0000b5f0 0000002dH .text$_ZNSt3__14pairIyyEaSB6v15007EOS1_ CODE
 0001:0000b620 0000003bH .text$_ZNSt3__14swapB6v15007IyEENS_9enable_ifIXaasr21is_move_constructibleIT_EE5valuesr18is_move_assignableIS2_EE5valueEvE4typeERS2_S5_ CODE
 0001:0000b660 00000016H .text$_ZNSt3__121__murmur2_or_cityhashIyLy64EE11__shift_mixEy CODE
 0001:0000b680 00000037H .text$_ZNSt3__121__murmur2_or_cityhashIyLy64EE22__rotate_by_at_least_1Eyi CODE
 0001:0000b6c0 0000001dH .text$_ZNSt3__110__loadwordB6v15007IjEET_PKv CODE
 0001:0000b6e0 0000011aH .text$_ZNSt3__121__murmur2_or_cityhashIyLy64EE29__weak_hash_len_32_with_seedsEyyyyyy CODE
 0001:0000b800 00000032H .text$_ZNSt3__14pairIyyEC2B6v15007IyyLPv0EEEOT_OT0_ CODE
 0001:0000b840 00000019H .text$_ZNKSt3__110unique_ptrIA_PNS_16__hash_node_baseIPNS_11__hash_nodeINS_17__hash_value_typeIPN6System7Typinfo9TTypeInfoEPSt9type_infoEEPvEEEENS_25__bucket_list_deallocatorINS_9allocatorISF_EEEEE11get_deleterB6v15007Ev CODE
 0001:0000b860 0000001bH .text$_ZNKSt3__125__bucket_list_deallocatorINS_9allocatorIPNS_16__hash_node_baseIPNS_11__hash_nodeINS_17__hash_value_typeIPN6System7Typinfo9TTypeInfoEPSt9type_infoEEPvEEEEEEE4sizeB6v15007Ev CODE
 0001:0000b880 0000001dH .text$_ZNKSt3__117__compressed_pairIPPNS_16__hash_node_baseIPNS_11__hash_nodeINS_17__hash_value_typeIPN6System7Typinfo9TTypeInfoEPSt9type_infoEEPvEEEENS_25__bucket_list_deallocatorINS_9allocatorISF_EEEEE6secondB6v15007Ev CODE
 0001:0000b8a0 0000000bH .text$_ZNKSt3__122__compressed_pair_elemINS_25__bucket_list_deallocatorINS_9allocatorIPNS_16__hash_node_baseIPNS_11__hash_nodeINS_17__hash_value_typeIPN6System7Typinfo9TTypeInfoEPSt9type_infoEEPvEEEEEEEELi1ELb0EE5__getB6v15007Ev CODE
 0001:0000b8b0 00000019H .text$_ZNKSt3__117__compressed_pairIyNS_9allocatorIPNS_16__hash_node_baseIPNS_11__hash_nodeINS_17__hash_value_typeIPN6System7Typinfo9TTypeInfoEPSt9type_infoEEPvEEEEEEE5firstB6v15007Ev CODE
 0001:0000b8d0 0000000bH .text$_ZNKSt3__122__compressed_pair_elemIyLi0ELb0EE5__getB6v15007Ev CODE
 0001:0000b8e0 00000019H .text$_ZNKSt3__117__compressed_pairIPPNS_16__hash_node_baseIPNS_11__hash_nodeINS_17__hash_value_typeIPN6System7Typinfo9TTypeInfoEPSt9type_infoEEPvEEEENS_25__bucket_list_deallocatorINS_9allocatorISF_EEEEE5firstB6v15007Ev CODE
 0001:0000b900 0000000bH .text$_ZNKSt3__122__compressed_pair_elemIPPNS_16__hash_node_baseIPNS_11__hash_nodeINS_17__hash_value_typeIPN6System7Typinfo9TTypeInfoEPSt9type_infoEEPvEEEELi0ELb0EE5__getB6v15007Ev CODE
 0001:0000b910 00000019H .text$_ZNSt3__117__compressed_pairIfNS_21__unordered_map_equalIPN6System7Typinfo9TTypeInfoENS_17__hash_value_typeIS5_PSt9type_infoEENS_8equal_toIS5_EENS_4hashIS5_EELb1EEEE6secondB6v15007Ev CODE
 0001:0000b930 0000000bH .text$_ZNSt3__122__compressed_pair_elemINS_21__unordered_map_equalIPN6System7Typinfo9TTypeInfoENS_17__hash_value_typeIS5_PSt9type_infoEENS_8equal_toIS5_EENS_4hashIS5_EELb1EEELi1ELb1EE5__getB6v15007Ev CODE
 0001:0000b940 0000002eH .text$_ZNKSt3__18equal_toIPN6System7Typinfo9TTypeInfoEEclB6v15007ERKS4_S7_ CODE
 0001:0000b970 00000019H .text$_ZNKSt3__117__hash_value_typeIPN6System7Typinfo9TTypeInfoEPSt9type_infoE11__get_valueB6v15007Ev CODE
 0001:0000b990 00000019H .text$_ZNSt3__17launderB6v15007IKNS_4pairIKPN6System7Typinfo9TTypeInfoEPSt9type_infoEEEEPT_SC_ CODE
 0001:0000b9b0 0000000bH .text$_ZNSt3__19__launderB6v15007IKNS_4pairIKPN6System7Typinfo9TTypeInfoEPSt9type_infoEEEEPT_SC_ CODE
 0001:0000b9c0 00000023H .text$_ZNSt3__116allocator_traitsINS_9allocatorINS_11__hash_nodeINS_17__hash_value_typeIPN6System7Typinfo9TTypeInfoEPSt9type_infoEEPvEEEEE8allocateB6v15007ERSD_y CODE
 0001:0000b9f0 00000033H .text$_ZNSt3__122__hash_node_destructorINS_9allocatorINS_11__hash_nodeINS_17__hash_value_typeIPN6System7Typinfo9TTypeInfoEPSt9type_infoEEPvEEEEEC2B6v15007ERSD_b CODE
 0001:0000ba30 0000003aH .text$_ZNSt3__110unique_ptrINS_11__hash_nodeINS_17__hash_value_typeIPN6System7Typinfo9TTypeInfoEPSt9type_infoEEPvEENS_22__hash_node_destructorINS_9allocatorISB_EEEEEC2B6v15007ILb1EvEEPSB_NS_16__dependent_typeINS_27__unique_ptr_deleter_sfinaeISF_EEXT_EE20__good_rval_ref_typeE CODE
 0001:0000ba70 00000046H .text$_ZNSt3__116allocator_traitsINS_9allocatorINS_11__hash_nodeINS_17__hash_value_typeIPN6System7Typinfo9TTypeInfoEPSt9type_infoEEPvEEEEE9constructB6v15007INS_4pairIKS7_S9_EEJRKNS_21piecewise_construct_tENS_5tupleIJRSH_EEENSM_IJEEEEvEEvRSD_PT_DpOT0_ CODE
 0001:0000bac0 00000019H .text$_ZNSt3__110unique_ptrINS_11__hash_nodeINS_17__hash_value_typeIPN6System7Typinfo9TTypeInfoEPSt9type_infoEEPvEENS_22__hash_node_destructorINS_9allocatorISB_EEEEE11get_deleterB6v15007Ev CODE
 0001:0000bae0 00000051H .text$_ZNSt3__19allocatorINS_11__hash_nodeINS_17__hash_value_typeIPN6System7Typinfo9TTypeInfoEPSt9type_infoEEPvEEE8allocateB6v15007Ey CODE
 0001:0000bb40 00000019H .text$_ZNSt3__116allocator_traitsINS_9allocatorINS_11__hash_nodeINS_17__hash_value_typeIPN6System7Typinfo9TTypeInfoEPSt9type_infoEEPvEEEEE8max_sizeB6v15007ISD_vEEyRKSD_ CODE
 0001:0000bb60 00000034H .text$_ZSt28__throw_bad_array_new_lengthB6v15007v CODE
 0001:0000bba0 00000061H .text$_ZNSt3__117__libcpp_allocateB6v15007Eyy CODE
 0001:0000bc10 00000011H .text$_ZNKSt3__19allocatorINS_11__hash_nodeINS_17__hash_value_typeIPN6System7Typinfo9TTypeInfoEPSt9type_infoEEPvEEE8max_sizeB6v15007Ev CODE
 0001:0000bc30 00000023H .text$_ZNSt3__121__libcpp_operator_newB6v15007IJySt11align_val_tEEEPvDpT_ CODE
 0001:0000bc60 00000019H .text$_ZNSt3__121__libcpp_operator_newB6v15007IJyEEEPvDpT_ CODE
 0001:0000bc80 00000040H .text$_ZNSt3__117__compressed_pairIPNS_11__hash_nodeINS_17__hash_value_typeIPN6System7Typinfo9TTypeInfoEPSt9type_infoEEPvEENS_22__hash_node_destructorINS_9allocatorISB_EEEEEC2B6v15007IRSC_SG_EEOT_OT0_ CODE
 0001:0000bcc0 00000021H .text$_ZNSt3__122__compressed_pair_elemIPNS_11__hash_nodeINS_17__hash_value_typeIPN6System7Typinfo9TTypeInfoEPSt9type_infoEEPvEELi0ELb0EEC2B6v15007IRSC_vEEOT_ CODE
 0001:0000bcf0 00000029H .text$_ZNSt3__122__compressed_pair_elemINS_22__hash_node_destructorINS_9allocatorINS_11__hash_nodeINS_17__hash_value_typeIPN6System7Typinfo9TTypeInfoEPSt9type_infoEEPvEEEEEELi1ELb0EEC2B6v15007ISF_vEEOT_ CODE
 0001:0000bd20 0000004bH .text$_ZNSt3__19allocatorINS_11__hash_nodeINS_17__hash_value_typeIPN6System7Typinfo9TTypeInfoEPSt9type_infoEEPvEEE9constructB6v15007INS_4pairIKS6_S8_EEJRKNS_21piecewise_construct_tENS_5tupleIJRSF_EEENSK_IJEEEEEEvPT_DpOT0_ CODE
 0001:0000bd70 00000057H .text$_ZNSt3__14pairIKPN6System7Typinfo9TTypeInfoEPSt9type_infoEC2B6v15007IJRS5_EJEEENS_21piecewise_construct_tENS_5tupleIJDpT_EEENSC_IJDpT0_EEE CODE
 0001:0000bdd0 00000060H .text$_ZNSt3__14pairIKPN6System7Typinfo9TTypeInfoEPSt9type_infoEC2B6v15007IJRS5_EJEJLy0EEJEEENS_21piecewise_construct_tERNS_5tupleIJDpT_EEERNSC_IJDpT0_EEENS_15__tuple_indicesIJXspT1_EEEENSL_IJXspT2_EEEE CODE
 0001:0000be30 00000019H .text$_ZNSt3__13getB6v15007ILy0EJRKPN6System7Typinfo9TTypeInfoEEEERNS_13tuple_elementIXT_ENS_5tupleIJDpT0_EEEE4typeERSB_ CODE
 0001:0000be50 0000000eH .text$_ZNSt3__112__tuple_leafILy0ERKPN6System7Typinfo9TTypeInfoELb0EE3getB6v15007Ev CODE
 0001:0000be60 0000001dH .text$_ZNSt3__117__compressed_pairIPNS_11__hash_nodeINS_17__hash_value_typeIPN6System7Typinfo9TTypeInfoEPSt9type_infoEEPvEENS_22__hash_node_destructorINS_9allocatorISB_EEEEE6secondB6v15007Ev CODE
 0001:0000be80 0000000bH .text$_ZNSt3__122__compressed_pair_elemINS_22__hash_node_destructorINS_9allocatorINS_11__hash_nodeINS_17__hash_value_typeIPN6System7Typinfo9TTypeInfoEPSt9type_infoEEPvEEEEEELi1ELb0EE5__getB6v15007Ev CODE
 0001:0000be90 00000019H .text$_ZNSt3__117__compressed_pairIyNS_22__unordered_map_hasherIPN6System7Typinfo9TTypeInfoENS_17__hash_value_typeIS5_PSt9type_infoEENS_4hashIS5_EENS_8equal_toIS5_EELb1EEEE5firstB6v15007Ev CODE
 0001:0000beb0 00000019H .text$_ZNSt3__117__compressed_pairIfNS_21__unordered_map_equalIPN6System7Typinfo9TTypeInfoENS_17__hash_value_typeIS5_PSt9type_infoEENS_8equal_toIS5_EENS_4hashIS5_EELb1EEEE5firstB6v15007Ev CODE
 0001:0000bed0 0000000bH .text$_ZNSt3__122__compressed_pair_elemIfLi0ELb0EE5__getB6v15007Ev CODE
 0001:0000bee0 00000255H .text$_ZNSt3__112__hash_tableINS_17__hash_value_typeIPN6System7Typinfo9TTypeInfoEPSt9type_infoEENS_22__unordered_map_hasherIS5_S8_NS_4hashIS5_EENS_8equal_toIS5_EELb1EEENS_21__unordered_map_equalIS5_S8_SD_SB_Lb1EEENS_9allocatorIS8_EEE8__rehashILb1EEEvy CODE
 0001:0000c140 000002c2H .text$_ZNSt3__112__hash_tableINS_17__hash_value_typeIPN6System7Typinfo9TTypeInfoEPSt9type_infoEENS_22__unordered_map_hasherIS5_S8_NS_4hashIS5_EENS_8equal_toIS5_EELb1EEENS_21__unordered_map_equalIS5_S8_SD_SB_Lb1EEENS_9allocatorIS8_EEE11__do_rehashILb1EEEvy CODE
 0001:0000c410 00000056H .text$_ZNSt3__116__next_hash_pow2B6v15007Ey CODE
 0001:0000c470 00000007H .text$_ZNSt3__125__debug_db_invalidate_allB6v15007INS_12__hash_tableINS_17__hash_value_typeIPN6System7Typinfo9TTypeInfoEPSt9type_infoEENS_22__unordered_map_hasherIS6_S9_NS_4hashIS6_EENS_8equal_toIS6_EELb1EEENS_21__unordered_map_equalIS6_S9_SE_SC_Lb1EEENS_9allocatorIS9_EEEEEEvPT_ CODE
 0001:0000c480 00000019H .text$_ZNSt3__110unique_ptrIA_PNS_16__hash_node_baseIPNS_11__hash_nodeINS_17__hash_value_typeIPN6System7Typinfo9TTypeInfoEPSt9type_infoEEPvEEEENS_25__bucket_list_deallocatorINS_9allocatorISF_EEEEE11get_deleterB6v15007Ev CODE
 0001:0000c4a0 0000006aH .text$_ZNSt3__110unique_ptrIA_PNS_16__hash_node_baseIPNS_11__hash_nodeINS_17__hash_value_typeIPN6System7Typinfo9TTypeInfoEPSt9type_infoEEPvEEEENS_25__bucket_list_deallocatorINS_9allocatorISF_EEEEE5resetB6v15007IPSF_EENS_9enable_ifIXsr28_CheckArrayPointerConversionIT_EE5valueEvE4typeESP_ CODE
 0001:0000c510 00000023H .text$_ZNSt3__116allocator_traitsINS_9allocatorIPNS_16__hash_node_baseIPNS_11__hash_nodeINS_17__hash_value_typeIPN6System7Typinfo9TTypeInfoEPSt9type_infoEEPvEEEEEEE8allocateB6v15007ERSH_y CODE
 0001:0000c540 00000051H .text$_ZNSt3__19allocatorIPNS_16__hash_node_baseIPNS_11__hash_nodeINS_17__hash_value_typeIPN6System7Typinfo9TTypeInfoEPSt9type_infoEEPvEEEEE8allocateB6v15007Ey CODE
 0001:0000c5a0 00000019H .text$_ZNSt3__116allocator_traitsINS_9allocatorIPNS_16__hash_node_baseIPNS_11__hash_nodeINS_17__hash_value_typeIPN6System7Typinfo9TTypeInfoEPSt9type_infoEEPvEEEEEEE8max_sizeB6v15007ISH_vEEyRKSH_ CODE
 0001:0000c5c0 00000011H .text$_ZNKSt3__19allocatorIPNS_16__hash_node_baseIPNS_11__hash_nodeINS_17__hash_value_typeIPN6System7Typinfo9TTypeInfoEPSt9type_infoEEPvEEEEE8max_sizeB6v15007Ev CODE
 0001:0000c5e0 00000013H .text$_ZNSt3__112__libcpp_clzB6v15007Ey CODE
 0001:0000c600 00000057H .text$_ZNSt3__13maxB6v15007IyNS_6__lessIyyEEEERKT_S5_S5_T0_ CODE
 0001:0000c660 0000002eH .text$_ZNKSt3__16__lessIyyEclB6v15007ERKyS3_ CODE
 0001:0000c690 00000019H .text$_ZNKSt3__117__compressed_pairIPNS_11__hash_nodeINS_17__hash_value_typeIPN6System7Typinfo9TTypeInfoEPSt9type_infoEEPvEENS_22__hash_node_destructorINS_9allocatorISB_EEEEE5firstB6v15007Ev CODE
 0001:0000c6b0 0000000bH .text$_ZNKSt3__122__compressed_pair_elemIPNS_11__hash_nodeINS_17__hash_value_typeIPN6System7Typinfo9TTypeInfoEPSt9type_infoEEPvEELi0ELb0EE5__getB6v15007Ev CODE
 0001:0000c6c0 00000019H .text$_ZNSt3__117__compressed_pairIPNS_11__hash_nodeINS_17__hash_value_typeIPN6System7Typinfo9TTypeInfoEPSt9type_infoEEPvEENS_22__hash_node_destructorINS_9allocatorISB_EEEEE5firstB6v15007Ev CODE
 0001:0000c6e0 0000000bH .text$_ZNSt3__122__compressed_pair_elemIPNS_11__hash_nodeINS_17__hash_value_typeIPN6System7Typinfo9TTypeInfoEPSt9type_infoEEPvEELi0ELb0EE5__getB6v15007Ev CODE
 0001:0000c6f0 0000006aH .text$_ZNSt3__110unique_ptrINS_11__hash_nodeINS_17__hash_value_typeIPN6System7Typinfo9TTypeInfoEPSt9type_infoEEPvEENS_22__hash_node_destructorINS_9allocatorISB_EEEEE5resetB6v15007EPSB_ CODE
 0001:0000c760 00000089H .text$_ZNSt3__122__hash_node_destructorINS_9allocatorINS_11__hash_nodeINS_17__hash_value_typeIPN6System7Typinfo9TTypeInfoEPSt9type_infoEEPvEEEEEclB6v15007EPSC_ CODE
 0001:0000c7f0 00000040H .text$_ZNSt3__15tupleIJRKPN6System7Typinfo9TTypeInfoEEEC2B6v15007INS_4_AndELi0EEES6_ CODE
 0001:0000c830 00000039H .text$_ZNSt3__112__tuple_implINS_15__tuple_indicesIJLy0EEEEJRKPN6System7Typinfo9TTypeInfoEEEC2B6v15007IJLy0EEJS8_EJEJEJS8_EEENS1_IJXspT_EEEENS_13__tuple_typesIJDpT0_EEENS1_IJXspT1_EEEENSC_IJDpT2_EEEDpOT3_ CODE
 0001:0000c870 0000001eH .text$_ZNSt3__112__tuple_leafILy0ERKPN6System7Typinfo9TTypeInfoELb0EEC2B6v15007IS6_vEEOT_ CODE
 0001:0000c890 0000000bH .text$_ZNSt3__114pointer_traitsIPNS_17__hash_value_typeIPN6System7Typinfo9TTypeInfoEPSt9type_infoEEE10pointer_toB6v15007ERS8_ CODE
 0001:0000c8a0 00002dd6H .text                   CODE
 0001:0000f680 0000005bH .text$_ZN6System8_CharLenIwEEiPKT_ CODE
 0001:0000f6e0 0000005bH .text$_ZN6System8_CharLenIDsEEiPKT_ CODE
 0001:0000f740 00000023H .text$_ZN6System14AnsiStringBaseC2ILt0EEEONS_11AnsiStringTIXT_EEE CODE
 0001:0000f770 0000004dH .text$_ZNK6System14AnsiStringBase8CodePageEv CODE
 0001:0000f7c0 0000003aH .text$_ZNK6System14AnsiStringBaseixEi CODE
 0001:0000f800 00000aecH .text                   CODE
 0002:00000000 00000008H .rdata$.refptr._MINGW_INSTALL_DEBUG_MATHERR DATA
 0002:00000008 00000008H .rdata$.refptr.__dyn_tls_init_callback DATA
 0002:00000010 00000008H .rdata$.refptr.__globallocalestatus DATA
 0002:00000018 00000008H .rdata$.refptr.__image_base__ DATA
 0002:00000020 00000008H .rdata$.refptr.__imp___winitenv DATA
 0002:00000028 00000008H .rdata$.refptr.__mingw_app_type DATA
 0002:00000030 00000008H .rdata$.refptr.__mingw_initltsdrot_force DATA
 0002:00000038 00000008H .rdata$.refptr.__mingw_initltsdyn_force DATA
 0002:00000040 00000008H .rdata$.refptr.__mingw_initltssuo_force DATA
 0002:00000048 00000008H .rdata$.refptr.__mingw_oldexcpt_handler DATA
 0002:00000050 00000008H .rdata$.refptr.__native_startup_lock DATA
 0002:00000058 00000008H .rdata$.refptr.__native_startup_state DATA
 0002:00000060 00000008H .rdata$.refptr.__xc_a   DATA
 0002:00000068 00000008H .rdata$.refptr.__xc_z   DATA
 0002:00000070 00000008H .rdata$.refptr.__xi_a   DATA
 0002:00000078 00000008H .rdata$.refptr.__xi_z   DATA
 0002:00000080 00000008H .rdata$.refptr._commode DATA
 0002:00000088 00000008H .rdata$.refptr._dowildcard DATA
 0002:00000090 00000008H .rdata$.refptr._fmode   DATA
 0002:00000098 00000008H .rdata$.refptr._hInstance DATA
 0002:000000a0 00000008H .rdata$.refptr._newmode DATA
 0002:000000a8 00005f44H .rdata                  DATA
 0002:00005ff0 0000003cH .rdata$_ZTR13TMainpageform DATA
 0002:00006030 000005dfH .rdata                  DATA
 0002:00006610 0000003aH .rdata$_ZTR12TPC1pageform DATA
 0002:00006650 000005dfH .rdata                  DATA
 0002:00006c30 0000003aH .rdata$_ZTR12TPC2pageform DATA
 0002:00006c70 000005dfH .rdata                  DATA
 0002:00007250 0000003aH .rdata$_ZTR12TPC3pageform DATA
 0002:00007290 000005dfH .rdata                  DATA
 0002:00007870 0000003aH .rdata$_ZTR12TPC4pageform DATA
 0002:000078aa 00000001H .rdata                  DATA
 0002:000078b0 00000008H .rdata$.refptr.Mainpageform DATA
 0002:000078b8 00000008H .rdata$.refptr.PC1pageform DATA
 0002:000078c0 00000008H .rdata$.refptr.PC2pageform DATA
 0002:000078c8 00000008H .rdata$.refptr.PC3pageform DATA
 0002:000078d0 00000008H .rdata$.refptr.PC4pageform DATA
 0002:000078d8 00000008H .rdata$.refptr._ZTRN6System8Sysutils9ExceptionE DATA
 0002:000078e0 00000008H .rdata$.refptr._ZTV12TPC1pageform DATA
 0002:000078e8 00000008H .rdata$.refptr._ZTV12TPC2pageform DATA
 0002:000078f0 00000008H .rdata$.refptr._ZTV12TPC3pageform DATA
 0002:000078f8 00000008H .rdata$.refptr._ZTV12TPC4pageform DATA
 0002:00007900 00000008H .rdata$.refptr._ZTV13TMainpageform DATA
 0002:00007908 00000008H .rdata$.refptr._ZTVN6System8Sysutils9ExceptionE DATA
 0002:00007910 00000012H .rdata                  DATA
 0002:00007928 00000008H .rdata$.refptr.__imp__tzset DATA
 0002:00007930 00000008H .rdata$.refptr.__mingw_module_is_dll DATA
 0002:00007938 00000008H .rdata$.refptr.__CTOR_LIST__ DATA
 0002:00007940 00000038H .rdata                  DATA
 0002:00007978 00000008H .rdata$.refptr._CRT_MT  DATA
 0002:00007980 00000255H .rdata                  DATA
 0002:00007bd8 00000008H .rdata$.refptr.__RUNTIME_PSEUDO_RELOC_LIST_END__ DATA
 0002:00007be0 00000008H .rdata$.refptr.__RUNTIME_PSEUDO_RELOC_LIST__ DATA
 0002:00007be8 00000008H .rdata$.refptr._ZN6System10_init_instE DATA
 0002:00007bf0 00000008H .rdata$.refptr._ZTRN6System8Sysutils11ERangeErrorE DATA
 0002:00007bf8 00000008H .rdata$.refptr._ZTVN6System8Sysutils11ERangeErrorE DATA
 0002:00007c00 000001b2H .rdata                  DATA
 0002:00007db2 00000019H .rdata$_ZTSSt20bad_array_new_length DATA
 0002:00007dcb 0000000dH .rdata$_ZTSSt9bad_alloc DATA
 0002:00007dd8 0000000dH .rdata$_ZTSSt9exception DATA
 0002:00007de8 00000010H .rdata$_ZTISt9exception DATA
 0002:00007df8 00000018H .rdata$_ZTISt9bad_alloc DATA
 0002:00007e10 00000018H .rdata$_ZTISt20bad_array_new_length DATA
 0002:00007e28 0000006dH .rdata                  DATA
 0002:00007e98 00000008H .rdata$.refptr.__EMBT_INIT_LIST_BEGIN__ DATA
 0002:00007ea0 00000008H .rdata$.refptr.__EMBT_INIT_LIST_END__ DATA
 0002:00007ea8 00000008H .rdata$.refptr.__isDLL  DATA
 0002:00007eb0 00000008H .rdata$.refptr.__isGUI  DATA
 0002:00007eb8 00000008H .rdata$.refptr.__isVCLPackage DATA
 0002:00007ec0 000003a0H .rdata                  DATA
 0002:000082d8 00000008H .CRT$XCA                DATA
 0002:000082e0 00000008H .CRT$XCAA               DATA
 0002:000082e8 00000008H .CRT$XCZ                DATA
 0002:000082f0 00000008H .CRT$XDA                DATA
 0002:000082f8 00000008H .CRT$XDZ                DATA
 0002:00008300 00000008H .CRT$XIA                DATA
 0002:00008308 00000008H .CRT$XIAA               DATA
 0002:00008310 00000008H .CRT$XIZ                DATA
 0002:00008318 00000008H .CRT$XLA                DATA
 0002:00008320 00000008H .CRT$XLC                DATA
 0002:00008328 00000008H .CRT$XLD                DATA
 0002:00008330 00000008H .CRT$XLZ                DATA
 0002:00008340 00000008H .ctors.65435            DATA
 0002:00008348 00000010H .ctors.65534            DATA
 0002:00008368 00000008H .dtors.65435            DATA
 0002:0000e8c8 000001fcH .xdata                  DATA
 0002:0000eac4 00000008H .xdata$_ZN3Fmx5Forms5TFormC3EPN6System7Classes10TComponentE DATA
 0002:0000eacc 00000008H .xdata$_ZN13TMainpageformD0Ev DATA
 0002:0000ead4 00000008H .xdata$_ZN3Fmx5Forms5TFormC3EPN6System7Classes10TComponentEx DATA
 0002:0000eadc 00000008H .xdata$_ZN3Fmx5Forms5TFormD0Ev DATA
 0002:0000eae4 00000008H .xdata                  DATA
 0002:0000eaec 00000008H .xdata$_ZN12TPC1pageformD0Ev DATA
 0002:0000eaf4 00000008H .xdata                  DATA
 0002:0000eafc 00000008H .xdata$_ZN12TPC2pageformD0Ev DATA
 0002:0000eb04 00000008H .xdata                  DATA
 0002:0000eb0c 00000008H .xdata$_ZN12TPC3pageformD0Ev DATA
 0002:0000eb14 00000008H .xdata                  DATA
 0002:0000eb1c 00000008H .xdata$_ZN12TPC4pageformD0Ev DATA
 0002:0000eb24 0000006cH .xdata                  DATA
 0002:0000eb90 00000008H .xdata$_ZN6System7Classes15TComponentClassC1EPNS_10TMetaClassE DATA
 0002:0000eb98 00000008H .xdata$_ZN6System7Classes15TComponentClassC2EPNS_10TMetaClassE DATA
 0002:0000eba0 00000008H .xdata$_ZN6System15DelphiMetaClassINS_7Classes15TComponentClassEEC2EPNS_10TMetaClassE DATA
 0002:0000eba8 000006b8H .xdata                  DATA
 0002:0000f260 00000020H .xdata$_ZN6System8Sysutils11ERangeErrorC3ENS_13UnicodeStringE DATA
 0002:0000f280 00000020H .xdata$_ZN6System11AnsiStringTILt0EED2Ev DATA
 0002:0000f2a0 00000020H .xdata$_ZN6System8Sysutils9EIntErrorC3ENS_13UnicodeStringE DATA
 0002:0000f2c0 00000020H .xdata$_ZN6System8Sysutils9EExternalC3ENS_13UnicodeStringE DATA
 0002:0000f2e0 00000020H .xdata$_ZN6System8Sysutils11ERangeErrorC3ENS_13UnicodeStringE DATA
 0002:0000f300 00000008H .xdata$_ZN6System8Sysutils11ERangeErrorD0Ev DATA
 0002:0000f308 00000008H .xdata$_ZN6System11WideCharLenIwEEiPKT_ DATA
 0002:0000f310 00000008H .xdata$_ZN6System11WideCharLenIDsEEiPKT_ DATA
 0002:0000f318 00000008H .xdata$_ZN6System11AnsiStringTILt0EEC2EPKci DATA
 0002:0000f320 00000020H .xdata$_ZN6System11AnsiStringTILt0EED2Ev DATA
 0002:0000f340 00000008H .xdata$_ZN6System11AnsiStringTILt0EEC2Ev DATA
 0002:0000f348 00000008H .xdata$_ZN6System13UnicodeStringC2ILt0EEERKNS_11AnsiStringTIXT_EEE DATA
 0002:0000f350 00000020H .xdata$_ZN6System8Sysutils9EIntErrorC3ENS_13UnicodeStringE DATA
 0002:0000f370 00000020H .xdata$_ZN6System8Sysutils9EExternalC3ENS_13UnicodeStringE DATA
 0002:0000f390 00000008H .xdata$_ZN6System8Sysutils9EIntErrorD0Ev DATA
 0002:0000f398 00000008H .xdata$_ZN6System8Sysutils9EExternalD0Ev DATA
 0002:0000f3a0 00000008H .xdata$_ZN6System11AnsiStringTILt0EEC2ERKS1_ DATA
 0002:0000f3a8 00000008H .xdata$_ZN6System14AnsiStringBaseC2Ev DATA
 0002:0000f3b0 000001d4H .xdata                  DATA
 0002:0000f584 00000020H .xdata$_ZN6System15DelphiInterfaceINS_10IInterfaceEED2Ev DATA
 0002:0000f5a4 00000020H .xdata$_ZNSt3__113unordered_mapIPN6System7Typinfo9TTypeInfoEPSt9type_infoNS_4hashIS4_EENS_8equal_toIS4_EENS_9allocatorINS_4pairIKS4_S6_EEEEEC2B6v15007Ev DATA
 0002:0000f5c4 00000018H .xdata$_ZNK6System11AnsiStringTILt65001EEplERKS1_ DATA
 0002:0000f5dc 00000020H .xdata$_ZNSt3__112__hash_tableINS_17__hash_value_typeIPN6System7Typinfo9TTypeInfoEPSt9type_infoEENS_22__unordered_map_hasherIS5_S8_NS_4hashIS5_EENS_8equal_toIS5_EELb1EEENS_21__unordered_map_equalIS5_S8_SD_SB_Lb1EEENS_9allocatorIS8_EEEC2Ev DATA
 0002:0000f5fc 00000020H .xdata$_ZNSt3__110unique_ptrIA_PNS_16__hash_node_baseIPNS_11__hash_nodeINS_17__hash_value_typeIPN6System7Typinfo9TTypeInfoEPSt9type_infoEEPvEEEENS_25__bucket_list_deallocatorINS_9allocatorISF_EEEEEC2B6v15007ILb1EvEEv DATA
 0002:0000f61c 00000020H .xdata$_ZNSt3__125__bucket_list_deallocatorINS_9allocatorIPNS_16__hash_node_baseIPNS_11__hash_nodeINS_17__hash_value_typeIPN6System7Typinfo9TTypeInfoEPSt9type_infoEEPvEEEEEEEC2B6v15007Ev DATA
 0002:0000f63c 00000020H .xdata$_ZNSt3__112__hash_tableINS_17__hash_value_typeIPN6System7Typinfo9TTypeInfoEPSt9type_infoEENS_22__unordered_map_hasherIS5_S8_NS_4hashIS5_EENS_8equal_toIS5_EELb1EEENS_21__unordered_map_equalIS5_S8_SD_SB_Lb1EEENS_9allocatorIS8_EEED2Ev DATA
 0002:0000f65c 00000020H .xdata$_ZNSt3__112__hash_tableINS_17__hash_value_typeIPN6System7Typinfo9TTypeInfoEPSt9type_infoEENS_22__unordered_map_hasherIS5_S8_NS_4hashIS5_EENS_8equal_toIS5_EELb1EEENS_21__unordered_map_equalIS5_S8_SD_SB_Lb1EEENS_9allocatorIS8_EEE17__deallocate_nodeEPNS_16__hash_node_baseIPNS_11__hash_nodeIS8_PvEEEE DATA
 0002:0000f67c 00000020H .xdata$_ZNSt3__19allocatorINS_11__hash_nodeINS_17__hash_value_typeIPN6System7Typinfo9TTypeInfoEPSt9type_infoEEPvEEE10deallocateB6v15007EPSB_y DATA
 0002:0000f69c 00000020H .xdata$_ZNSt3__19allocatorIPNS_16__hash_node_baseIPNS_11__hash_nodeINS_17__hash_value_typeIPN6System7Typinfo9TTypeInfoEPSt9type_infoEEPvEEEEE10deallocateB6v15007EPSF_y DATA
 0002:0000f6bc 00000024H .xdata$_ZNSt3__112__hash_tableINS_17__hash_value_typeIPN6System7Typinfo9TTypeInfoEPSt9type_infoEENS_22__unordered_map_hasherIS5_S8_NS_4hashIS5_EENS_8equal_toIS5_EELb1EEENS_21__unordered_map_equalIS5_S8_SD_SB_Lb1EEENS_9allocatorIS8_EEE25__emplace_unique_key_argsIS5_JRKNS_21piecewise_construct_tENS_5tupleIJRKS5_EEENSO_IJEEEEEENS_4pairINS_15__hash_iteratorIPNS_11__hash_nodeIS8_PvEEEEbEERKT_DpOT0_ DATA
 0002:0000f6e0 00000024H .xdata$_ZNSt3__112__hash_tableINS_17__hash_value_typeIPN6System7Typinfo9TTypeInfoEPSt9type_infoEENS_22__unordered_map_hasherIS5_S8_NS_4hashIS5_EENS_8equal_toIS5_EELb1EEENS_21__unordered_map_equalIS5_S8_SD_SB_Lb1EEENS_9allocatorIS8_EEE21__construct_node_hashIRKNS_21piecewise_construct_tEJNS_5tupleIJRKS5_EEENSO_IJEEEEEENS_10unique_ptrINS_11__hash_nodeIS8_PvEENS_22__hash_node_destructorINSH_ISW_EEEEEEyOT_DpOT0_ DATA
 0002:0000f704 00000020H .xdata$_ZNKSt3__14hashIPN6System7Typinfo9TTypeInfoEEclB6v15007ES4_ DATA
 0002:0000f724 00000020H .xdata$_ZNSt3__110unique_ptrINS_11__hash_nodeINS_17__hash_value_typeIPN6System7Typinfo9TTypeInfoEPSt9type_infoEEPvEENS_22__hash_node_destructorINS_9allocatorISB_EEEEEC2B6v15007ILb1EvEEPSB_NS_16__dependent_typeINS_27__unique_ptr_deleter_sfinaeISF_EEXT_EE20__good_rval_ref_typeE DATA
 0002:0000f744 00000020H .xdata$_ZNSt3__14pairIKPN6System7Typinfo9TTypeInfoEPSt9type_infoEC2B6v15007IJRS5_EJEEENS_21piecewise_construct_tENS_5tupleIJDpT_EEENSC_IJDpT0_EEE DATA
 0002:0000f764 00000020H .xdata$_ZNSt3__122__hash_node_destructorINS_9allocatorINS_11__hash_nodeINS_17__hash_value_typeIPN6System7Typinfo9TTypeInfoEPSt9type_infoEEPvEEEEEclB6v15007EPSC_ DATA
 0002:0000f784 00000008H .xdata$_ZN6System15DelphiInterfaceINS_10IInterfaceEEadEv DATA
 0002:0000f78c 00000020H .xdata$_ZN6System15DelphiInterfaceINS_10IInterfaceEED2Ev DATA
 0002:0000f7ac 00000008H .xdata$_ZNSt3__110lock_guardINS_5mutexEEC2B6v15007ERS1_ DATA
 0002:0000f7b4 00000020H .xdata$_ZNSt3__113unordered_mapIPN6System7Typinfo9TTypeInfoEPSt9type_infoNS_4hashIS4_EENS_8equal_toIS4_EENS_9allocatorINS_4pairIKS4_S6_EEEEEC2B6v15007Ev DATA
 0002:0000f7d4 00000008H .xdata$_ZNSt3__113unordered_mapIPN6System7Typinfo9TTypeInfoEPSt9type_infoNS_4hashIS4_EENS_8equal_toIS4_EENS_9allocatorINS_4pairIKS4_S6_EEEEED2B6v15007Ev DATA
 0002:0000f7dc 00000008H .xdata$_ZNSt3__113unordered_mapIPN6System7Typinfo9TTypeInfoEPSt9type_infoNS_4hashIS4_EENS_8equal_toIS4_EENS_9allocatorINS_4pairIKS4_S6_EEEEEixERSD_ DATA
 0002:0000f7e4 00000008H .xdata$_ZN6System11AnsiStringTILt65001EEC2ERKNS_13UnicodeStringE DATA
 0002:0000f7ec 00000018H .xdata$_ZNK6System11AnsiStringTILt65001EEplERKS1_ DATA
 0002:0000f804 00000008H .xdata$_ZN6System11AnsiStringTILt65001EEC2EPKc DATA
 0002:0000f80c 00000008H .xdata$_ZN6System11AnsiStringTILt65001EEC2Ev DATA
 0002:0000f814 00000008H .xdata$_ZN6System11AnsiStringTILt65001EEaSERKS1_ DATA
 0002:0000f81c 00000008H .xdata$_ZN6System11AnsiStringTILt65001EED2Ev DATA
 0002:0000f824 00000008H .xdata$_ZN10__cxxabiv117__class_type_infoC2Ev DATA
 0002:0000f82c 00000008H .xdata$_ZNK6System11AnsiStringTILt65001EE5c_strEv DATA
 0002:0000f834 00000008H .xdata$_ZNSt3__110lock_guardINS_5mutexEED2B6v15007Ev DATA
 0002:0000f83c 00000008H .xdata$_ZN10__cxxabiv116__shim_type_infoC2Ev DATA
 0002:0000f844 00000020H .xdata$_ZNSt3__112__hash_tableINS_17__hash_value_typeIPN6System7Typinfo9TTypeInfoEPSt9type_infoEENS_22__unordered_map_hasherIS5_S8_NS_4hashIS5_EENS_8equal_toIS5_EELb1EEENS_21__unordered_map_equalIS5_S8_SD_SB_Lb1EEENS_9allocatorIS8_EEEC2Ev DATA
 0002:0000f864 00000008H .xdata$_ZNSt3__119__debug_db_insert_cB6v15007INS_13unordered_mapIPN6System7Typinfo9TTypeInfoEPSt9type_infoNS_4hashIS5_EENS_8equal_toIS5_EENS_9allocatorINS_4pairIKS5_S7_EEEEEEEEvPT_ DATA
 0002:0000f86c 00000020H .xdata$_ZNSt3__110unique_ptrIA_PNS_16__hash_node_baseIPNS_11__hash_nodeINS_17__hash_value_typeIPN6System7Typinfo9TTypeInfoEPSt9type_infoEEPvEEEENS_25__bucket_list_deallocatorINS_9allocatorISF_EEEEEC2B6v15007ILb1EvEEv DATA
 0002:0000f88c 00000008H .xdata$_ZNSt3__117__compressed_pairINS_16__hash_node_baseIPNS_11__hash_nodeINS_17__hash_value_typeIPN6System7Typinfo9TTypeInfoEPSt9type_infoEEPvEEEENS_9allocatorISC_EEEC2B6v15007ILb1EvEEv DATA
 0002:0000f894 00000008H .xdata$_ZNSt3__117__compressed_pairIyNS_22__unordered_map_hasherIPN6System7Typinfo9TTypeInfoENS_17__hash_value_typeIS5_PSt9type_infoEENS_4hashIS5_EENS_8equal_toIS5_EELb1EEEEC2B6v15007IiNS_18__default_init_tagEEEOT_OT0_ DATA
 0002:0000f89c 00000008H .xdata$_ZNSt3__117__compressed_pairIfNS_21__unordered_map_equalIPN6System7Typinfo9TTypeInfoENS_17__hash_value_typeIS5_PSt9type_infoEENS_8equal_toIS5_EENS_4hashIS5_EELb1EEEEC2B6v15007IfNS_18__default_init_tagEEEOT_OT0_ DATA
 0002:0000f8a4 00000008H .xdata$_ZNSt3__117__compressed_pairIPPNS_16__hash_node_baseIPNS_11__hash_nodeINS_17__hash_value_typeIPN6System7Typinfo9TTypeInfoEPSt9type_infoEEPvEEEENS_25__bucket_list_deallocatorINS_9allocatorISF_EEEEEC2B6v15007INS_16__value_init_tagESN_EEOT_OT0_ DATA
 0002:0000f8ac 00000008H .xdata$_ZNSt3__122__compressed_pair_elemIPPNS_16__hash_node_baseIPNS_11__hash_nodeINS_17__hash_value_typeIPN6System7Typinfo9TTypeInfoEPSt9type_infoEEPvEEEELi0ELb0EEC2B6v15007ENS_16__value_init_tagE DATA
 0002:0000f8b4 00000008H .xdata$_ZNSt3__122__compressed_pair_elemINS_25__bucket_list_deallocatorINS_9allocatorIPNS_16__hash_node_baseIPNS_11__hash_nodeINS_17__hash_value_typeIPN6System7Typinfo9TTypeInfoEPSt9type_infoEEPvEEEEEEEELi1ELb0EEC2B6v15007ENS_16__value_init_tagE DATA
 0002:0000f8bc 00000020H .xdata$_ZNSt3__125__bucket_list_deallocatorINS_9allocatorIPNS_16__hash_node_baseIPNS_11__hash_nodeINS_17__hash_value_typeIPN6System7Typinfo9TTypeInfoEPSt9type_infoEEPvEEEEEEEC2B6v15007Ev DATA
 0002:0000f8dc 00000008H .xdata$_ZNSt3__117__compressed_pairIyNS_9allocatorIPNS_16__hash_node_baseIPNS_11__hash_nodeINS_17__hash_value_typeIPN6System7Typinfo9TTypeInfoEPSt9type_infoEEPvEEEEEEEC2B6v15007IiNS_18__default_init_tagEEEOT_OT0_ DATA
 0002:0000f8e4 00000008H .xdata$_ZNSt3__122__compressed_pair_elemIyLi0ELb0EEC2B6v15007IivEEOT_ DATA
 0002:0000f8ec 00000008H .xdata$_ZNSt3__122__compressed_pair_elemINS_9allocatorIPNS_16__hash_node_baseIPNS_11__hash_nodeINS_17__hash_value_typeIPN6System7Typinfo9TTypeInfoEPSt9type_infoEEPvEEEEEELi1ELb1EEC2B6v15007ENS_18__default_init_tagE DATA
 0002:0000f8f4 00000008H .xdata$_ZNSt3__19allocatorIPNS_16__hash_node_baseIPNS_11__hash_nodeINS_17__hash_value_typeIPN6System7Typinfo9TTypeInfoEPSt9type_infoEEPvEEEEEC2B6v15007Ev DATA
 0002:0000f8fc 00000008H .xdata$_ZNSt3__116__non_trivial_ifILb1ENS_9allocatorIPNS_16__hash_node_baseIPNS_11__hash_nodeINS_17__hash_value_typeIPN6System7Typinfo9TTypeInfoEPSt9type_infoEEPvEEEEEEEC2B6v15007Ev DATA
 0002:0000f904 00000008H .xdata$_ZNSt3__122__compressed_pair_elemINS_16__hash_node_baseIPNS_11__hash_nodeINS_17__hash_value_typeIPN6System7Typinfo9TTypeInfoEPSt9type_infoEEPvEEEELi0ELb0EEC2B6v15007ENS_16__value_init_tagE DATA
 0002:0000f90c 00000008H .xdata$_ZNSt3__122__compressed_pair_elemINS_9allocatorINS_11__hash_nodeINS_17__hash_value_typeIPN6System7Typinfo9TTypeInfoEPSt9type_infoEEPvEEEELi1ELb1EEC2B6v15007ENS_16__value_init_tagE DATA
 0002:0000f914 00000008H .xdata$_ZNSt3__116__hash_node_baseIPNS_11__hash_nodeINS_17__hash_value_typeIPN6System7Typinfo9TTypeInfoEPSt9type_infoEEPvEEEC2B6v15007Ev DATA
 0002:0000f91c 00000008H .xdata$_ZNSt3__19allocatorINS_11__hash_nodeINS_17__hash_value_typeIPN6System7Typinfo9TTypeInfoEPSt9type_infoEEPvEEEC2B6v15007Ev DATA
 0002:0000f924 00000008H .xdata$_ZNSt3__116__non_trivial_ifILb1ENS_9allocatorINS_11__hash_nodeINS_17__hash_value_typeIPN6System7Typinfo9TTypeInfoEPSt9type_infoEEPvEEEEEC2B6v15007Ev DATA
 0002:0000f92c 00000008H .xdata$_ZNSt3__122__compressed_pair_elemINS_22__unordered_map_hasherIPN6System7Typinfo9TTypeInfoENS_17__hash_value_typeIS5_PSt9type_infoEENS_4hashIS5_EENS_8equal_toIS5_EELb1EEELi1ELb1EEC2B6v15007ENS_18__default_init_tagE DATA
 0002:0000f934 00000008H .xdata$_ZNSt3__122__unordered_map_hasherIPN6System7Typinfo9TTypeInfoENS_17__hash_value_typeIS4_PSt9type_infoEENS_4hashIS4_EENS_8equal_toIS4_EELb1EEC2B6v15007Ev DATA
 0002:0000f93c 00000008H .xdata$_ZNSt3__122__compressed_pair_elemIfLi0ELb0EEC2B6v15007IfvEEOT_ DATA
 0002:0000f944 00000008H .xdata$_ZNSt3__122__compressed_pair_elemINS_21__unordered_map_equalIPN6System7Typinfo9TTypeInfoENS_17__hash_value_typeIS5_PSt9type_infoEENS_8equal_toIS5_EENS_4hashIS5_EELb1EEELi1ELb1EEC2B6v15007ENS_18__default_init_tagE DATA
 0002:0000f94c 00000008H .xdata$_ZNSt3__121__unordered_map_equalIPN6System7Typinfo9TTypeInfoENS_17__hash_value_typeIS4_PSt9type_infoEENS_8equal_toIS4_EENS_4hashIS4_EELb1EEC2B6v15007Ev DATA
 0002:0000f954 00000020H .xdata$_ZNSt3__112__hash_tableINS_17__hash_value_typeIPN6System7Typinfo9TTypeInfoEPSt9type_infoEENS_22__unordered_map_hasherIS5_S8_NS_4hashIS5_EENS_8equal_toIS5_EELb1EEENS_21__unordered_map_equalIS5_S8_SD_SB_Lb1EEENS_9allocatorIS8_EEED2Ev DATA
 0002:0000f974 00000020H .xdata$_ZNSt3__112__hash_tableINS_17__hash_value_typeIPN6System7Typinfo9TTypeInfoEPSt9type_infoEENS_22__unordered_map_hasherIS5_S8_NS_4hashIS5_EENS_8equal_toIS5_EELb1EEENS_21__unordered_map_equalIS5_S8_SD_SB_Lb1EEENS_9allocatorIS8_EEE17__deallocate_nodeEPNS_16__hash_node_baseIPNS_11__hash_nodeIS8_PvEEEE DATA
 0002:0000f994 00000008H .xdata$_ZNSt3__117__compressed_pairINS_16__hash_node_baseIPNS_11__hash_nodeINS_17__hash_value_typeIPN6System7Typinfo9TTypeInfoEPSt9type_infoEEPvEEEENS_9allocatorISC_EEE5firstB6v15007Ev DATA
 0002:0000f99c 00000008H .xdata$_ZNSt3__118__debug_db_erase_cB6v15007INS_12__hash_tableINS_17__hash_value_typeIPN6System7Typinfo9TTypeInfoEPSt9type_infoEENS_22__unordered_map_hasherIS6_S9_NS_4hashIS6_EENS_8equal_toIS6_EELb1EEENS_21__unordered_map_equalIS6_S9_SE_SC_Lb1EEENS_9allocatorIS9_EEEEEEvPT_ DATA
 0002:0000f9a4 00000008H .xdata$_ZNSt3__110unique_ptrIA_PNS_16__hash_node_baseIPNS_11__hash_nodeINS_17__hash_value_typeIPN6System7Typinfo9TTypeInfoEPSt9type_infoEEPvEEEENS_25__bucket_list_deallocatorINS_9allocatorISF_EEEEED2B6v15007Ev DATA
 0002:0000f9ac 00000008H .xdata$_ZNSt3__112__hash_tableINS_17__hash_value_typeIPN6System7Typinfo9TTypeInfoEPSt9type_infoEENS_22__unordered_map_hasherIS5_S8_NS_4hashIS5_EENS_8equal_toIS5_EELb1EEENS_21__unordered_map_equalIS5_S8_SD_SB_Lb1EEENS_9allocatorIS8_EEE12__node_allocB6v15007Ev DATA
 0002:0000f9b4 00000008H .xdata$_ZNSt3__116__hash_node_baseIPNS_11__hash_nodeINS_17__hash_value_typeIPN6System7Typinfo9TTypeInfoEPSt9type_infoEEPvEEE8__upcastB6v15007Ev DATA
 0002:0000f9bc 00000008H .xdata$_ZNSt3__116allocator_traitsINS_9allocatorINS_11__hash_nodeINS_17__hash_value_typeIPN6System7Typinfo9TTypeInfoEPSt9type_infoEEPvEEEEE7destroyB6v15007INS_4pairIKS7_S9_EEvvEEvRSD_PT_ DATA
 0002:0000f9c4 00000008H .xdata$_ZNSt3__122__hash_key_value_typesINS_17__hash_value_typeIPN6System7Typinfo9TTypeInfoEPSt9type_infoEEE9__get_ptrB6v15007ERS8_ DATA
 0002:0000f9cc 00000008H .xdata$_ZNSt3__116allocator_traitsINS_9allocatorINS_11__hash_nodeINS_17__hash_value_typeIPN6System7Typinfo9TTypeInfoEPSt9type_infoEEPvEEEEE10deallocateB6v15007ERSD_PSC_y DATA
 0002:0000f9d4 00000008H .xdata$_ZNSt3__117__compressed_pairINS_16__hash_node_baseIPNS_11__hash_nodeINS_17__hash_value_typeIPN6System7Typinfo9TTypeInfoEPSt9type_infoEEPvEEEENS_9allocatorISC_EEE6secondB6v15007Ev DATA
 0002:0000f9dc 00000008H .xdata$_ZNSt3__122__compressed_pair_elemINS_9allocatorINS_11__hash_nodeINS_17__hash_value_typeIPN6System7Typinfo9TTypeInfoEPSt9type_infoEEPvEEEELi1ELb1EE5__getB6v15007Ev DATA
 0002:0000f9e4 00000008H .xdata$_ZNSt3__114pointer_traitsIPNS_16__hash_node_baseIPNS_11__hash_nodeINS_17__hash_value_typeIPN6System7Typinfo9TTypeInfoEPSt9type_infoEEPvEEEEE10pointer_toB6v15007ERSE_ DATA
 0002:0000f9ec 00000008H .xdata$_ZNSt3__117__hash_value_typeIPN6System7Typinfo9TTypeInfoEPSt9type_infoE11__get_valueB6v15007Ev DATA
 0002:0000f9f4 00000008H .xdata$_ZNSt3__17launderB6v15007INS_4pairIKPN6System7Typinfo9TTypeInfoEPSt9type_infoEEEEPT_SB_ DATA
 0002:0000f9fc 00000008H .xdata$_ZNSt3__19__launderB6v15007INS_4pairIKPN6System7Typinfo9TTypeInfoEPSt9type_infoEEEEPT_SB_ DATA
 0002:0000fa04 00000020H .xdata$_ZNSt3__19allocatorINS_11__hash_nodeINS_17__hash_value_typeIPN6System7Typinfo9TTypeInfoEPSt9type_infoEEPvEEE10deallocateB6v15007EPSB_y DATA
 0002:0000fa24 00000008H .xdata$_ZNSt3__119__libcpp_deallocateB6v15007EPvyy DATA
 0002:0000fa2c 00000008H .xdata$_ZNSt3__124__is_overaligned_for_newB6v15007Ey DATA
 0002:0000fa34 00000008H .xdata$_ZNSt3__127__do_deallocate_handle_sizeB6v15007IJSt11align_val_tEEEvPvyDpT_ DATA
 0002:0000fa3c 00000008H .xdata$_ZNSt3__127__do_deallocate_handle_sizeB6v15007IJEEEvPvyDpT_ DATA
 0002:0000fa44 00000008H .xdata$_ZNSt3__124__libcpp_operator_deleteB6v15007IJPvSt11align_val_tEEEvDpT_ DATA
 0002:0000fa4c 00000008H .xdata$_ZNSt3__124__libcpp_operator_deleteB6v15007IJPvEEEvDpT_ DATA
 0002:0000fa54 00000008H .xdata$_ZNSt3__122__compressed_pair_elemINS_16__hash_node_baseIPNS_11__hash_nodeINS_17__hash_value_typeIPN6System7Typinfo9TTypeInfoEPSt9type_infoEEPvEEEELi0ELb0EE5__getB6v15007Ev DATA
 0002:0000fa5c 00000008H .xdata$_ZNSt3__110unique_ptrIA_PNS_16__hash_node_baseIPNS_11__hash_nodeINS_17__hash_value_typeIPN6System7Typinfo9TTypeInfoEPSt9type_infoEEPvEEEENS_25__bucket_list_deallocatorINS_9allocatorISF_EEEEE5resetB6v15007EDn DATA
 0002:0000fa64 00000008H .xdata$_ZNSt3__117__compressed_pairIPPNS_16__hash_node_baseIPNS_11__hash_nodeINS_17__hash_value_typeIPN6System7Typinfo9TTypeInfoEPSt9type_infoEEPvEEEENS_25__bucket_list_deallocatorINS_9allocatorISF_EEEEE5firstB6v15007Ev DATA
 0002:0000fa6c 00000008H .xdata$_ZNSt3__117__compressed_pairIPPNS_16__hash_node_baseIPNS_11__hash_nodeINS_17__hash_value_typeIPN6System7Typinfo9TTypeInfoEPSt9type_infoEEPvEEEENS_25__bucket_list_deallocatorINS_9allocatorISF_EEEEE6secondB6v15007Ev DATA
 0002:0000fa74 00000008H .xdata$_ZNSt3__125__bucket_list_deallocatorINS_9allocatorIPNS_16__hash_node_baseIPNS_11__hash_nodeINS_17__hash_value_typeIPN6System7Typinfo9TTypeInfoEPSt9type_infoEEPvEEEEEEEclB6v15007EPSG_ DATA
 0002:0000fa7c 00000008H .xdata$_ZNSt3__122__compressed_pair_elemIPPNS_16__hash_node_baseIPNS_11__hash_nodeINS_17__hash_value_typeIPN6System7Typinfo9TTypeInfoEPSt9type_infoEEPvEEEELi0ELb0EE5__getB6v15007Ev DATA
 0002:0000fa84 00000008H .xdata$_ZNSt3__122__compressed_pair_elemINS_25__bucket_list_deallocatorINS_9allocatorIPNS_16__hash_node_baseIPNS_11__hash_nodeINS_17__hash_value_typeIPN6System7Typinfo9TTypeInfoEPSt9type_infoEEPvEEEEEEEELi1ELb0EE5__getB6v15007Ev DATA
 0002:0000fa8c 00000008H .xdata$_ZNSt3__116allocator_traitsINS_9allocatorIPNS_16__hash_node_baseIPNS_11__hash_nodeINS_17__hash_value_typeIPN6System7Typinfo9TTypeInfoEPSt9type_infoEEPvEEEEEEE10deallocateB6v15007ERSH_PSG_y DATA
 0002:0000fa94 00000008H .xdata$_ZNSt3__125__bucket_list_deallocatorINS_9allocatorIPNS_16__hash_node_baseIPNS_11__hash_nodeINS_17__hash_value_typeIPN6System7Typinfo9TTypeInfoEPSt9type_infoEEPvEEEEEEE7__allocB6v15007Ev DATA
 0002:0000fa9c 00000008H .xdata$_ZNSt3__125__bucket_list_deallocatorINS_9allocatorIPNS_16__hash_node_baseIPNS_11__hash_nodeINS_17__hash_value_typeIPN6System7Typinfo9TTypeInfoEPSt9type_infoEEPvEEEEEEE4sizeB6v15007Ev DATA
 0002:0000faa4 00000020H .xdata$_ZNSt3__19allocatorIPNS_16__hash_node_baseIPNS_11__hash_nodeINS_17__hash_value_typeIPN6System7Typinfo9TTypeInfoEPSt9type_infoEEPvEEEEE10deallocateB6v15007EPSF_y DATA
 0002:0000fac4 00000008H .xdata$_ZNSt3__117__compressed_pairIyNS_9allocatorIPNS_16__hash_node_baseIPNS_11__hash_nodeINS_17__hash_value_typeIPN6System7Typinfo9TTypeInfoEPSt9type_infoEEPvEEEEEEE6secondB6v15007Ev DATA
 0002:0000facc 00000008H .xdata$_ZNSt3__122__compressed_pair_elemINS_9allocatorIPNS_16__hash_node_baseIPNS_11__hash_nodeINS_17__hash_value_typeIPN6System7Typinfo9TTypeInfoEPSt9type_infoEEPvEEEEEELi1ELb1EE5__getB6v15007Ev DATA
 0002:0000fad4 00000008H .xdata$_ZNSt3__117__compressed_pairIyNS_9allocatorIPNS_16__hash_node_baseIPNS_11__hash_nodeINS_17__hash_value_typeIPN6System7Typinfo9TTypeInfoEPSt9type_infoEEPvEEEEEEE5firstB6v15007Ev DATA
 0002:0000fadc 00000008H .xdata$_ZNSt3__122__compressed_pair_elemIyLi0ELb0EE5__getB6v15007Ev DATA
 0002:0000fae4 00000024H .xdata$_ZNSt3__112__hash_tableINS_17__hash_value_typeIPN6System7Typinfo9TTypeInfoEPSt9type_infoEENS_22__unordered_map_hasherIS5_S8_NS_4hashIS5_EENS_8equal_toIS5_EELb1EEENS_21__unordered_map_equalIS5_S8_SD_SB_Lb1EEENS_9allocatorIS8_EEE25__emplace_unique_key_argsIS5_JRKNS_21piecewise_construct_tENS_5tupleIJRKS5_EEENSO_IJEEEEEENS_4pairINS_15__hash_iteratorIPNS_11__hash_nodeIS8_PvEEEEbEERKT_DpOT0_ DATA
 0002:0000fb08 00000008H .xdata$_ZNSt3__116forward_as_tupleB6v15007IJRKPN6System7Typinfo9TTypeInfoEEEENS_5tupleIJDpOT_EEESA_ DATA
 0002:0000fb10 00000008H .xdata$_ZNSt3__116forward_as_tupleB6v15007IJEEENS_5tupleIJDpOT_EEES4_ DATA
 0002:0000fb18 00000008H .xdata$_ZNKSt3__115__hash_iteratorIPNS_11__hash_nodeINS_17__hash_value_typeIPN6System7Typinfo9TTypeInfoEPSt9type_infoEEPvEEEptB6v15007Ev DATA
 0002:0000fb20 00000008H .xdata$_ZNSt3__112__hash_tableINS_17__hash_value_typeIPN6System7Typinfo9TTypeInfoEPSt9type_infoEENS_22__unordered_map_hasherIS5_S8_NS_4hashIS5_EENS_8equal_toIS5_EELb1EEENS_21__unordered_map_equalIS5_S8_SD_SB_Lb1EEENS_9allocatorIS8_EEE13hash_functionB6v15007Ev DATA
 0002:0000fb28 00000008H .xdata$_ZNKSt3__122__unordered_map_hasherIPN6System7Typinfo9TTypeInfoENS_17__hash_value_typeIS4_PSt9type_infoEENS_4hashIS4_EENS_8equal_toIS4_EELb1EEclB6v15007ERKS4_ DATA
 0002:0000fb30 00000008H .xdata$_ZNKSt3__112__hash_tableINS_17__hash_value_typeIPN6System7Typinfo9TTypeInfoEPSt9type_infoEENS_22__unordered_map_hasherIS5_S8_NS_4hashIS5_EENS_8equal_toIS5_EELb1EEENS_21__unordered_map_equalIS5_S8_SD_SB_Lb1EEENS_9allocatorIS8_EEE12bucket_countB6v15007Ev DATA
 0002:0000fb38 00000008H .xdata$_ZNSt3__116__constrain_hashB6v15007Eyy DATA
 0002:0000fb40 00000008H .xdata$_ZNKSt3__110unique_ptrIA_PNS_16__hash_node_baseIPNS_11__hash_nodeINS_17__hash_value_typeIPN6System7Typinfo9TTypeInfoEPSt9type_infoEEPvEEEENS_25__bucket_list_deallocatorINS_9allocatorISF_EEEEEixB6v15007Ey DATA
 0002:0000fb48 00000008H .xdata$_ZNKSt3__116__hash_node_baseIPNS_11__hash_nodeINS_17__hash_value_typeIPN6System7Typinfo9TTypeInfoEPSt9type_infoEEPvEEE6__hashB6v15007Ev DATA
 0002:0000fb50 00000008H .xdata$_ZNSt3__112__hash_tableINS_17__hash_value_typeIPN6System7Typinfo9TTypeInfoEPSt9type_infoEENS_22__unordered_map_hasherIS5_S8_NS_4hashIS5_EENS_8equal_toIS5_EELb1EEENS_21__unordered_map_equalIS5_S8_SD_SB_Lb1EEENS_9allocatorIS8_EEE6key_eqB6v15007Ev DATA
 0002:0000fb58 00000008H .xdata$_ZNKSt3__121__unordered_map_equalIPN6System7Typinfo9TTypeInfoENS_17__hash_value_typeIS4_PSt9type_infoEENS_8equal_toIS4_EENS_4hashIS4_EELb1EEclB6v15007ERKS8_RKS4_ DATA
 0002:0000fb60 00000024H .xdata$_ZNSt3__112__hash_tableINS_17__hash_value_typeIPN6System7Typinfo9TTypeInfoEPSt9type_infoEENS_22__unordered_map_hasherIS5_S8_NS_4hashIS5_EENS_8equal_toIS5_EELb1EEENS_21__unordered_map_equalIS5_S8_SD_SB_Lb1EEENS_9allocatorIS8_EEE21__construct_node_hashIRKNS_21piecewise_construct_tEJNS_5tupleIJRKS5_EEENSO_IJEEEEEENS_10unique_ptrINS_11__hash_nodeIS8_PvEENS_22__hash_node_destructorINSH_ISW_EEEEEEyOT_DpOT0_ DATA
 0002:0000fb84 00000008H .xdata$_ZNSt3__112__hash_tableINS_17__hash_value_typeIPN6System7Typinfo9TTypeInfoEPSt9type_infoEENS_22__unordered_map_hasherIS5_S8_NS_4hashIS5_EENS_8equal_toIS5_EELb1EEENS_21__unordered_map_equalIS5_S8_SD_SB_Lb1EEENS_9allocatorIS8_EEE4sizeB6v15007Ev DATA
 0002:0000fb8c 00000008H .xdata$_ZNSt3__112__hash_tableINS_17__hash_value_typeIPN6System7Typinfo9TTypeInfoEPSt9type_infoEENS_22__unordered_map_hasherIS5_S8_NS_4hashIS5_EENS_8equal_toIS5_EELb1EEENS_21__unordered_map_equalIS5_S8_SD_SB_Lb1EEENS_9allocatorIS8_EEE15max_load_factorB6v15007Ev DATA
 0002:0000fb94 00000008H .xdata$_ZNSt3__112__hash_tableINS_17__hash_value_typeIPN6System7Typinfo9TTypeInfoEPSt9type_infoEENS_22__unordered_map_hasherIS5_S8_NS_4hashIS5_EENS_8equal_toIS5_EELb1EEENS_21__unordered_map_equalIS5_S8_SD_SB_Lb1EEENS_9allocatorIS8_EEE15__rehash_uniqueB6v15007Ey DATA
 0002:0000fb9c 00000008H .xdata$_ZNSt3__13maxB6v15007IyEERKT_S3_S3_ DATA
 0002:0000fba4 00000008H .xdata$_ZNSt3__116__is_hash_power2B6v15007Ey DATA
 0002:0000fbac 00000008H .xdata$_Z4ceilB6v15007f DATA
 0002:0000fbb4 00000008H .xdata$_ZNSt3__116__hash_node_baseIPNS_11__hash_nodeINS_17__hash_value_typeIPN6System7Typinfo9TTypeInfoEPSt9type_infoEEPvEEE5__ptrB6v15007Ev DATA
 0002:0000fbbc 00000008H .xdata$_ZNKSt3__110unique_ptrINS_11__hash_nodeINS_17__hash_value_typeIPN6System7Typinfo9TTypeInfoEPSt9type_infoEEPvEENS_22__hash_node_destructorINS_9allocatorISB_EEEEEptB6v15007Ev DATA
 0002:0000fbc4 00000008H .xdata$_ZNKSt3__110unique_ptrINS_11__hash_nodeINS_17__hash_value_typeIPN6System7Typinfo9TTypeInfoEPSt9type_infoEEPvEENS_22__hash_node_destructorINS_9allocatorISB_EEEEE3getB6v15007Ev DATA
 0002:0000fbcc 00000008H .xdata$_ZNSt3__110unique_ptrINS_11__hash_nodeINS_17__hash_value_typeIPN6System7Typinfo9TTypeInfoEPSt9type_infoEEPvEENS_22__hash_node_destructorINS_9allocatorISB_EEEEE7releaseB6v15007Ev DATA
 0002:0000fbd4 00000008H .xdata$_ZNSt3__110unique_ptrINS_11__hash_nodeINS_17__hash_value_typeIPN6System7Typinfo9TTypeInfoEPSt9type_infoEEPvEENS_22__hash_node_destructorINS_9allocatorISB_EEEEED2B6v15007Ev DATA
 0002:0000fbdc 00000008H .xdata$_ZNSt3__115__hash_iteratorIPNS_11__hash_nodeINS_17__hash_value_typeIPN6System7Typinfo9TTypeInfoEPSt9type_infoEEPvEEEC2B6v15007EPNS_16__hash_node_baseISC_EEPKv DATA
 0002:0000fbe4 00000008H .xdata$_ZNSt3__14pairINS_15__hash_iteratorIPNS_11__hash_nodeINS_17__hash_value_typeIPN6System7Typinfo9TTypeInfoEPSt9type_infoEEPvEEEEbEC2B6v15007ISE_RbLSB_0EEEOT_OT0_ DATA
 0002:0000fbec 00000008H .xdata$_ZNSt3__117__compressed_pairIyNS_22__unordered_map_hasherIPN6System7Typinfo9TTypeInfoENS_17__hash_value_typeIS5_PSt9type_infoEENS_4hashIS5_EENS_8equal_toIS5_EELb1EEEE6secondB6v15007Ev DATA
 0002:0000fbf4 00000008H .xdata$_ZNSt3__122__compressed_pair_elemINS_22__unordered_map_hasherIPN6System7Typinfo9TTypeInfoENS_17__hash_value_typeIS5_PSt9type_infoEENS_4hashIS5_EENS_8equal_toIS5_EELb1EEELi1ELb1EE5__getB6v15007Ev DATA
 0002:0000fbfc 00000020H .xdata$_ZNKSt3__14hashIPN6System7Typinfo9TTypeInfoEEclB6v15007ES4_ DATA
 0002:0000fc1c 00000008H .xdata$_ZNSt3__121__murmur2_or_cityhashIyLy64EEclEPKvy DATA
 0002:0000fc24 00000008H .xdata$_ZNSt3__121__murmur2_or_cityhashIyLy64EE18__hash_len_0_to_16EPKcy DATA
 0002:0000fc2c 00000008H .xdata$_ZNSt3__121__murmur2_or_cityhashIyLy64EE19__hash_len_17_to_32EPKcy DATA
 0002:0000fc34 00000008H .xdata$_ZNSt3__121__murmur2_or_cityhashIyLy64EE19__hash_len_33_to_64EPKcy DATA
 0002:0000fc3c 00000008H .xdata$_ZNSt3__110__loadwordB6v15007IyEET_PKv DATA
 0002:0000fc44 00000008H .xdata$_ZNSt3__121__murmur2_or_cityhashIyLy64EE13__hash_len_16Eyy DATA
 0002:0000fc4c 00000008H .xdata$_ZNSt3__121__murmur2_or_cityhashIyLy64EE29__weak_hash_len_32_with_seedsEPKcyy DATA
 0002:0000fc54 00000008H .xdata$_ZNSt3__121__murmur2_or_cityhashIyLy64EE8__rotateEyi DATA
 0002:0000fc5c 00000008H .xdata$_ZNSt3__14pairIyyEaSB6v15007EOS1_ DATA
 0002:0000fc64 00000008H .xdata$_ZNSt3__14swapB6v15007IyEENS_9enable_ifIXaasr21is_move_constructibleIT_EE5valuesr18is_move_assignableIS2_EE5valueEvE4typeERS2_S5_ DATA
 0002:0000fc6c 00000008H .xdata$_ZNSt3__121__murmur2_or_cityhashIyLy64EE11__shift_mixEy DATA
 0002:0000fc74 00000008H .xdata$_ZNSt3__121__murmur2_or_cityhashIyLy64EE22__rotate_by_at_least_1Eyi DATA
 0002:0000fc7c 00000008H .xdata$_ZNSt3__110__loadwordB6v15007IjEET_PKv DATA
 0002:0000fc84 00000008H .xdata$_ZNSt3__121__murmur2_or_cityhashIyLy64EE29__weak_hash_len_32_with_seedsEyyyyyy DATA
 0002:0000fc8c 00000008H .xdata$_ZNSt3__14pairIyyEC2B6v15007IyyLPv0EEEOT_OT0_ DATA
 0002:0000fc94 00000008H .xdata$_ZNKSt3__110unique_ptrIA_PNS_16__hash_node_baseIPNS_11__hash_nodeINS_17__hash_value_typeIPN6System7Typinfo9TTypeInfoEPSt9type_infoEEPvEEEENS_25__bucket_list_deallocatorINS_9allocatorISF_EEEEE11get_deleterB6v15007Ev DATA
 0002:0000fc9c 00000008H .xdata$_ZNKSt3__125__bucket_list_deallocatorINS_9allocatorIPNS_16__hash_node_baseIPNS_11__hash_nodeINS_17__hash_value_typeIPN6System7Typinfo9TTypeInfoEPSt9type_infoEEPvEEEEEEE4sizeB6v15007Ev DATA
 0002:0000fca4 00000008H .xdata$_ZNKSt3__117__compressed_pairIPPNS_16__hash_node_baseIPNS_11__hash_nodeINS_17__hash_value_typeIPN6System7Typinfo9TTypeInfoEPSt9type_infoEEPvEEEENS_25__bucket_list_deallocatorINS_9allocatorISF_EEEEE6secondB6v15007Ev DATA
 0002:0000fcac 00000008H .xdata$_ZNKSt3__122__compressed_pair_elemINS_25__bucket_list_deallocatorINS_9allocatorIPNS_16__hash_node_baseIPNS_11__hash_nodeINS_17__hash_value_typeIPN6System7Typinfo9TTypeInfoEPSt9type_infoEEPvEEEEEEEELi1ELb0EE5__getB6v15007Ev DATA
 0002:0000fcb4 00000008H .xdata$_ZNKSt3__117__compressed_pairIyNS_9allocatorIPNS_16__hash_node_baseIPNS_11__hash_nodeINS_17__hash_value_typeIPN6System7Typinfo9TTypeInfoEPSt9type_infoEEPvEEEEEEE5firstB6v15007Ev DATA
 0002:0000fcbc 00000008H .xdata$_ZNKSt3__122__compressed_pair_elemIyLi0ELb0EE5__getB6v15007Ev DATA
 0002:0000fcc4 00000008H .xdata$_ZNKSt3__117__compressed_pairIPPNS_16__hash_node_baseIPNS_11__hash_nodeINS_17__hash_value_typeIPN6System7Typinfo9TTypeInfoEPSt9type_infoEEPvEEEENS_25__bucket_list_deallocatorINS_9allocatorISF_EEEEE5firstB6v15007Ev DATA
 0002:0000fccc 00000008H .xdata$_ZNKSt3__122__compressed_pair_elemIPPNS_16__hash_node_baseIPNS_11__hash_nodeINS_17__hash_value_typeIPN6System7Typinfo9TTypeInfoEPSt9type_infoEEPvEEEELi0ELb0EE5__getB6v15007Ev DATA
 0002:0000fcd4 00000008H .xdata$_ZNSt3__117__compressed_pairIfNS_21__unordered_map_equalIPN6System7Typinfo9TTypeInfoENS_17__hash_value_typeIS5_PSt9type_infoEENS_8equal_toIS5_EENS_4hashIS5_EELb1EEEE6secondB6v15007Ev DATA
 0002:0000fcdc 00000008H .xdata$_ZNSt3__122__compressed_pair_elemINS_21__unordered_map_equalIPN6System7Typinfo9TTypeInfoENS_17__hash_value_typeIS5_PSt9type_infoEENS_8equal_toIS5_EENS_4hashIS5_EELb1EEELi1ELb1EE5__getB6v15007Ev DATA
 0002:0000fce4 00000008H .xdata$_ZNKSt3__18equal_toIPN6System7Typinfo9TTypeInfoEEclB6v15007ERKS4_S7_ DATA
 0002:0000fcec 00000008H .xdata$_ZNKSt3__117__hash_value_typeIPN6System7Typinfo9TTypeInfoEPSt9type_infoE11__get_valueB6v15007Ev DATA
 0002:0000fcf4 00000008H .xdata$_ZNSt3__17launderB6v15007IKNS_4pairIKPN6System7Typinfo9TTypeInfoEPSt9type_infoEEEEPT_SC_ DATA
 0002:0000fcfc 00000008H .xdata$_ZNSt3__19__launderB6v15007IKNS_4pairIKPN6System7Typinfo9TTypeInfoEPSt9type_infoEEEEPT_SC_ DATA
 0002:0000fd04 00000008H .xdata$_ZNSt3__116allocator_traitsINS_9allocatorINS_11__hash_nodeINS_17__hash_value_typeIPN6System7Typinfo9TTypeInfoEPSt9type_infoEEPvEEEEE8allocateB6v15007ERSD_y DATA
 0002:0000fd0c 00000008H .xdata$_ZNSt3__122__hash_node_destructorINS_9allocatorINS_11__hash_nodeINS_17__hash_value_typeIPN6System7Typinfo9TTypeInfoEPSt9type_infoEEPvEEEEEC2B6v15007ERSD_b DATA
 0002:0000fd14 00000020H .xdata$_ZNSt3__110unique_ptrINS_11__hash_nodeINS_17__hash_value_typeIPN6System7Typinfo9TTypeInfoEPSt9type_infoEEPvEENS_22__hash_node_destructorINS_9allocatorISB_EEEEEC2B6v15007ILb1EvEEPSB_NS_16__dependent_typeINS_27__unique_ptr_deleter_sfinaeISF_EEXT_EE20__good_rval_ref_typeE DATA
 0002:0000fd34 00000008H .xdata$_ZNSt3__116allocator_traitsINS_9allocatorINS_11__hash_nodeINS_17__hash_value_typeIPN6System7Typinfo9TTypeInfoEPSt9type_infoEEPvEEEEE9constructB6v15007INS_4pairIKS7_S9_EEJRKNS_21piecewise_construct_tENS_5tupleIJRSH_EEENSM_IJEEEEvEEvRSD_PT_DpOT0_ DATA
 0002:0000fd3c 00000008H .xdata$_ZNSt3__110unique_ptrINS_11__hash_nodeINS_17__hash_value_typeIPN6System7Typinfo9TTypeInfoEPSt9type_infoEEPvEENS_22__hash_node_destructorINS_9allocatorISB_EEEEE11get_deleterB6v15007Ev DATA
 0002:0000fd44 00000008H .xdata$_ZNSt3__19allocatorINS_11__hash_nodeINS_17__hash_value_typeIPN6System7Typinfo9TTypeInfoEPSt9type_infoEEPvEEE8allocateB6v15007Ey DATA
 0002:0000fd4c 00000008H .xdata$_ZNSt3__116allocator_traitsINS_9allocatorINS_11__hash_nodeINS_17__hash_value_typeIPN6System7Typinfo9TTypeInfoEPSt9type_infoEEPvEEEEE8max_sizeB6v15007ISD_vEEyRKSD_ DATA
 0002:0000fd54 00000008H .xdata$_ZSt28__throw_bad_array_new_lengthB6v15007v DATA
 0002:0000fd5c 00000008H .xdata$_ZNSt3__117__libcpp_allocateB6v15007Eyy DATA
 0002:0000fd64 00000008H .xdata$_ZNKSt3__19allocatorINS_11__hash_nodeINS_17__hash_value_typeIPN6System7Typinfo9TTypeInfoEPSt9type_infoEEPvEEE8max_sizeB6v15007Ev DATA
 0002:0000fd6c 00000008H .xdata$_ZNSt3__121__libcpp_operator_newB6v15007IJySt11align_val_tEEEPvDpT_ DATA
 0002:0000fd74 00000008H .xdata$_ZNSt3__121__libcpp_operator_newB6v15007IJyEEEPvDpT_ DATA
 0002:0000fd7c 00000008H .xdata$_ZNSt3__117__compressed_pairIPNS_11__hash_nodeINS_17__hash_value_typeIPN6System7Typinfo9TTypeInfoEPSt9type_infoEEPvEENS_22__hash_node_destructorINS_9allocatorISB_EEEEEC2B6v15007IRSC_SG_EEOT_OT0_ DATA
 0002:0000fd84 00000008H .xdata$_ZNSt3__122__compressed_pair_elemIPNS_11__hash_nodeINS_17__hash_value_typeIPN6System7Typinfo9TTypeInfoEPSt9type_infoEEPvEELi0ELb0EEC2B6v15007IRSC_vEEOT_ DATA
 0002:0000fd8c 00000008H .xdata$_ZNSt3__122__compressed_pair_elemINS_22__hash_node_destructorINS_9allocatorINS_11__hash_nodeINS_17__hash_value_typeIPN6System7Typinfo9TTypeInfoEPSt9type_infoEEPvEEEEEELi1ELb0EEC2B6v15007ISF_vEEOT_ DATA
 0002:0000fd94 00000008H .xdata$_ZNSt3__19allocatorINS_11__hash_nodeINS_17__hash_value_typeIPN6System7Typinfo9TTypeInfoEPSt9type_infoEEPvEEE9constructB6v15007INS_4pairIKS6_S8_EEJRKNS_21piecewise_construct_tENS_5tupleIJRSF_EEENSK_IJEEEEEEvPT_DpOT0_ DATA
 0002:0000fd9c 00000020H .xdata$_ZNSt3__14pairIKPN6System7Typinfo9TTypeInfoEPSt9type_infoEC2B6v15007IJRS5_EJEEENS_21piecewise_construct_tENS_5tupleIJDpT_EEENSC_IJDpT0_EEE DATA
 0002:0000fdbc 00000008H .xdata$_ZNSt3__14pairIKPN6System7Typinfo9TTypeInfoEPSt9type_infoEC2B6v15007IJRS5_EJEJLy0EEJEEENS_21piecewise_construct_tERNS_5tupleIJDpT_EEERNSC_IJDpT0_EEENS_15__tuple_indicesIJXspT1_EEEENSL_IJXspT2_EEEE DATA
 0002:0000fdc4 00000008H .xdata$_ZNSt3__13getB6v15007ILy0EJRKPN6System7Typinfo9TTypeInfoEEEERNS_13tuple_elementIXT_ENS_5tupleIJDpT0_EEEE4typeERSB_ DATA
 0002:0000fdcc 00000008H .xdata$_ZNSt3__112__tuple_leafILy0ERKPN6System7Typinfo9TTypeInfoELb0EE3getB6v15007Ev DATA
 0002:0000fdd4 00000008H .xdata$_ZNSt3__117__compressed_pairIPNS_11__hash_nodeINS_17__hash_value_typeIPN6System7Typinfo9TTypeInfoEPSt9type_infoEEPvEENS_22__hash_node_destructorINS_9allocatorISB_EEEEE6secondB6v15007Ev DATA
 0002:0000fddc 00000008H .xdata$_ZNSt3__122__compressed_pair_elemINS_22__hash_node_destructorINS_9allocatorINS_11__hash_nodeINS_17__hash_value_typeIPN6System7Typinfo9TTypeInfoEPSt9type_infoEEPvEEEEEELi1ELb0EE5__getB6v15007Ev DATA
 0002:0000fde4 00000008H .xdata$_ZNSt3__117__compressed_pairIyNS_22__unordered_map_hasherIPN6System7Typinfo9TTypeInfoENS_17__hash_value_typeIS5_PSt9type_infoEENS_4hashIS5_EENS_8equal_toIS5_EELb1EEEE5firstB6v15007Ev DATA
 0002:0000fdec 00000008H .xdata$_ZNSt3__117__compressed_pairIfNS_21__unordered_map_equalIPN6System7Typinfo9TTypeInfoENS_17__hash_value_typeIS5_PSt9type_infoEENS_8equal_toIS5_EENS_4hashIS5_EELb1EEEE5firstB6v15007Ev DATA
 0002:0000fdf4 00000008H .xdata$_ZNSt3__122__compressed_pair_elemIfLi0ELb0EE5__getB6v15007Ev DATA
 0002:0000fdfc 00000008H .xdata$_ZNSt3__112__hash_tableINS_17__hash_value_typeIPN6System7Typinfo9TTypeInfoEPSt9type_infoEENS_22__unordered_map_hasherIS5_S8_NS_4hashIS5_EENS_8equal_toIS5_EELb1EEENS_21__unordered_map_equalIS5_S8_SD_SB_Lb1EEENS_9allocatorIS8_EEE8__rehashILb1EEEvy DATA
 0002:0000fe04 00000008H .xdata$_ZNSt3__112__hash_tableINS_17__hash_value_typeIPN6System7Typinfo9TTypeInfoEPSt9type_infoEENS_22__unordered_map_hasherIS5_S8_NS_4hashIS5_EENS_8equal_toIS5_EELb1EEENS_21__unordered_map_equalIS5_S8_SD_SB_Lb1EEENS_9allocatorIS8_EEE11__do_rehashILb1EEEvy DATA
 0002:0000fe0c 00000008H .xdata$_ZNSt3__116__next_hash_pow2B6v15007Ey DATA
 0002:0000fe14 00000008H .xdata$_ZNSt3__125__debug_db_invalidate_allB6v15007INS_12__hash_tableINS_17__hash_value_typeIPN6System7Typinfo9TTypeInfoEPSt9type_infoEENS_22__unordered_map_hasherIS6_S9_NS_4hashIS6_EENS_8equal_toIS6_EELb1EEENS_21__unordered_map_equalIS6_S9_SE_SC_Lb1EEENS_9allocatorIS9_EEEEEEvPT_ DATA
 0002:0000fe1c 00000008H .xdata$_ZNSt3__110unique_ptrIA_PNS_16__hash_node_baseIPNS_11__hash_nodeINS_17__hash_value_typeIPN6System7Typinfo9TTypeInfoEPSt9type_infoEEPvEEEENS_25__bucket_list_deallocatorINS_9allocatorISF_EEEEE11get_deleterB6v15007Ev DATA
 0002:0000fe24 00000008H .xdata$_ZNSt3__110unique_ptrIA_PNS_16__hash_node_baseIPNS_11__hash_nodeINS_17__hash_value_typeIPN6System7Typinfo9TTypeInfoEPSt9type_infoEEPvEEEENS_25__bucket_list_deallocatorINS_9allocatorISF_EEEEE5resetB6v15007IPSF_EENS_9enable_ifIXsr28_CheckArrayPointerConversionIT_EE5valueEvE4typeESP_ DATA
 0002:0000fe2c 00000008H .xdata$_ZNSt3__116allocator_traitsINS_9allocatorIPNS_16__hash_node_baseIPNS_11__hash_nodeINS_17__hash_value_typeIPN6System7Typinfo9TTypeInfoEPSt9type_infoEEPvEEEEEEE8allocateB6v15007ERSH_y DATA
 0002:0000fe34 00000008H .xdata$_ZNSt3__19allocatorIPNS_16__hash_node_baseIPNS_11__hash_nodeINS_17__hash_value_typeIPN6System7Typinfo9TTypeInfoEPSt9type_infoEEPvEEEEE8allocateB6v15007Ey DATA
 0002:0000fe3c 00000008H .xdata$_ZNSt3__116allocator_traitsINS_9allocatorIPNS_16__hash_node_baseIPNS_11__hash_nodeINS_17__hash_value_typeIPN6System7Typinfo9TTypeInfoEPSt9type_infoEEPvEEEEEEE8max_sizeB6v15007ISH_vEEyRKSH_ DATA
 0002:0000fe44 00000008H .xdata$_ZNKSt3__19allocatorIPNS_16__hash_node_baseIPNS_11__hash_nodeINS_17__hash_value_typeIPN6System7Typinfo9TTypeInfoEPSt9type_infoEEPvEEEEE8max_sizeB6v15007Ev DATA
 0002:0000fe4c 00000008H .xdata$_ZNSt3__112__libcpp_clzB6v15007Ey DATA
 0002:0000fe54 00000008H .xdata$_ZNSt3__13maxB6v15007IyNS_6__lessIyyEEEERKT_S5_S5_T0_ DATA
 0002:0000fe5c 00000008H .xdata$_ZNKSt3__16__lessIyyEclB6v15007ERKyS3_ DATA
 0002:0000fe64 00000008H .xdata$_ZNKSt3__117__compressed_pairIPNS_11__hash_nodeINS_17__hash_value_typeIPN6System7Typinfo9TTypeInfoEPSt9type_infoEEPvEENS_22__hash_node_destructorINS_9allocatorISB_EEEEE5firstB6v15007Ev DATA
 0002:0000fe6c 00000008H .xdata$_ZNKSt3__122__compressed_pair_elemIPNS_11__hash_nodeINS_17__hash_value_typeIPN6System7Typinfo9TTypeInfoEPSt9type_infoEEPvEELi0ELb0EE5__getB6v15007Ev DATA
 0002:0000fe74 00000008H .xdata$_ZNSt3__117__compressed_pairIPNS_11__hash_nodeINS_17__hash_value_typeIPN6System7Typinfo9TTypeInfoEPSt9type_infoEEPvEENS_22__hash_node_destructorINS_9allocatorISB_EEEEE5firstB6v15007Ev DATA
 0002:0000fe7c 00000008H .xdata$_ZNSt3__122__compressed_pair_elemIPNS_11__hash_nodeINS_17__hash_value_typeIPN6System7Typinfo9TTypeInfoEPSt9type_infoEEPvEELi0ELb0EE5__getB6v15007Ev DATA
 0002:0000fe84 00000008H .xdata$_ZNSt3__110unique_ptrINS_11__hash_nodeINS_17__hash_value_typeIPN6System7Typinfo9TTypeInfoEPSt9type_infoEEPvEENS_22__hash_node_destructorINS_9allocatorISB_EEEEE5resetB6v15007EPSB_ DATA
 0002:0000fe8c 00000020H .xdata$_ZNSt3__122__hash_node_destructorINS_9allocatorINS_11__hash_nodeINS_17__hash_value_typeIPN6System7Typinfo9TTypeInfoEPSt9type_infoEEPvEEEEEclB6v15007EPSC_ DATA
 0002:0000feac 00000008H .xdata$_ZNSt3__15tupleIJRKPN6System7Typinfo9TTypeInfoEEEC2B6v15007INS_4_AndELi0EEES6_ DATA
 0002:0000feb4 00000008H .xdata$_ZNSt3__112__tuple_implINS_15__tuple_indicesIJLy0EEEEJRKPN6System7Typinfo9TTypeInfoEEEC2B6v15007IJLy0EEJS8_EJEJEJS8_EEENS1_IJXspT_EEEENS_13__tuple_typesIJDpT0_EEENS1_IJXspT1_EEEENSC_IJDpT2_EEEDpOT3_ DATA
 0002:0000febc 00000008H .xdata$_ZNSt3__112__tuple_leafILy0ERKPN6System7Typinfo9TTypeInfoELb0EEC2B6v15007IS6_vEEOT_ DATA
 0002:0000fec4 00000008H .xdata$_ZNSt3__114pointer_traitsIPNS_17__hash_value_typeIPN6System7Typinfo9TTypeInfoEPSt9type_infoEEE10pointer_toB6v15007ERS8_ DATA
 0002:0000fecc 000006d0H .xdata                  DATA
 0002:0001059c 00000020H .xdata$_ZN6System8Sysutils11ERangeErrorC3ENS_13UnicodeStringE DATA
 0002:000105bc 00000020H .xdata$_ZN6System11AnsiStringTILt0EED2Ev DATA
 0002:000105dc 00000020H .xdata$_ZN6System8Sysutils9EIntErrorC3ENS_13UnicodeStringE DATA
 0002:000105fc 00000020H .xdata$_ZN6System8Sysutils9EExternalC3ENS_13UnicodeStringE DATA
 0002:0001061c 00000008H .xdata$_ZN6System8_CharLenIwEEiPKT_ DATA
 0002:00010624 00000008H .xdata$_ZN6System8_CharLenIDsEEiPKT_ DATA
 0002:0001062c 00000008H .xdata$_ZN6System14AnsiStringBaseC2ILt0EEEONS_11AnsiStringTIXT_EEE DATA
 0002:00010634 00000008H .xdata$_ZNK6System14AnsiStringBase8CodePageEv DATA
 0002:0001063c 00000008H .xdata$_ZNK6System14AnsiStringBaseixEi DATA
 0002:00010644 0000021cH .xdata                  DATA
 0004:00000000 00000234H .data                   DATA
 0004:00000238 000001c0H .bss                    DATA
 0004:000003f8 00000008H .bss$_ZGVZN6System11AnsiStringTILt0EED1EvE13__force_inst1 DATA
 0004:00000400 00000008H .bss$_ZGVZN6System11AnsiStringTILt0EED1EvE13__force_inst2 DATA
 0004:00000408 00000008H .bss$_ZZN6System11AnsiStringTILt0EED1EvE13__force_inst1 DATA
 0004:00000410 00000008H .bss$_ZZN6System11AnsiStringTILt0EED1EvE13__force_inst2 DATA
 0005:00000000 00000234H .pdata                  DATA
 0005:00000234 0000000cH .pdata$_ZN3Fmx5Forms5TFormC3EPN6System7Classes10TComponentE DATA
 0005:00000240 0000000cH .pdata$_ZN13TMainpageformD0Ev DATA
 0005:0000024c 0000000cH .pdata$_ZN3Fmx5Forms5TFormC3EPN6System7Classes10TComponentEx DATA
 0005:00000258 0000000cH .pdata$_ZN3Fmx5Forms5TFormD0Ev DATA
 0005:00000264 0000000cH .pdata                  DATA
 0005:00000270 0000000cH .pdata$_ZN12TPC1pageformD0Ev DATA
 0005:0000027c 0000000cH .pdata                  DATA
 0005:00000288 0000000cH .pdata$_ZN12TPC2pageformD0Ev DATA
 0005:00000294 0000000cH .pdata                  DATA
 0005:000002a0 0000000cH .pdata$_ZN12TPC3pageformD0Ev DATA
 0005:000002ac 0000000cH .pdata                  DATA
 0005:000002b8 0000000cH .pdata$_ZN12TPC4pageformD0Ev DATA
 0005:000002c4 0000000cH .pdata                  DATA
 0005:000002d0 0000000cH .pdata$_ZN6System7Classes15TComponentClassC1EPNS_10TMetaClassE DATA
 0005:000002dc 0000000cH .pdata$_ZN6System7Classes15TComponentClassC2EPNS_10TMetaClassE DATA
 0005:000002e8 0000000cH .pdata$_ZN6System15DelphiMetaClassINS_7Classes15TComponentClassEEC2EPNS_10TMetaClassE DATA
 0005:000002f4 00000678H .pdata                  DATA
 0005:0000096c 0000000cH .pdata$_ZN6System8Sysutils11ERangeErrorC3ENS_13UnicodeStringE DATA
 0005:00000978 0000000cH .pdata$_ZN6System8Sysutils11ERangeErrorD0Ev DATA
 0005:00000984 0000000cH .pdata$_ZN6System11WideCharLenIwEEiPKT_ DATA
 0005:00000990 0000000cH .pdata$_ZN6System11WideCharLenIDsEEiPKT_ DATA
 0005:0000099c 0000000cH .pdata$_ZN6System11AnsiStringTILt0EEC2EPKci DATA
 0005:000009a8 0000000cH .pdata$_ZN6System11AnsiStringTILt0EED2Ev DATA
 0005:000009b4 0000000cH .pdata$_ZN6System11AnsiStringTILt0EEC2Ev DATA
 0005:000009c0 0000000cH .pdata$_ZN6System13UnicodeStringC2ILt0EEERKNS_11AnsiStringTIXT_EEE DATA
 0005:000009cc 0000000cH .pdata$_ZN6System8Sysutils9EIntErrorC3ENS_13UnicodeStringE DATA
 0005:000009d8 0000000cH .pdata$_ZN6System8Sysutils9EExternalC3ENS_13UnicodeStringE DATA
 0005:000009e4 0000000cH .pdata$_ZN6System8Sysutils9EIntErrorD0Ev DATA
 0005:000009f0 0000000cH .pdata$_ZN6System8Sysutils9EExternalD0Ev DATA
 0005:000009fc 0000000cH .pdata$_ZN6System11AnsiStringTILt0EEC2ERKS1_ DATA
 0005:00000a08 0000000cH .pdata$_ZN6System14AnsiStringBaseC2Ev DATA
 0005:00000a14 00000234H .pdata                  DATA
 0005:00000c48 0000000cH .pdata$_ZN6System15DelphiInterfaceINS_10IInterfaceEEadEv DATA
 0005:00000c54 0000000cH .pdata$_ZN6System15DelphiInterfaceINS_10IInterfaceEED2Ev DATA
 0005:00000c60 0000000cH .pdata$_ZNSt3__110lock_guardINS_5mutexEEC2B6v15007ERS1_ DATA
 0005:00000c6c 0000000cH .pdata$_ZNSt3__113unordered_mapIPN6System7Typinfo9TTypeInfoEPSt9type_infoNS_4hashIS4_EENS_8equal_toIS4_EENS_9allocatorINS_4pairIKS4_S6_EEEEEC2B6v15007Ev DATA
 0005:00000c78 0000000cH .pdata$_ZNSt3__113unordered_mapIPN6System7Typinfo9TTypeInfoEPSt9type_infoNS_4hashIS4_EENS_8equal_toIS4_EENS_9allocatorINS_4pairIKS4_S6_EEEEED2B6v15007Ev DATA
 0005:00000c84 0000000cH .pdata$_ZNSt3__113unordered_mapIPN6System7Typinfo9TTypeInfoEPSt9type_infoNS_4hashIS4_EENS_8equal_toIS4_EENS_9allocatorINS_4pairIKS4_S6_EEEEEixERSD_ DATA
 0005:00000c90 0000000cH .pdata$_ZN6System11AnsiStringTILt65001EEC2ERKNS_13UnicodeStringE DATA
 0005:00000c9c 0000000cH .pdata$_ZNK6System11AnsiStringTILt65001EEplERKS1_ DATA
 0005:00000ca8 0000000cH .pdata$_ZN6System11AnsiStringTILt65001EEC2EPKc DATA
 0005:00000cb4 0000000cH .pdata$_ZN6System11AnsiStringTILt65001EEC2Ev DATA
 0005:00000cc0 0000000cH .pdata$_ZN6System11AnsiStringTILt65001EEaSERKS1_ DATA
 0005:00000ccc 0000000cH .pdata$_ZN6System11AnsiStringTILt65001EED2Ev DATA
 0005:00000cd8 0000000cH .pdata$_ZN10__cxxabiv117__class_type_infoC2Ev DATA
 0005:00000ce4 0000000cH .pdata$_ZNK6System11AnsiStringTILt65001EE5c_strEv DATA
 0005:00000cf0 0000000cH .pdata$_ZNSt3__110lock_guardINS_5mutexEED2B6v15007Ev DATA
 0005:00000cfc 0000000cH .pdata$_ZN10__cxxabiv116__shim_type_infoC2Ev DATA
 0005:00000d08 0000000cH .pdata$_ZNSt3__112__hash_tableINS_17__hash_value_typeIPN6System7Typinfo9TTypeInfoEPSt9type_infoEENS_22__unordered_map_hasherIS5_S8_NS_4hashIS5_EENS_8equal_toIS5_EELb1EEENS_21__unordered_map_equalIS5_S8_SD_SB_Lb1EEENS_9allocatorIS8_EEEC2Ev DATA
 0005:00000d14 0000000cH .pdata$_ZNSt3__119__debug_db_insert_cB6v15007INS_13unordered_mapIPN6System7Typinfo9TTypeInfoEPSt9type_infoNS_4hashIS5_EENS_8equal_toIS5_EENS_9allocatorINS_4pairIKS5_S7_EEEEEEEEvPT_ DATA
 0005:00000d20 0000000cH .pdata$_ZNSt3__110unique_ptrIA_PNS_16__hash_node_baseIPNS_11__hash_nodeINS_17__hash_value_typeIPN6System7Typinfo9TTypeInfoEPSt9type_infoEEPvEEEENS_25__bucket_list_deallocatorINS_9allocatorISF_EEEEEC2B6v15007ILb1EvEEv DATA
 0005:00000d2c 0000000cH .pdata$_ZNSt3__117__compressed_pairINS_16__hash_node_baseIPNS_11__hash_nodeINS_17__hash_value_typeIPN6System7Typinfo9TTypeInfoEPSt9type_infoEEPvEEEENS_9allocatorISC_EEEC2B6v15007ILb1EvEEv DATA
 0005:00000d38 0000000cH .pdata$_ZNSt3__117__compressed_pairIyNS_22__unordered_map_hasherIPN6System7Typinfo9TTypeInfoENS_17__hash_value_typeIS5_PSt9type_infoEENS_4hashIS5_EENS_8equal_toIS5_EELb1EEEEC2B6v15007IiNS_18__default_init_tagEEEOT_OT0_ DATA
 0005:00000d44 0000000cH .pdata$_ZNSt3__117__compressed_pairIfNS_21__unordered_map_equalIPN6System7Typinfo9TTypeInfoENS_17__hash_value_typeIS5_PSt9type_infoEENS_8equal_toIS5_EENS_4hashIS5_EELb1EEEEC2B6v15007IfNS_18__default_init_tagEEEOT_OT0_ DATA
 0005:00000d50 0000000cH .pdata$_ZNSt3__117__compressed_pairIPPNS_16__hash_node_baseIPNS_11__hash_nodeINS_17__hash_value_typeIPN6System7Typinfo9TTypeInfoEPSt9type_infoEEPvEEEENS_25__bucket_list_deallocatorINS_9allocatorISF_EEEEEC2B6v15007INS_16__value_init_tagESN_EEOT_OT0_ DATA
 0005:00000d5c 0000000cH .pdata$_ZNSt3__122__compressed_pair_elemIPPNS_16__hash_node_baseIPNS_11__hash_nodeINS_17__hash_value_typeIPN6System7Typinfo9TTypeInfoEPSt9type_infoEEPvEEEELi0ELb0EEC2B6v15007ENS_16__value_init_tagE DATA
 0005:00000d68 0000000cH .pdata$_ZNSt3__122__compressed_pair_elemINS_25__bucket_list_deallocatorINS_9allocatorIPNS_16__hash_node_baseIPNS_11__hash_nodeINS_17__hash_value_typeIPN6System7Typinfo9TTypeInfoEPSt9type_infoEEPvEEEEEEEELi1ELb0EEC2B6v15007ENS_16__value_init_tagE DATA
 0005:00000d74 0000000cH .pdata$_ZNSt3__125__bucket_list_deallocatorINS_9allocatorIPNS_16__hash_node_baseIPNS_11__hash_nodeINS_17__hash_value_typeIPN6System7Typinfo9TTypeInfoEPSt9type_infoEEPvEEEEEEEC2B6v15007Ev DATA
 0005:00000d80 0000000cH .pdata$_ZNSt3__117__compressed_pairIyNS_9allocatorIPNS_16__hash_node_baseIPNS_11__hash_nodeINS_17__hash_value_typeIPN6System7Typinfo9TTypeInfoEPSt9type_infoEEPvEEEEEEEC2B6v15007IiNS_18__default_init_tagEEEOT_OT0_ DATA
 0005:00000d8c 0000000cH .pdata$_ZNSt3__122__compressed_pair_elemIyLi0ELb0EEC2B6v15007IivEEOT_ DATA
 0005:00000d98 0000000cH .pdata$_ZNSt3__122__compressed_pair_elemINS_9allocatorIPNS_16__hash_node_baseIPNS_11__hash_nodeINS_17__hash_value_typeIPN6System7Typinfo9TTypeInfoEPSt9type_infoEEPvEEEEEELi1ELb1EEC2B6v15007ENS_18__default_init_tagE DATA
 0005:00000da4 0000000cH .pdata$_ZNSt3__19allocatorIPNS_16__hash_node_baseIPNS_11__hash_nodeINS_17__hash_value_typeIPN6System7Typinfo9TTypeInfoEPSt9type_infoEEPvEEEEEC2B6v15007Ev DATA
 0005:00000db0 0000000cH .pdata$_ZNSt3__116__non_trivial_ifILb1ENS_9allocatorIPNS_16__hash_node_baseIPNS_11__hash_nodeINS_17__hash_value_typeIPN6System7Typinfo9TTypeInfoEPSt9type_infoEEPvEEEEEEEC2B6v15007Ev DATA
 0005:00000dbc 0000000cH .pdata$_ZNSt3__122__compressed_pair_elemINS_16__hash_node_baseIPNS_11__hash_nodeINS_17__hash_value_typeIPN6System7Typinfo9TTypeInfoEPSt9type_infoEEPvEEEELi0ELb0EEC2B6v15007ENS_16__value_init_tagE DATA
 0005:00000dc8 0000000cH .pdata$_ZNSt3__122__compressed_pair_elemINS_9allocatorINS_11__hash_nodeINS_17__hash_value_typeIPN6System7Typinfo9TTypeInfoEPSt9type_infoEEPvEEEELi1ELb1EEC2B6v15007ENS_16__value_init_tagE DATA
 0005:00000dd4 0000000cH .pdata$_ZNSt3__116__hash_node_baseIPNS_11__hash_nodeINS_17__hash_value_typeIPN6System7Typinfo9TTypeInfoEPSt9type_infoEEPvEEEC2B6v15007Ev DATA
 0005:00000de0 0000000cH .pdata$_ZNSt3__19allocatorINS_11__hash_nodeINS_17__hash_value_typeIPN6System7Typinfo9TTypeInfoEPSt9type_infoEEPvEEEC2B6v15007Ev DATA
 0005:00000dec 0000000cH .pdata$_ZNSt3__116__non_trivial_ifILb1ENS_9allocatorINS_11__hash_nodeINS_17__hash_value_typeIPN6System7Typinfo9TTypeInfoEPSt9type_infoEEPvEEEEEC2B6v15007Ev DATA
 0005:00000df8 0000000cH .pdata$_ZNSt3__122__compressed_pair_elemINS_22__unordered_map_hasherIPN6System7Typinfo9TTypeInfoENS_17__hash_value_typeIS5_PSt9type_infoEENS_4hashIS5_EENS_8equal_toIS5_EELb1EEELi1ELb1EEC2B6v15007ENS_18__default_init_tagE DATA
 0005:00000e04 0000000cH .pdata$_ZNSt3__122__unordered_map_hasherIPN6System7Typinfo9TTypeInfoENS_17__hash_value_typeIS4_PSt9type_infoEENS_4hashIS4_EENS_8equal_toIS4_EELb1EEC2B6v15007Ev DATA
 0005:00000e10 0000000cH .pdata$_ZNSt3__122__compressed_pair_elemIfLi0ELb0EEC2B6v15007IfvEEOT_ DATA
 0005:00000e1c 0000000cH .pdata$_ZNSt3__122__compressed_pair_elemINS_21__unordered_map_equalIPN6System7Typinfo9TTypeInfoENS_17__hash_value_typeIS5_PSt9type_infoEENS_8equal_toIS5_EENS_4hashIS5_EELb1EEELi1ELb1EEC2B6v15007ENS_18__default_init_tagE DATA
 0005:00000e28 0000000cH .pdata$_ZNSt3__121__unordered_map_equalIPN6System7Typinfo9TTypeInfoENS_17__hash_value_typeIS4_PSt9type_infoEENS_8equal_toIS4_EENS_4hashIS4_EELb1EEC2B6v15007Ev DATA
 0005:00000e34 0000000cH .pdata$_ZNSt3__112__hash_tableINS_17__hash_value_typeIPN6System7Typinfo9TTypeInfoEPSt9type_infoEENS_22__unordered_map_hasherIS5_S8_NS_4hashIS5_EENS_8equal_toIS5_EELb1EEENS_21__unordered_map_equalIS5_S8_SD_SB_Lb1EEENS_9allocatorIS8_EEED2Ev DATA
 0005:00000e40 0000000cH .pdata$_ZNSt3__112__hash_tableINS_17__hash_value_typeIPN6System7Typinfo9TTypeInfoEPSt9type_infoEENS_22__unordered_map_hasherIS5_S8_NS_4hashIS5_EENS_8equal_toIS5_EELb1EEENS_21__unordered_map_equalIS5_S8_SD_SB_Lb1EEENS_9allocatorIS8_EEE17__deallocate_nodeEPNS_16__hash_node_baseIPNS_11__hash_nodeIS8_PvEEEE DATA
 0005:00000e4c 0000000cH .pdata$_ZNSt3__117__compressed_pairINS_16__hash_node_baseIPNS_11__hash_nodeINS_17__hash_value_typeIPN6System7Typinfo9TTypeInfoEPSt9type_infoEEPvEEEENS_9allocatorISC_EEE5firstB6v15007Ev DATA
 0005:00000e58 0000000cH .pdata$_ZNSt3__118__debug_db_erase_cB6v15007INS_12__hash_tableINS_17__hash_value_typeIPN6System7Typinfo9TTypeInfoEPSt9type_infoEENS_22__unordered_map_hasherIS6_S9_NS_4hashIS6_EENS_8equal_toIS6_EELb1EEENS_21__unordered_map_equalIS6_S9_SE_SC_Lb1EEENS_9allocatorIS9_EEEEEEvPT_ DATA
 0005:00000e64 0000000cH .pdata$_ZNSt3__110unique_ptrIA_PNS_16__hash_node_baseIPNS_11__hash_nodeINS_17__hash_value_typeIPN6System7Typinfo9TTypeInfoEPSt9type_infoEEPvEEEENS_25__bucket_list_deallocatorINS_9allocatorISF_EEEEED2B6v15007Ev DATA
 0005:00000e70 0000000cH .pdata$_ZNSt3__112__hash_tableINS_17__hash_value_typeIPN6System7Typinfo9TTypeInfoEPSt9type_infoEENS_22__unordered_map_hasherIS5_S8_NS_4hashIS5_EENS_8equal_toIS5_EELb1EEENS_21__unordered_map_equalIS5_S8_SD_SB_Lb1EEENS_9allocatorIS8_EEE12__node_allocB6v15007Ev DATA
 0005:00000e7c 0000000cH .pdata$_ZNSt3__116__hash_node_baseIPNS_11__hash_nodeINS_17__hash_value_typeIPN6System7Typinfo9TTypeInfoEPSt9type_infoEEPvEEE8__upcastB6v15007Ev DATA
 0005:00000e88 0000000cH .pdata$_ZNSt3__116allocator_traitsINS_9allocatorINS_11__hash_nodeINS_17__hash_value_typeIPN6System7Typinfo9TTypeInfoEPSt9type_infoEEPvEEEEE7destroyB6v15007INS_4pairIKS7_S9_EEvvEEvRSD_PT_ DATA
 0005:00000e94 0000000cH .pdata$_ZNSt3__122__hash_key_value_typesINS_17__hash_value_typeIPN6System7Typinfo9TTypeInfoEPSt9type_infoEEE9__get_ptrB6v15007ERS8_ DATA
 0005:00000ea0 0000000cH .pdata$_ZNSt3__116allocator_traitsINS_9allocatorINS_11__hash_nodeINS_17__hash_value_typeIPN6System7Typinfo9TTypeInfoEPSt9type_infoEEPvEEEEE10deallocateB6v15007ERSD_PSC_y DATA
 0005:00000eac 0000000cH .pdata$_ZNSt3__117__compressed_pairINS_16__hash_node_baseIPNS_11__hash_nodeINS_17__hash_value_typeIPN6System7Typinfo9TTypeInfoEPSt9type_infoEEPvEEEENS_9allocatorISC_EEE6secondB6v15007Ev DATA
 0005:00000eb8 0000000cH .pdata$_ZNSt3__122__compressed_pair_elemINS_9allocatorINS_11__hash_nodeINS_17__hash_value_typeIPN6System7Typinfo9TTypeInfoEPSt9type_infoEEPvEEEELi1ELb1EE5__getB6v15007Ev DATA
 0005:00000ec4 0000000cH .pdata$_ZNSt3__114pointer_traitsIPNS_16__hash_node_baseIPNS_11__hash_nodeINS_17__hash_value_typeIPN6System7Typinfo9TTypeInfoEPSt9type_infoEEPvEEEEE10pointer_toB6v15007ERSE_ DATA
 0005:00000ed0 0000000cH .pdata$_ZNSt3__117__hash_value_typeIPN6System7Typinfo9TTypeInfoEPSt9type_infoE11__get_valueB6v15007Ev DATA
 0005:00000edc 0000000cH .pdata$_ZNSt3__17launderB6v15007INS_4pairIKPN6System7Typinfo9TTypeInfoEPSt9type_infoEEEEPT_SB_ DATA
 0005:00000ee8 0000000cH .pdata$_ZNSt3__19__launderB6v15007INS_4pairIKPN6System7Typinfo9TTypeInfoEPSt9type_infoEEEEPT_SB_ DATA
 0005:00000ef4 0000000cH .pdata$_ZNSt3__19allocatorINS_11__hash_nodeINS_17__hash_value_typeIPN6System7Typinfo9TTypeInfoEPSt9type_infoEEPvEEE10deallocateB6v15007EPSB_y DATA
 0005:00000f00 0000000cH .pdata$_ZNSt3__119__libcpp_deallocateB6v15007EPvyy DATA
 0005:00000f0c 0000000cH .pdata$_ZNSt3__124__is_overaligned_for_newB6v15007Ey DATA
 0005:00000f18 0000000cH .pdata$_ZNSt3__127__do_deallocate_handle_sizeB6v15007IJSt11align_val_tEEEvPvyDpT_ DATA
 0005:00000f24 0000000cH .pdata$_ZNSt3__127__do_deallocate_handle_sizeB6v15007IJEEEvPvyDpT_ DATA
 0005:00000f30 0000000cH .pdata$_ZNSt3__124__libcpp_operator_deleteB6v15007IJPvSt11align_val_tEEEvDpT_ DATA
 0005:00000f3c 0000000cH .pdata$_ZNSt3__124__libcpp_operator_deleteB6v15007IJPvEEEvDpT_ DATA
 0005:00000f48 0000000cH .pdata$_ZNSt3__122__compressed_pair_elemINS_16__hash_node_baseIPNS_11__hash_nodeINS_17__hash_value_typeIPN6System7Typinfo9TTypeInfoEPSt9type_infoEEPvEEEELi0ELb0EE5__getB6v15007Ev DATA
 0005:00000f54 0000000cH .pdata$_ZNSt3__110unique_ptrIA_PNS_16__hash_node_baseIPNS_11__hash_nodeINS_17__hash_value_typeIPN6System7Typinfo9TTypeInfoEPSt9type_infoEEPvEEEENS_25__bucket_list_deallocatorINS_9allocatorISF_EEEEE5resetB6v15007EDn DATA
 0005:00000f60 0000000cH .pdata$_ZNSt3__117__compressed_pairIPPNS_16__hash_node_baseIPNS_11__hash_nodeINS_17__hash_value_typeIPN6System7Typinfo9TTypeInfoEPSt9type_infoEEPvEEEENS_25__bucket_list_deallocatorINS_9allocatorISF_EEEEE5firstB6v15007Ev DATA
 0005:00000f6c 0000000cH .pdata$_ZNSt3__117__compressed_pairIPPNS_16__hash_node_baseIPNS_11__hash_nodeINS_17__hash_value_typeIPN6System7Typinfo9TTypeInfoEPSt9type_infoEEPvEEEENS_25__bucket_list_deallocatorINS_9allocatorISF_EEEEE6secondB6v15007Ev DATA
 0005:00000f78 0000000cH .pdata$_ZNSt3__125__bucket_list_deallocatorINS_9allocatorIPNS_16__hash_node_baseIPNS_11__hash_nodeINS_17__hash_value_typeIPN6System7Typinfo9TTypeInfoEPSt9type_infoEEPvEEEEEEEclB6v15007EPSG_ DATA
 0005:00000f84 0000000cH .pdata$_ZNSt3__122__compressed_pair_elemIPPNS_16__hash_node_baseIPNS_11__hash_nodeINS_17__hash_value_typeIPN6System7Typinfo9TTypeInfoEPSt9type_infoEEPvEEEELi0ELb0EE5__getB6v15007Ev DATA
 0005:00000f90 0000000cH .pdata$_ZNSt3__122__compressed_pair_elemINS_25__bucket_list_deallocatorINS_9allocatorIPNS_16__hash_node_baseIPNS_11__hash_nodeINS_17__hash_value_typeIPN6System7Typinfo9TTypeInfoEPSt9type_infoEEPvEEEEEEEELi1ELb0EE5__getB6v15007Ev DATA
 0005:00000f9c 0000000cH .pdata$_ZNSt3__116allocator_traitsINS_9allocatorIPNS_16__hash_node_baseIPNS_11__hash_nodeINS_17__hash_value_typeIPN6System7Typinfo9TTypeInfoEPSt9type_infoEEPvEEEEEEE10deallocateB6v15007ERSH_PSG_y DATA
 0005:00000fa8 0000000cH .pdata$_ZNSt3__125__bucket_list_deallocatorINS_9allocatorIPNS_16__hash_node_baseIPNS_11__hash_nodeINS_17__hash_value_typeIPN6System7Typinfo9TTypeInfoEPSt9type_infoEEPvEEEEEEE7__allocB6v15007Ev DATA
 0005:00000fb4 0000000cH .pdata$_ZNSt3__125__bucket_list_deallocatorINS_9allocatorIPNS_16__hash_node_baseIPNS_11__hash_nodeINS_17__hash_value_typeIPN6System7Typinfo9TTypeInfoEPSt9type_infoEEPvEEEEEEE4sizeB6v15007Ev DATA
 0005:00000fc0 0000000cH .pdata$_ZNSt3__19allocatorIPNS_16__hash_node_baseIPNS_11__hash_nodeINS_17__hash_value_typeIPN6System7Typinfo9TTypeInfoEPSt9type_infoEEPvEEEEE10deallocateB6v15007EPSF_y DATA
 0005:00000fcc 0000000cH .pdata$_ZNSt3__117__compressed_pairIyNS_9allocatorIPNS_16__hash_node_baseIPNS_11__hash_nodeINS_17__hash_value_typeIPN6System7Typinfo9TTypeInfoEPSt9type_infoEEPvEEEEEEE6secondB6v15007Ev DATA
 0005:00000fd8 0000000cH .pdata$_ZNSt3__122__compressed_pair_elemINS_9allocatorIPNS_16__hash_node_baseIPNS_11__hash_nodeINS_17__hash_value_typeIPN6System7Typinfo9TTypeInfoEPSt9type_infoEEPvEEEEEELi1ELb1EE5__getB6v15007Ev DATA
 0005:00000fe4 0000000cH .pdata$_ZNSt3__117__compressed_pairIyNS_9allocatorIPNS_16__hash_node_baseIPNS_11__hash_nodeINS_17__hash_value_typeIPN6System7Typinfo9TTypeInfoEPSt9type_infoEEPvEEEEEEE5firstB6v15007Ev DATA
 0005:00000ff0 0000000cH .pdata$_ZNSt3__122__compressed_pair_elemIyLi0ELb0EE5__getB6v15007Ev DATA
 0005:00000ffc 0000000cH .pdata$_ZNSt3__112__hash_tableINS_17__hash_value_typeIPN6System7Typinfo9TTypeInfoEPSt9type_infoEENS_22__unordered_map_hasherIS5_S8_NS_4hashIS5_EENS_8equal_toIS5_EELb1EEENS_21__unordered_map_equalIS5_S8_SD_SB_Lb1EEENS_9allocatorIS8_EEE25__emplace_unique_key_argsIS5_JRKNS_21piecewise_construct_tENS_5tupleIJRKS5_EEENSO_IJEEEEEENS_4pairINS_15__hash_iteratorIPNS_11__hash_nodeIS8_PvEEEEbEERKT_DpOT0_ DATA
 0005:00001008 0000000cH .pdata$_ZNSt3__116forward_as_tupleB6v15007IJRKPN6System7Typinfo9TTypeInfoEEEENS_5tupleIJDpOT_EEESA_ DATA
 0005:00001014 0000000cH .pdata$_ZNSt3__116forward_as_tupleB6v15007IJEEENS_5tupleIJDpOT_EEES4_ DATA
 0005:00001020 0000000cH .pdata$_ZNKSt3__115__hash_iteratorIPNS_11__hash_nodeINS_17__hash_value_typeIPN6System7Typinfo9TTypeInfoEPSt9type_infoEEPvEEEptB6v15007Ev DATA
 0005:0000102c 0000000cH .pdata$_ZNSt3__112__hash_tableINS_17__hash_value_typeIPN6System7Typinfo9TTypeInfoEPSt9type_infoEENS_22__unordered_map_hasherIS5_S8_NS_4hashIS5_EENS_8equal_toIS5_EELb1EEENS_21__unordered_map_equalIS5_S8_SD_SB_Lb1EEENS_9allocatorIS8_EEE13hash_functionB6v15007Ev DATA
 0005:00001038 0000000cH .pdata$_ZNKSt3__122__unordered_map_hasherIPN6System7Typinfo9TTypeInfoENS_17__hash_value_typeIS4_PSt9type_infoEENS_4hashIS4_EENS_8equal_toIS4_EELb1EEclB6v15007ERKS4_ DATA
 0005:00001044 0000000cH .pdata$_ZNKSt3__112__hash_tableINS_17__hash_value_typeIPN6System7Typinfo9TTypeInfoEPSt9type_infoEENS_22__unordered_map_hasherIS5_S8_NS_4hashIS5_EENS_8equal_toIS5_EELb1EEENS_21__unordered_map_equalIS5_S8_SD_SB_Lb1EEENS_9allocatorIS8_EEE12bucket_countB6v15007Ev DATA
 0005:00001050 0000000cH .pdata$_ZNSt3__116__constrain_hashB6v15007Eyy DATA
 0005:0000105c 0000000cH .pdata$_ZNKSt3__110unique_ptrIA_PNS_16__hash_node_baseIPNS_11__hash_nodeINS_17__hash_value_typeIPN6System7Typinfo9TTypeInfoEPSt9type_infoEEPvEEEENS_25__bucket_list_deallocatorINS_9allocatorISF_EEEEEixB6v15007Ey DATA
 0005:00001068 0000000cH .pdata$_ZNKSt3__116__hash_node_baseIPNS_11__hash_nodeINS_17__hash_value_typeIPN6System7Typinfo9TTypeInfoEPSt9type_infoEEPvEEE6__hashB6v15007Ev DATA
 0005:00001074 0000000cH .pdata$_ZNSt3__112__hash_tableINS_17__hash_value_typeIPN6System7Typinfo9TTypeInfoEPSt9type_infoEENS_22__unordered_map_hasherIS5_S8_NS_4hashIS5_EENS_8equal_toIS5_EELb1EEENS_21__unordered_map_equalIS5_S8_SD_SB_Lb1EEENS_9allocatorIS8_EEE6key_eqB6v15007Ev DATA
 0005:00001080 0000000cH .pdata$_ZNKSt3__121__unordered_map_equalIPN6System7Typinfo9TTypeInfoENS_17__hash_value_typeIS4_PSt9type_infoEENS_8equal_toIS4_EENS_4hashIS4_EELb1EEclB6v15007ERKS8_RKS4_ DATA
 0005:0000108c 0000000cH .pdata$_ZNSt3__112__hash_tableINS_17__hash_value_typeIPN6System7Typinfo9TTypeInfoEPSt9type_infoEENS_22__unordered_map_hasherIS5_S8_NS_4hashIS5_EENS_8equal_toIS5_EELb1EEENS_21__unordered_map_equalIS5_S8_SD_SB_Lb1EEENS_9allocatorIS8_EEE21__construct_node_hashIRKNS_21piecewise_construct_tEJNS_5tupleIJRKS5_EEENSO_IJEEEEEENS_10unique_ptrINS_11__hash_nodeIS8_PvEENS_22__hash_node_destructorINSH_ISW_EEEEEEyOT_DpOT0_ DATA
 0005:00001098 0000000cH .pdata$_ZNSt3__112__hash_tableINS_17__hash_value_typeIPN6System7Typinfo9TTypeInfoEPSt9type_infoEENS_22__unordered_map_hasherIS5_S8_NS_4hashIS5_EENS_8equal_toIS5_EELb1EEENS_21__unordered_map_equalIS5_S8_SD_SB_Lb1EEENS_9allocatorIS8_EEE4sizeB6v15007Ev DATA
 0005:000010a4 0000000cH .pdata$_ZNSt3__112__hash_tableINS_17__hash_value_typeIPN6System7Typinfo9TTypeInfoEPSt9type_infoEENS_22__unordered_map_hasherIS5_S8_NS_4hashIS5_EENS_8equal_toIS5_EELb1EEENS_21__unordered_map_equalIS5_S8_SD_SB_Lb1EEENS_9allocatorIS8_EEE15max_load_factorB6v15007Ev DATA
 0005:000010b0 0000000cH .pdata$_ZNSt3__112__hash_tableINS_17__hash_value_typeIPN6System7Typinfo9TTypeInfoEPSt9type_infoEENS_22__unordered_map_hasherIS5_S8_NS_4hashIS5_EENS_8equal_toIS5_EELb1EEENS_21__unordered_map_equalIS5_S8_SD_SB_Lb1EEENS_9allocatorIS8_EEE15__rehash_uniqueB6v15007Ey DATA
 0005:000010bc 0000000cH .pdata$_ZNSt3__13maxB6v15007IyEERKT_S3_S3_ DATA
 0005:000010c8 0000000cH .pdata$_ZNSt3__116__is_hash_power2B6v15007Ey DATA
 0005:000010d4 0000000cH .pdata$_Z4ceilB6v15007f DATA
 0005:000010e0 0000000cH .pdata$_ZNSt3__116__hash_node_baseIPNS_11__hash_nodeINS_17__hash_value_typeIPN6System7Typinfo9TTypeInfoEPSt9type_infoEEPvEEE5__ptrB6v15007Ev DATA
 0005:000010ec 0000000cH .pdata$_ZNKSt3__110unique_ptrINS_11__hash_nodeINS_17__hash_value_typeIPN6System7Typinfo9TTypeInfoEPSt9type_infoEEPvEENS_22__hash_node_destructorINS_9allocatorISB_EEEEEptB6v15007Ev DATA
 0005:000010f8 0000000cH .pdata$_ZNKSt3__110unique_ptrINS_11__hash_nodeINS_17__hash_value_typeIPN6System7Typinfo9TTypeInfoEPSt9type_infoEEPvEENS_22__hash_node_destructorINS_9allocatorISB_EEEEE3getB6v15007Ev DATA
 0005:00001104 0000000cH .pdata$_ZNSt3__110unique_ptrINS_11__hash_nodeINS_17__hash_value_typeIPN6System7Typinfo9TTypeInfoEPSt9type_infoEEPvEENS_22__hash_node_destructorINS_9allocatorISB_EEEEE7releaseB6v15007Ev DATA
 0005:00001110 0000000cH .pdata$_ZNSt3__110unique_ptrINS_11__hash_nodeINS_17__hash_value_typeIPN6System7Typinfo9TTypeInfoEPSt9type_infoEEPvEENS_22__hash_node_destructorINS_9allocatorISB_EEEEED2B6v15007Ev DATA
 0005:0000111c 0000000cH .pdata$_ZNSt3__115__hash_iteratorIPNS_11__hash_nodeINS_17__hash_value_typeIPN6System7Typinfo9TTypeInfoEPSt9type_infoEEPvEEEC2B6v15007EPNS_16__hash_node_baseISC_EEPKv DATA
 0005:00001128 0000000cH .pdata$_ZNSt3__14pairINS_15__hash_iteratorIPNS_11__hash_nodeINS_17__hash_value_typeIPN6System7Typinfo9TTypeInfoEPSt9type_infoEEPvEEEEbEC2B6v15007ISE_RbLSB_0EEEOT_OT0_ DATA
 0005:00001134 0000000cH .pdata$_ZNSt3__117__compressed_pairIyNS_22__unordered_map_hasherIPN6System7Typinfo9TTypeInfoENS_17__hash_value_typeIS5_PSt9type_infoEENS_4hashIS5_EENS_8equal_toIS5_EELb1EEEE6secondB6v15007Ev DATA
 0005:00001140 0000000cH .pdata$_ZNSt3__122__compressed_pair_elemINS_22__unordered_map_hasherIPN6System7Typinfo9TTypeInfoENS_17__hash_value_typeIS5_PSt9type_infoEENS_4hashIS5_EENS_8equal_toIS5_EELb1EEELi1ELb1EE5__getB6v15007Ev DATA
 0005:0000114c 0000000cH .pdata$_ZNKSt3__14hashIPN6System7Typinfo9TTypeInfoEEclB6v15007ES4_ DATA
 0005:00001158 0000000cH .pdata$_ZNSt3__121__murmur2_or_cityhashIyLy64EEclEPKvy DATA
 0005:00001164 0000000cH .pdata$_ZNSt3__121__murmur2_or_cityhashIyLy64EE18__hash_len_0_to_16EPKcy DATA
 0005:00001170 0000000cH .pdata$_ZNSt3__121__murmur2_or_cityhashIyLy64EE19__hash_len_17_to_32EPKcy DATA
 0005:0000117c 0000000cH .pdata$_ZNSt3__121__murmur2_or_cityhashIyLy64EE19__hash_len_33_to_64EPKcy DATA
 0005:00001188 0000000cH .pdata$_ZNSt3__110__loadwordB6v15007IyEET_PKv DATA
 0005:00001194 0000000cH .pdata$_ZNSt3__121__murmur2_or_cityhashIyLy64EE13__hash_len_16Eyy DATA
 0005:000011a0 0000000cH .pdata$_ZNSt3__121__murmur2_or_cityhashIyLy64EE29__weak_hash_len_32_with_seedsEPKcyy DATA
 0005:000011ac 0000000cH .pdata$_ZNSt3__121__murmur2_or_cityhashIyLy64EE8__rotateEyi DATA
 0005:000011b8 0000000cH .pdata$_ZNSt3__14pairIyyEaSB6v15007EOS1_ DATA
 0005:000011c4 0000000cH .pdata$_ZNSt3__14swapB6v15007IyEENS_9enable_ifIXaasr21is_move_constructibleIT_EE5valuesr18is_move_assignableIS2_EE5valueEvE4typeERS2_S5_ DATA
 0005:000011d0 0000000cH .pdata$_ZNSt3__121__murmur2_or_cityhashIyLy64EE11__shift_mixEy DATA
 0005:000011dc 0000000cH .pdata$_ZNSt3__121__murmur2_or_cityhashIyLy64EE22__rotate_by_at_least_1Eyi DATA
 0005:000011e8 0000000cH .pdata$_ZNSt3__110__loadwordB6v15007IjEET_PKv DATA
 0005:000011f4 0000000cH .pdata$_ZNSt3__121__murmur2_or_cityhashIyLy64EE29__weak_hash_len_32_with_seedsEyyyyyy DATA
 0005:00001200 0000000cH .pdata$_ZNSt3__14pairIyyEC2B6v15007IyyLPv0EEEOT_OT0_ DATA
 0005:0000120c 0000000cH .pdata$_ZNKSt3__110unique_ptrIA_PNS_16__hash_node_baseIPNS_11__hash_nodeINS_17__hash_value_typeIPN6System7Typinfo9TTypeInfoEPSt9type_infoEEPvEEEENS_25__bucket_list_deallocatorINS_9allocatorISF_EEEEE11get_deleterB6v15007Ev DATA
 0005:00001218 0000000cH .pdata$_ZNKSt3__125__bucket_list_deallocatorINS_9allocatorIPNS_16__hash_node_baseIPNS_11__hash_nodeINS_17__hash_value_typeIPN6System7Typinfo9TTypeInfoEPSt9type_infoEEPvEEEEEEE4sizeB6v15007Ev DATA
 0005:00001224 0000000cH .pdata$_ZNKSt3__117__compressed_pairIPPNS_16__hash_node_baseIPNS_11__hash_nodeINS_17__hash_value_typeIPN6System7Typinfo9TTypeInfoEPSt9type_infoEEPvEEEENS_25__bucket_list_deallocatorINS_9allocatorISF_EEEEE6secondB6v15007Ev DATA
 0005:00001230 0000000cH .pdata$_ZNKSt3__122__compressed_pair_elemINS_25__bucket_list_deallocatorINS_9allocatorIPNS_16__hash_node_baseIPNS_11__hash_nodeINS_17__hash_value_typeIPN6System7Typinfo9TTypeInfoEPSt9type_infoEEPvEEEEEEEELi1ELb0EE5__getB6v15007Ev DATA
 0005:0000123c 0000000cH .pdata$_ZNKSt3__117__compressed_pairIyNS_9allocatorIPNS_16__hash_node_baseIPNS_11__hash_nodeINS_17__hash_value_typeIPN6System7Typinfo9TTypeInfoEPSt9type_infoEEPvEEEEEEE5firstB6v15007Ev DATA
 0005:00001248 0000000cH .pdata$_ZNKSt3__122__compressed_pair_elemIyLi0ELb0EE5__getB6v15007Ev DATA
 0005:00001254 0000000cH .pdata$_ZNKSt3__117__compressed_pairIPPNS_16__hash_node_baseIPNS_11__hash_nodeINS_17__hash_value_typeIPN6System7Typinfo9TTypeInfoEPSt9type_infoEEPvEEEENS_25__bucket_list_deallocatorINS_9allocatorISF_EEEEE5firstB6v15007Ev DATA
 0005:00001260 0000000cH .pdata$_ZNKSt3__122__compressed_pair_elemIPPNS_16__hash_node_baseIPNS_11__hash_nodeINS_17__hash_value_typeIPN6System7Typinfo9TTypeInfoEPSt9type_infoEEPvEEEELi0ELb0EE5__getB6v15007Ev DATA
 0005:0000126c 0000000cH .pdata$_ZNSt3__117__compressed_pairIfNS_21__unordered_map_equalIPN6System7Typinfo9TTypeInfoENS_17__hash_value_typeIS5_PSt9type_infoEENS_8equal_toIS5_EENS_4hashIS5_EELb1EEEE6secondB6v15007Ev DATA
 0005:00001278 0000000cH .pdata$_ZNSt3__122__compressed_pair_elemINS_21__unordered_map_equalIPN6System7Typinfo9TTypeInfoENS_17__hash_value_typeIS5_PSt9type_infoEENS_8equal_toIS5_EENS_4hashIS5_EELb1EEELi1ELb1EE5__getB6v15007Ev DATA
 0005:00001284 0000000cH .pdata$_ZNKSt3__18equal_toIPN6System7Typinfo9TTypeInfoEEclB6v15007ERKS4_S7_ DATA
 0005:00001290 0000000cH .pdata$_ZNKSt3__117__hash_value_typeIPN6System7Typinfo9TTypeInfoEPSt9type_infoE11__get_valueB6v15007Ev DATA
 0005:0000129c 0000000cH .pdata$_ZNSt3__17launderB6v15007IKNS_4pairIKPN6System7Typinfo9TTypeInfoEPSt9type_infoEEEEPT_SC_ DATA
 0005:000012a8 0000000cH .pdata$_ZNSt3__19__launderB6v15007IKNS_4pairIKPN6System7Typinfo9TTypeInfoEPSt9type_infoEEEEPT_SC_ DATA
 0005:000012b4 0000000cH .pdata$_ZNSt3__116allocator_traitsINS_9allocatorINS_11__hash_nodeINS_17__hash_value_typeIPN6System7Typinfo9TTypeInfoEPSt9type_infoEEPvEEEEE8allocateB6v15007ERSD_y DATA
 0005:000012c0 0000000cH .pdata$_ZNSt3__122__hash_node_destructorINS_9allocatorINS_11__hash_nodeINS_17__hash_value_typeIPN6System7Typinfo9TTypeInfoEPSt9type_infoEEPvEEEEEC2B6v15007ERSD_b DATA
 0005:000012cc 0000000cH .pdata$_ZNSt3__110unique_ptrINS_11__hash_nodeINS_17__hash_value_typeIPN6System7Typinfo9TTypeInfoEPSt9type_infoEEPvEENS_22__hash_node_destructorINS_9allocatorISB_EEEEEC2B6v15007ILb1EvEEPSB_NS_16__dependent_typeINS_27__unique_ptr_deleter_sfinaeISF_EEXT_EE20__good_rval_ref_typeE DATA
 0005:000012d8 0000000cH .pdata$_ZNSt3__116allocator_traitsINS_9allocatorINS_11__hash_nodeINS_17__hash_value_typeIPN6System7Typinfo9TTypeInfoEPSt9type_infoEEPvEEEEE9constructB6v15007INS_4pairIKS7_S9_EEJRKNS_21piecewise_construct_tENS_5tupleIJRSH_EEENSM_IJEEEEvEEvRSD_PT_DpOT0_ DATA
 0005:000012e4 0000000cH .pdata$_ZNSt3__110unique_ptrINS_11__hash_nodeINS_17__hash_value_typeIPN6System7Typinfo9TTypeInfoEPSt9type_infoEEPvEENS_22__hash_node_destructorINS_9allocatorISB_EEEEE11get_deleterB6v15007Ev DATA
 0005:000012f0 0000000cH .pdata$_ZNSt3__19allocatorINS_11__hash_nodeINS_17__hash_value_typeIPN6System7Typinfo9TTypeInfoEPSt9type_infoEEPvEEE8allocateB6v15007Ey DATA
 0005:000012fc 0000000cH .pdata$_ZNSt3__116allocator_traitsINS_9allocatorINS_11__hash_nodeINS_17__hash_value_typeIPN6System7Typinfo9TTypeInfoEPSt9type_infoEEPvEEEEE8max_sizeB6v15007ISD_vEEyRKSD_ DATA
 0005:00001308 0000000cH .pdata$_ZSt28__throw_bad_array_new_lengthB6v15007v DATA
 0005:00001314 0000000cH .pdata$_ZNSt3__117__libcpp_allocateB6v15007Eyy DATA
 0005:00001320 0000000cH .pdata$_ZNKSt3__19allocatorINS_11__hash_nodeINS_17__hash_value_typeIPN6System7Typinfo9TTypeInfoEPSt9type_infoEEPvEEE8max_sizeB6v15007Ev DATA
 0005:0000132c 0000000cH .pdata$_ZNSt3__121__libcpp_operator_newB6v15007IJySt11align_val_tEEEPvDpT_ DATA
 0005:00001338 0000000cH .pdata$_ZNSt3__121__libcpp_operator_newB6v15007IJyEEEPvDpT_ DATA
 0005:00001344 0000000cH .pdata$_ZNSt3__117__compressed_pairIPNS_11__hash_nodeINS_17__hash_value_typeIPN6System7Typinfo9TTypeInfoEPSt9type_infoEEPvEENS_22__hash_node_destructorINS_9allocatorISB_EEEEEC2B6v15007IRSC_SG_EEOT_OT0_ DATA
 0005:00001350 0000000cH .pdata$_ZNSt3__122__compressed_pair_elemIPNS_11__hash_nodeINS_17__hash_value_typeIPN6System7Typinfo9TTypeInfoEPSt9type_infoEEPvEELi0ELb0EEC2B6v15007IRSC_vEEOT_ DATA
 0005:0000135c 0000000cH .pdata$_ZNSt3__122__compressed_pair_elemINS_22__hash_node_destructorINS_9allocatorINS_11__hash_nodeINS_17__hash_value_typeIPN6System7Typinfo9TTypeInfoEPSt9type_infoEEPvEEEEEELi1ELb0EEC2B6v15007ISF_vEEOT_ DATA
 0005:00001368 0000000cH .pdata$_ZNSt3__19allocatorINS_11__hash_nodeINS_17__hash_value_typeIPN6System7Typinfo9TTypeInfoEPSt9type_infoEEPvEEE9constructB6v15007INS_4pairIKS6_S8_EEJRKNS_21piecewise_construct_tENS_5tupleIJRSF_EEENSK_IJEEEEEEvPT_DpOT0_ DATA
 0005:00001374 0000000cH .pdata$_ZNSt3__14pairIKPN6System7Typinfo9TTypeInfoEPSt9type_infoEC2B6v15007IJRS5_EJEEENS_21piecewise_construct_tENS_5tupleIJDpT_EEENSC_IJDpT0_EEE DATA
 0005:00001380 0000000cH .pdata$_ZNSt3__14pairIKPN6System7Typinfo9TTypeInfoEPSt9type_infoEC2B6v15007IJRS5_EJEJLy0EEJEEENS_21piecewise_construct_tERNS_5tupleIJDpT_EEERNSC_IJDpT0_EEENS_15__tuple_indicesIJXspT1_EEEENSL_IJXspT2_EEEE DATA
 0005:0000138c 0000000cH .pdata$_ZNSt3__13getB6v15007ILy0EJRKPN6System7Typinfo9TTypeInfoEEEERNS_13tuple_elementIXT_ENS_5tupleIJDpT0_EEEE4typeERSB_ DATA
 0005:00001398 0000000cH .pdata$_ZNSt3__112__tuple_leafILy0ERKPN6System7Typinfo9TTypeInfoELb0EE3getB6v15007Ev DATA
 0005:000013a4 0000000cH .pdata$_ZNSt3__117__compressed_pairIPNS_11__hash_nodeINS_17__hash_value_typeIPN6System7Typinfo9TTypeInfoEPSt9type_infoEEPvEENS_22__hash_node_destructorINS_9allocatorISB_EEEEE6secondB6v15007Ev DATA
 0005:000013b0 0000000cH .pdata$_ZNSt3__122__compressed_pair_elemINS_22__hash_node_destructorINS_9allocatorINS_11__hash_nodeINS_17__hash_value_typeIPN6System7Typinfo9TTypeInfoEPSt9type_infoEEPvEEEEEELi1ELb0EE5__getB6v15007Ev DATA
 0005:000013bc 0000000cH .pdata$_ZNSt3__117__compressed_pairIyNS_22__unordered_map_hasherIPN6System7Typinfo9TTypeInfoENS_17__hash_value_typeIS5_PSt9type_infoEENS_4hashIS5_EENS_8equal_toIS5_EELb1EEEE5firstB6v15007Ev DATA
 0005:000013c8 0000000cH .pdata$_ZNSt3__117__compressed_pairIfNS_21__unordered_map_equalIPN6System7Typinfo9TTypeInfoENS_17__hash_value_typeIS5_PSt9type_infoEENS_8equal_toIS5_EENS_4hashIS5_EELb1EEEE5firstB6v15007Ev DATA
 0005:000013d4 0000000cH .pdata$_ZNSt3__122__compressed_pair_elemIfLi0ELb0EE5__getB6v15007Ev DATA
 0005:000013e0 0000000cH .pdata$_ZNSt3__112__hash_tableINS_17__hash_value_typeIPN6System7Typinfo9TTypeInfoEPSt9type_infoEENS_22__unordered_map_hasherIS5_S8_NS_4hashIS5_EENS_8equal_toIS5_EELb1EEENS_21__unordered_map_equalIS5_S8_SD_SB_Lb1EEENS_9allocatorIS8_EEE8__rehashILb1EEEvy DATA
 0005:000013ec 0000000cH .pdata$_ZNSt3__112__hash_tableINS_17__hash_value_typeIPN6System7Typinfo9TTypeInfoEPSt9type_infoEENS_22__unordered_map_hasherIS5_S8_NS_4hashIS5_EENS_8equal_toIS5_EELb1EEENS_21__unordered_map_equalIS5_S8_SD_SB_Lb1EEENS_9allocatorIS8_EEE11__do_rehashILb1EEEvy DATA
 0005:000013f8 0000000cH .pdata$_ZNSt3__116__next_hash_pow2B6v15007Ey DATA
 0005:00001404 0000000cH .pdata$_ZNSt3__125__debug_db_invalidate_allB6v15007INS_12__hash_tableINS_17__hash_value_typeIPN6System7Typinfo9TTypeInfoEPSt9type_infoEENS_22__unordered_map_hasherIS6_S9_NS_4hashIS6_EENS_8equal_toIS6_EELb1EEENS_21__unordered_map_equalIS6_S9_SE_SC_Lb1EEENS_9allocatorIS9_EEEEEEvPT_ DATA
 0005:00001410 0000000cH .pdata$_ZNSt3__110unique_ptrIA_PNS_16__hash_node_baseIPNS_11__hash_nodeINS_17__hash_value_typeIPN6System7Typinfo9TTypeInfoEPSt9type_infoEEPvEEEENS_25__bucket_list_deallocatorINS_9allocatorISF_EEEEE11get_deleterB6v15007Ev DATA
 0005:0000141c 0000000cH .pdata$_ZNSt3__110unique_ptrIA_PNS_16__hash_node_baseIPNS_11__hash_nodeINS_17__hash_value_typeIPN6System7Typinfo9TTypeInfoEPSt9type_infoEEPvEEEENS_25__bucket_list_deallocatorINS_9allocatorISF_EEEEE5resetB6v15007IPSF_EENS_9enable_ifIXsr28_CheckArrayPointerConversionIT_EE5valueEvE4typeESP_ DATA
 0005:00001428 0000000cH .pdata$_ZNSt3__116allocator_traitsINS_9allocatorIPNS_16__hash_node_baseIPNS_11__hash_nodeINS_17__hash_value_typeIPN6System7Typinfo9TTypeInfoEPSt9type_infoEEPvEEEEEEE8allocateB6v15007ERSH_y DATA
 0005:00001434 0000000cH .pdata$_ZNSt3__19allocatorIPNS_16__hash_node_baseIPNS_11__hash_nodeINS_17__hash_value_typeIPN6System7Typinfo9TTypeInfoEPSt9type_infoEEPvEEEEE8allocateB6v15007Ey DATA
 0005:00001440 0000000cH .pdata$_ZNSt3__116allocator_traitsINS_9allocatorIPNS_16__hash_node_baseIPNS_11__hash_nodeINS_17__hash_value_typeIPN6System7Typinfo9TTypeInfoEPSt9type_infoEEPvEEEEEEE8max_sizeB6v15007ISH_vEEyRKSH_ DATA
 0005:0000144c 0000000cH .pdata$_ZNKSt3__19allocatorIPNS_16__hash_node_baseIPNS_11__hash_nodeINS_17__hash_value_typeIPN6System7Typinfo9TTypeInfoEPSt9type_infoEEPvEEEEE8max_sizeB6v15007Ev DATA
 0005:00001458 0000000cH .pdata$_ZNSt3__112__libcpp_clzB6v15007Ey DATA
 0005:00001464 0000000cH .pdata$_ZNSt3__13maxB6v15007IyNS_6__lessIyyEEEERKT_S5_S5_T0_ DATA
 0005:00001470 0000000cH .pdata$_ZNKSt3__16__lessIyyEclB6v15007ERKyS3_ DATA
 0005:0000147c 0000000cH .pdata$_ZNKSt3__117__compressed_pairIPNS_11__hash_nodeINS_17__hash_value_typeIPN6System7Typinfo9TTypeInfoEPSt9type_infoEEPvEENS_22__hash_node_destructorINS_9allocatorISB_EEEEE5firstB6v15007Ev DATA
 0005:00001488 0000000cH .pdata$_ZNKSt3__122__compressed_pair_elemIPNS_11__hash_nodeINS_17__hash_value_typeIPN6System7Typinfo9TTypeInfoEPSt9type_infoEEPvEELi0ELb0EE5__getB6v15007Ev DATA
 0005:00001494 0000000cH .pdata$_ZNSt3__117__compressed_pairIPNS_11__hash_nodeINS_17__hash_value_typeIPN6System7Typinfo9TTypeInfoEPSt9type_infoEEPvEENS_22__hash_node_destructorINS_9allocatorISB_EEEEE5firstB6v15007Ev DATA
 0005:000014a0 0000000cH .pdata$_ZNSt3__122__compressed_pair_elemIPNS_11__hash_nodeINS_17__hash_value_typeIPN6System7Typinfo9TTypeInfoEPSt9type_infoEEPvEELi0ELb0EE5__getB6v15007Ev DATA
 0005:000014ac 0000000cH .pdata$_ZNSt3__110unique_ptrINS_11__hash_nodeINS_17__hash_value_typeIPN6System7Typinfo9TTypeInfoEPSt9type_infoEEPvEENS_22__hash_node_destructorINS_9allocatorISB_EEEEE5resetB6v15007EPSB_ DATA
 0005:000014b8 0000000cH .pdata$_ZNSt3__122__hash_node_destructorINS_9allocatorINS_11__hash_nodeINS_17__hash_value_typeIPN6System7Typinfo9TTypeInfoEPSt9type_infoEEPvEEEEEclB6v15007EPSC_ DATA
 0005:000014c4 0000000cH .pdata$_ZNSt3__15tupleIJRKPN6System7Typinfo9TTypeInfoEEEC2B6v15007INS_4_AndELi0EEES6_ DATA
 0005:000014d0 0000000cH .pdata$_ZNSt3__112__tuple_implINS_15__tuple_indicesIJLy0EEEEJRKPN6System7Typinfo9TTypeInfoEEEC2B6v15007IJLy0EEJS8_EJEJEJS8_EEENS1_IJXspT_EEEENS_13__tuple_typesIJDpT0_EEENS1_IJXspT1_EEEENSC_IJDpT2_EEEDpOT3_ DATA
 0005:000014dc 0000000cH .pdata$_ZNSt3__112__tuple_leafILy0ERKPN6System7Typinfo9TTypeInfoELb0EEC2B6v15007IS6_vEEOT_ DATA
 0005:000014e8 0000000cH .pdata$_ZNSt3__114pointer_traitsIPNS_17__hash_value_typeIPN6System7Typinfo9TTypeInfoEPSt9type_infoEEE10pointer_toB6v15007ERS8_ DATA
 0005:000014f4 00000600H .pdata                  DATA
 0005:00001af4 0000000cH .pdata$_ZN6System8_CharLenIwEEiPKT_ DATA
 0005:00001b00 0000000cH .pdata$_ZN6System8_CharLenIDsEEiPKT_ DATA
 0005:00001b0c 0000000cH .pdata$_ZN6System14AnsiStringBaseC2ILt0EEEONS_11AnsiStringTIXT_EEE DATA
 0005:00001b18 0000000cH .pdata$_ZNK6System14AnsiStringBase8CodePageEv DATA
 0005:00001b24 0000000cH .pdata$_ZNK6System14AnsiStringBaseixEi DATA
 0005:00001b30 000001ecH .pdata                  DATA
 0006:00000000 0000002cH .embtexi                DATA
 0007:00000000 00000008H .embti$x                DATA
 0007:00000008 00000070H .embti$y                DATA
 0007:00000078 00000008H .embti$z                DATA
 0008:00000000 0000002cH .embtini                DATA
 0009:00000000 00000108H .embtinit               DATA
 000a:00000000 00000008H .tls                    DATA
 000a:00000008 00000008H .tls$ZZZ                DATA
 000a:00000010 00000001H .tls$zzz                DATA
 000b:00000000 00000554H .rsrc$01                DATA
 000b:00000560 00022cf8H .rsrc$02                DATA

  Address         Publics by Value              Rva+Base               Lib:Object

 0000:00000000       .absolut                   0000000000000000     <absolute>
 0000:ffffffb0       vtAfterConstruction        00000000ffffffb0     <absolute>
 0000:ffffffb8       vtBeforeDestruction        00000000ffffffb8     <absolute>
 0000:ffffffd0       vtNewInstance              00000000ffffffd0     <absolute>
 0000:ffffffd8       vtFreeInstance             00000000ffffffd8     <absolute>
 0000:00000000       __ImageBase                0000000140000000     <linker-defined>
 0000:00000000       __ImageBase                0000000140000000     <linker-defined>
 0000:00000000       __ImageBase                0000000140000000     <linker-defined>
 0001:00000100       WinMainCRTStartup          0000000140001100     crt2u.o
 0001:00000350       mainCRTStartup             0000000140001350     crt2u.o
 0001:00000380       atexit                     0000000140001380     crt2u.o
 0001:00000620       __System__GetTls           0000000140001620     crtbegin.o
 0001:00000636       _ZN7Sysinit7_GetTlsEv      0000000140001636     crtbegin.o
 0001:00000650       .weak._ZN7Sysinit7_GetTlsEv.default 0000000140001650     sysinit.o
 0001:000006b0       _ZN7Sysinit17SetDliNotifyHook2EPFPv15dliNotificationP13DelayLoadInfoE 00000001400016b0     sysinit.o
 0001:000006c0       _ZN7Sysinit14DliNotifyHook2Ev 00000001400016c0     sysinit.o
 0001:000006d0       _ZN7Sysinit18SetDliFailureHook2EPFPv15dliNotificationP13DelayLoadInfoE 00000001400016d0     sysinit.o
 0001:000006e0       _ZN7Sysinit15DliFailureHook2Ev 00000001400016e0     sysinit.o
 0001:000006f0       _ZN7Sysinit17_DelayLoadHelper2ERPvS0_ 00000001400016f0     sysinit.o
 0001:00000700       _ZN7Sysinit21UnloadDelayLoadedDLL2EPc 0000000140001700     sysinit.o
 0001:00000710       _ZN7Sysinit20LoadAllImportsForDllEPc 0000000140001710     sysinit.o
 0001:00000720       _ZN7Sysinit7VclInitEbbyb   0000000140001720     sysinit.o
 0001:00000800       _ZN7Sysinit7VclExitEv      0000000140001800     sysinit.o
 0001:00000850       _ZN7Sysinit8_InitPkgEyiPv  0000000140001850     sysinit.o
 0001:000008d0       _ZN7Sysinit12_PackageLoadEPN6System16PackageInfoTableE 00000001400018d0     sysinit.o
 0001:000008f0       _ZN7Sysinit14_PackageUnloadEPN6System16PackageInfoTableE 00000001400018f0     sysinit.o
 0001:00000910       _ZN7Sysinit8_InitLibEPN6System12TInitContextEPNS0_16PackageInfoTableEyjPv 0000000140001910     sysinit.o
 0001:000009c0       _ZN7Sysinit8_InitExeEPv    00000001400019c0     sysinit.o
 0001:00000a50       _ZN7Sysinit18__delayLoadHelper2Ev 0000000140001a50     sysinit.o
 0001:00000d30       _ZN7Sysinit24__FUnloadDelayLoadedDLL2Ev 0000000140001d30     sysinit.o
 0001:000013e0       _ZN7Sysinit24__HrLoadAllImportsForDllEv 00000001400023e0     sysinit.o
 0001:00001870       _ZN7Sysinit12FinalizationEv 0000000140002870     sysinit.o
 0001:00001890       _ZN7Sysinit14initializationEv 0000000140002890     sysinit.o
 0001:00002220       _ZN13TMainpageformC3EPN6System7Classes10TComponentE 0000000140003220     MainPage.o
 0001:000022a0       _ZN13TMainpageform14Pcbutton3ClickEPN6System7TObjectE 00000001400032a0     MainPage.o
 0001:000022c0       _ZN3Fmx5Forms5TFormC3EPN6System7Classes10TComponentE 00000001400032c0     MainPage.o
 0001:00002340       _ZN13TMainpageformD0Ev     0000000140003340     MainPage.o
 0001:00002390       _ZN3Fmx5Forms5TFormC3EPN6System7Classes10TComponentEx 0000000140003390     MainPage.o
 0001:00002410       _ZN3Fmx5Forms5TFormD0Ev    0000000140003410     MainPage.o
 0001:00002460       _ZN12TPC1pageformC3EPN6System7Classes10TComponentE 0000000140003460     PC1page.o
 0001:000024e0       _ZN12TPC1pageformD0Ev      00000001400034e0     PC1page.o
 0001:00002530       _ZN12TPC2pageformC3EPN6System7Classes10TComponentE 0000000140003530     PC2page.o
 0001:000025b0       _ZN12TPC2pageformD0Ev      00000001400035b0     PC2page.o
 0001:00002600       _ZN12TPC3pageformC3EPN6System7Classes10TComponentE 0000000140003600     PC3page.o
 0001:00002680       _ZN12TPC3pageformD0Ev      0000000140003680     PC3page.o
 0001:000026d0       _ZN12TPC4pageformC3EPN6System7Classes10TComponentE 00000001400036d0     PC4page.o
 0001:00002750       _ZN12TPC4pageformD0Ev      0000000140003750     PC4page.o
 0001:000027a0       FMXmain                    00000001400037a0     Project-2nd-try.o
 0001:00002b20       _ZN6System7Classes15TComponentClassC1EPNS_10TMetaClassE 0000000140003b20     Project-2nd-try.o
 0001:00002b50       __clang_call_terminate     0000000140003b50     Project-2nd-try.o
 0001:00002b60       _ZN6System7Classes15TComponentClassC2EPNS_10TMetaClassE 0000000140003b60     Project-2nd-try.o
 0001:00002b90       _ZN6System15DelphiMetaClassINS_7Classes15TComponentClassEEC2EPNS_10TMetaClassE 0000000140003b90     Project-2nd-try.o
 0001:00002bb0       __getmainargs              0000000140003bb0     libucrt:lib64_libucrt_extra_a-ucrtbase_compat.o
 0001:00002c40       __wgetmainargs             0000000140003c40     libucrt:lib64_libucrt_extra_a-ucrtbase_compat.o
 0001:00002cd0       _onexit                    0000000140003cd0     libucrt:lib64_libucrt_extra_a-ucrtbase_compat.o
 0001:00002d20       at_quick_exit              0000000140003d20     libucrt:lib64_libucrt_extra_a-ucrtbase_compat.o
 0001:00002d60       _amsg_exit                 0000000140003d60     libucrt:lib64_libucrt_extra_a-ucrtbase_compat.o
 0001:00002da0       _get_output_format         0000000140003da0     libucrt:lib64_libucrt_extra_a-ucrtbase_compat.o
 0001:00002db0       _tzset                     0000000140003db0     libucrt:lib64_libucrt_extra_a-ucrtbase_compat.o
 0001:00002df0       tzset                      0000000140003df0     libucrt:lib64_libucrt_extra_a-ucrtbase_compat.o
 0001:00002e00       __ms_fwprintf              0000000140003e00     libucrt:lib64_libucrt_extra_a-ucrtbase_compat.o
 0001:00002e60       __do_global_dtors          0000000140003e60     libmingw32:lib64_libmingw32_a-gccmain.o
 0001:00002ea0       __do_global_ctors          0000000140003ea0     libmingw32:lib64_libmingw32_a-gccmain.o
 0001:00002f50       __main                     0000000140003f50     libmingw32:lib64_libmingw32_a-gccmain.o
 0001:00002f80       wmain                      0000000140003f80     libmingw32:lib64_libmingw32_a-ucrtexewin.o
 0001:00003170       __dyn_tls_init             0000000140004170     libmingw32:lib64_libmingw32_a-tlssup.o
 0001:00003250       __tlregdtor                0000000140004250     libmingw32:lib64_libmingw32_a-tlssup.o
 0001:000032f0       _matherr                   00000001400042f0     libmingw32:lib64_libmingw32_a-merr.o
 0001:00003410       _wsetargv                  0000000140004410     libmingw32:lib64_libmingw32_a-udllargc.o
 0001:00003420       _fpreset                   0000000140004420     libmingw32:lib64_libmingw32_a-CRT_fp10.o
 0001:00003420       fpreset                    0000000140004420     libmingw32:lib64_libmingw32_a-CRT_fp10.o
 0001:00003430       _pei386_runtime_relocator  0000000140004430     libmingw32:lib64_libmingw32_a-pseudo-reloc.o
 0001:00003d10       __mingw_raise_matherr      0000000140004d10     libmingw32:lib64_libmingw32_a-usermatherr.o
 0001:00003d90       __mingw_setusermatherr     0000000140004d90     libmingw32:lib64_libmingw32_a-usermatherr.o
 0001:00003dc0       _gnu_exception_handler     0000000140004dc0     libmingw32:lib64_libmingw32_a-crt_handler.o
 0001:000040a0       _ZNK6System13UnicodeString6GetRecEv 00000001400050a0     rtle:ustring.o
 0001:000040c0       _ZN6System13UnicodeString6GetRecEv 00000001400050c0     rtle:ustring.o
 0001:000040e0       _ZNK6System13UnicodeString6LengthEv 00000001400050e0     rtle:ustring.o
 0001:00004130       _ZNK6System13UnicodeString17ThrowIfOutOfRangeEi 0000000140005130     rtle:ustring.o
 0001:00004210       _ZN6System13UnicodeStringC1Ev 0000000140005210     rtle:ustring.o
 0001:00004210       _ZN6System13UnicodeStringC2Ev 0000000140005210     rtle:ustring.o
 0001:00004230       _ZN6System13UnicodeStringC1EPKc 0000000140005230     rtle:ustring.o
 0001:00004230       _ZN6System13UnicodeStringC2EPKc 0000000140005230     rtle:ustring.o
 0001:00004260       _ZN6System13UnicodeStringC1ERKS0_ 0000000140005260     rtle:ustring.o
 0001:00004260       _ZN6System13UnicodeStringC2ERKS0_ 0000000140005260     rtle:ustring.o
 0001:000042e0       _ZN6System13UnicodeStringC2ERKNS_10WideStringE 00000001400052e0     rtle:ustring.o
 0001:000042e0       _ZN6System13UnicodeStringC1ERKNS_10WideStringE 00000001400052e0     rtle:ustring.o
 0001:00004310       _ZN6System13UnicodeStringC2EPKwi 0000000140005310     rtle:ustring.o
 0001:00004310       _ZN6System13UnicodeStringC1EPKwi 0000000140005310     rtle:ustring.o
 0001:000043a0       _ZN6System13UnicodeString9SetLengthEi 00000001400053a0     rtle:ustring.o
 0001:000043d0       _ZN6System13UnicodeStringC2EPKw 00000001400053d0     rtle:ustring.o
 0001:000043d0       _ZN6System13UnicodeStringC1EPKw 00000001400053d0     rtle:ustring.o
 0001:00004450       _ZN6System13UnicodeStringC2EPKDsi 0000000140005450     rtle:ustring.o
 0001:00004450       _ZN6System13UnicodeStringC1EPKDsi 0000000140005450     rtle:ustring.o
 0001:000044f0       _ZN6System13UnicodeStringC2EPKDii 00000001400054f0     rtle:ustring.o
 0001:000044f0       _ZN6System13UnicodeStringC1EPKDii 00000001400054f0     rtle:ustring.o
 0001:00004700       _ZN6System13UnicodeStringC2EPKci 0000000140005700     rtle:ustring.o
 0001:00004700       _ZN6System13UnicodeStringC1EPKci 0000000140005700     rtle:ustring.o
 0001:00004790       _ZN6System13UnicodeStringC2Ed 0000000140005790     rtle:ustring.o
 0001:00004790       _ZN6System13UnicodeStringC1Ed 0000000140005790     rtle:ustring.o
 0001:00004830       _ZN6System13UnicodeStringaSERKS0_ 0000000140005830     rtle:ustring.o
 0001:00004860       _ZN6System13UnicodeStringD1Ev 0000000140005860     rtle:ustring.o
 0001:00004860       _ZN6System13UnicodeStringD2Ev 0000000140005860     rtle:ustring.o
 0001:00004890       _ZN6System13UnicodeStringpLERKS0_ 0000000140005890     rtle:ustring.o
 0001:000048c0       _ZNK6System13UnicodeStringplERKS0_ 00000001400058c0     rtle:ustring.o
 0001:00004970       _ZNK6System13UnicodeStringeqERKS0_ 0000000140005970     rtle:ustring.o
 0001:000049a0       _ZNK6System13UnicodeStringneERKS0_ 00000001400059a0     rtle:ustring.o
 0001:000049d0       _ZNK6System13UnicodeStringltERKS0_ 00000001400059d0     rtle:ustring.o
 0001:00004a00       _ZNK6System13UnicodeStringgtERKS0_ 0000000140005a00     rtle:ustring.o
 0001:00004a30       _ZNK6System13UnicodeStringleERKS0_ 0000000140005a30     rtle:ustring.o
 0001:00004a60       _ZNK6System13UnicodeStringgeERKS0_ 0000000140005a60     rtle:ustring.o
 0001:00004a90       _ZNK6System13UnicodeString7CompareERKS0_ 0000000140005a90     rtle:ustring.o
 0001:00004b70       _ZNK6System13UnicodeString9CompareICERKS0_ 0000000140005b70     rtle:ustring.o
 0001:00004c50       _ZN6System13UnicodeString12StringOfCharEwi 0000000140005c50     rtle:ustring.o
 0001:00004d20       _ZN6System13UnicodeString7LoadStrEi 0000000140005d20     rtle:ustring.o
 0001:00004d50       _ZN6System13UnicodeString7LoadStrEP11HINSTANCE__i 0000000140005d50     rtle:ustring.o
 0001:00004df0       _ZN6System13UnicodeString11LoadStringAEP11HINSTANCE__i 0000000140005df0     rtle:ustring.o
 0001:00004f90       _ZN6System13UnicodeString10FmtLoadStrEiPKNS_7TVarRecEi 0000000140005f90     rtle:ustring.o
 0001:00004fd0       _ZN6System13UnicodeString6FormatERKS0_PKNS_7TVarRecEi 0000000140005fd0     rtle:ustring.o
 0001:00005020       _ZN6System13UnicodeString11FormatFloatERKS0_RKe 0000000140006020     rtle:ustring.o
 0001:00005060       _ZN6System13UnicodeString7vprintfEPKwPc 0000000140006060     rtle:ustring.o
 0001:00005170       _ZN6System13UnicodeString11cat_vprintfEPKwPc 0000000140006170     rtle:ustring.o
 0001:00005220       _ZN6System13UnicodeString6printfEPKwz 0000000140006220     rtle:ustring.o
 0001:00005270       _ZN6System13UnicodeString7sprintfEPKwz 0000000140006270     rtle:ustring.o
 0001:000052c0       _ZN6System13UnicodeString10cat_printfEPKwz 00000001400062c0     rtle:ustring.o
 0001:00005310       _ZN6System13UnicodeString11cat_sprintfEPKwz 0000000140006310     rtle:ustring.o
 0001:00005360       _ZN6System13UnicodeString11FloatToStrFEeNS0_18TStringFloatFormatEii 0000000140006360     rtle:ustring.o
 0001:000053b0       _ZN6System13UnicodeString8IntToHexEii 00000001400063b0     rtle:ustring.o
 0001:000053f0       _ZN6System13UnicodeString9CurrToStrENS_8CurrencyE 00000001400063f0     rtle:ustring.o
 0001:00005420       _ZN6System13UnicodeString10CurrToStrFENS_8CurrencyENS0_18TStringFloatFormatEi 0000000140006420     rtle:ustring.o
 0001:00005460       _ZN6System13UnicodeString6UniqueEv 0000000140006460     rtle:ustring.o
 0001:00005490       _ZN6System13UnicodeString7Insert1ERKS0_i 0000000140006490     rtle:ustring.o
 0001:000054d0       _ZN6System13UnicodeString7Insert0ERKS0_i 00000001400064d0     rtle:ustring.o
 0001:00005510       _ZN6System13UnicodeString7Delete1Eii 0000000140006510     rtle:ustring.o
 0001:00005550       _ZN6System13UnicodeString7Delete0Eii 0000000140006550     rtle:ustring.o
 0001:00005580       _ZNK6System13UnicodeString4Pos1ERKS0_ 0000000140006580     rtle:ustring.o
 0001:000055b0       _ZNK6System13UnicodeString4Pos0ERKS0_ 00000001400065b0     rtle:ustring.o
 0001:000055e0       _ZNK6System13UnicodeString9LowerCaseEv 00000001400065e0     rtle:ustring.o
 0001:00005620       _ZNK6System13UnicodeString9UpperCaseEv 0000000140006620     rtle:ustring.o
 0001:00005660       _ZNK6System13UnicodeString4TrimEv 0000000140006660     rtle:ustring.o
 0001:000056a0       _ZNK6System13UnicodeString8TrimLeftEv 00000001400066a0     rtle:ustring.o
 0001:000056e0       _ZNK6System13UnicodeString9TrimRightEv 00000001400066e0     rtle:ustring.o
 0001:00005720       _ZNK6System13UnicodeString10SubString1Eii 0000000140006720     rtle:ustring.o
 0001:00005810       _ZNK6System13UnicodeString10SubString0Eii 0000000140006810     rtle:ustring.o
 0001:000058f0       _ZNK6System13UnicodeString5ToIntEv 00000001400068f0     rtle:ustring.o
 0001:00005910       _ZNK6System13UnicodeString8ToIntDefEi 0000000140006910     rtle:ustring.o
 0001:00005940       _ZNK6System13UnicodeString8ToDoubleEv 0000000140006940     rtle:ustring.o
 0001:00005960       _ZNK6System13UnicodeString12IsDelimiter1ERKS0_i 0000000140006960     rtle:ustring.o
 0001:000059a0       _ZNK6System13UnicodeString12IsDelimiter0ERKS0_i 00000001400069a0     rtle:ustring.o
 0001:000059e0       _ZNK6System13UnicodeString16IsPathDelimiter1Ei 00000001400069e0     rtle:ustring.o
 0001:00005a10       _ZNK6System13UnicodeString16IsPathDelimiter0Ei 0000000140006a10     rtle:ustring.o
 0001:00005a40       _ZNK6System13UnicodeString14LastDelimiter1ERKS0_ 0000000140006a40     rtle:ustring.o
 0001:00005a70       _ZNK6System13UnicodeString14LastDelimiter0ERKS0_ 0000000140006a70     rtle:ustring.o
 0001:00005aa0       _ZNK6System13UnicodeString9ByteType1Ei 0000000140006aa0     rtle:ustring.o
 0001:00005ad0       _ZNK6System13UnicodeString9ByteType0Ei 0000000140006ad0     rtle:ustring.o
 0001:00005b10       _ZNK6System13UnicodeString16IsLeadSurrogate1Ei 0000000140006b10     rtle:ustring.o
 0001:00005b50       _ZNK6System13UnicodeString16IsLeadSurrogate0Ei 0000000140006b50     rtle:ustring.o
 0001:00005b80       _ZNK6System13UnicodeString17IsTrailSurrogate1Ei 0000000140006b80     rtle:ustring.o
 0001:00005bc0       _ZNK6System13UnicodeString17IsTrailSurrogate0Ei 0000000140006bc0     rtle:ustring.o
 0001:00005bf0       _ZNK6System13UnicodeString7BytesOfEv 0000000140006bf0     rtle:ustring.o
 0001:00005c30       _ZN6SystemplEPKcRKNS_13UnicodeStringE 0000000140006c30     rtle:ustring.o
 0001:00005cc0       _ZN6SystemplEPKwRKNS_13UnicodeStringE 0000000140006cc0     rtle:ustring.o
 0001:00005d50       _ZN6SystemplEPKDsRKNS_13UnicodeStringE 0000000140006d50     rtle:ustring.o
 0001:00005df0       _ZN6SystemplEPKDiRKNS_13UnicodeStringE 0000000140006df0     rtle:ustring.o
 0001:00005e90       _ZNK6System13UnicodeString9FirstCharEv 0000000140006e90     rtle:ustring.o
 0001:00005ea0       _ZNK6System13UnicodeString8LastCharEv 0000000140006ea0     rtle:ustring.o
 0001:00005ec0       _ZN6System13UnicodeString9FirstCharEv 0000000140006ec0     rtle:ustring.o
 0001:00005ed0       _ZN6System13UnicodeString8LastCharEv 0000000140006ed0     rtle:ustring.o
 0001:00005ef0       _ZN6System13UnicodeString4swapERS0_ 0000000140006ef0     rtle:ustring.o
 0001:00005f30       _ZN6System9to_stringERNS_13UnicodeStringEb 0000000140006f30     rtle:ustring.o
 0001:00005fc0       _ZN6System9to_stringERNS_13UnicodeStringEc 0000000140006fc0     rtle:ustring.o
 0001:00006090       _ZN6System9to_stringERNS_13UnicodeStringEa 0000000140007090     rtle:ustring.o
 0001:00006120       _ZN6System9to_stringERNS_13UnicodeStringEh 0000000140007120     rtle:ustring.o
 0001:000061b0       _ZN6System9to_stringERNS_13UnicodeStringEs 00000001400071b0     rtle:ustring.o
 0001:00006240       _ZN6System9to_stringERNS_13UnicodeStringEt 0000000140007240     rtle:ustring.o
 0001:000062d0       _ZN6System9to_stringERNS_13UnicodeStringEi 00000001400072d0     rtle:ustring.o
 0001:00006360       _ZN6System9to_stringERNS_13UnicodeStringEj 0000000140007360     rtle:ustring.o
 0001:000063f0       _ZN6System9to_stringERNS_13UnicodeStringEl 00000001400073f0     rtle:ustring.o
 0001:00006480       _ZN6System9to_stringERNS_13UnicodeStringEm 0000000140007480     rtle:ustring.o
 0001:00006510       _ZN6System9to_stringERNS_13UnicodeStringEw 0000000140007510     rtle:ustring.o
 0001:000065a0       _ZN6System9to_stringERNS_13UnicodeStringEx 00000001400075a0     rtle:ustring.o
 0001:00006630       _ZN6System9to_stringERNS_13UnicodeStringEy 0000000140007630     rtle:ustring.o
 0001:000066c0       _ZN6System9to_stringERNS_13UnicodeStringEf 00000001400076c0     rtle:ustring.o
 0001:00006750       _ZN6System9to_stringERNS_13UnicodeStringEfRKNS_8Sysutils15TFormatSettingsE 0000000140007750     rtle:ustring.o
 0001:00006800       _ZN6System9to_stringERNS_13UnicodeStringEd 0000000140007800     rtle:ustring.o
 0001:00006890       _ZN6System9to_stringERNS_13UnicodeStringEdRKNS_8Sysutils15TFormatSettingsE 0000000140007890     rtle:ustring.o
 0001:00006930       _ZN6System9to_stringERNS_13UnicodeStringEe 0000000140007930     rtle:ustring.o
 0001:000069c0       _ZN6System9to_stringERNS_13UnicodeStringEeRKNS_8Sysutils15TFormatSettingsE 00000001400079c0     rtle:ustring.o
 0001:00006a60       _ZN6System11from_stringERKNS_13UnicodeStringERb 0000000140007a60     rtle:ustring.o
 0001:00006a90       _ZN6System11from_stringERKNS_13UnicodeStringERe 0000000140007a90     rtle:ustring.o
 0001:00006ac0       _ZN6System11from_stringERKNS_13UnicodeStringERKNS_8Sysutils15TFormatSettingsERe 0000000140007ac0     rtle:ustring.o
 0001:00006b00       _ZN6System11from_stringERKNS_13UnicodeStringERi 0000000140007b00     rtle:ustring.o
 0001:00006b30       _ZN6System11from_stringERKNS_13UnicodeStringERx 0000000140007b30     rtle:ustring.o
 0001:00006b60       _ZN6System11from_stringERKNS_13UnicodeStringERj 0000000140007b60     rtle:ustring.o
 0001:00006b90       _ZN6System11from_stringERKNS_13UnicodeStringERy 0000000140007b90     rtle:ustring.o
 0001:00006c00       _ZN6System8Sysutils11ERangeErrorC3ENS_13UnicodeStringE 0000000140007c00     rtle:ustring.o
 0001:00006ce0       _ZN6System8Sysutils11ERangeErrorD0Ev 0000000140007ce0     rtle:ustring.o
 0001:00006d30       _ZN6System11WideCharLenIwEEiPKT_ 0000000140007d30     rtle:ustring.o
 0001:00006d90       _ZN6System11WideCharLenIDsEEiPKT_ 0000000140007d90     rtle:ustring.o
 0001:00006df0       _ZN6System11AnsiStringTILt0EEC2EPKci 0000000140007df0     rtle:ustring.o
 0001:00006e50       _ZN6System11AnsiStringTILt0EED2Ev 0000000140007e50     rtle:ustring.o
 0001:00006f40       _ZN6System11AnsiStringTILt0EEC2Ev 0000000140007f40     rtle:ustring.o
 0001:00006f70       _ZN6System13UnicodeStringC2ILt0EEERKNS_11AnsiStringTIXT_EEE 0000000140007f70     rtle:ustring.o
 0001:00006fa0       _ZN6System8Sysutils9EIntErrorC3ENS_13UnicodeStringE 0000000140007fa0     rtle:ustring.o
 0001:00007080       _ZN6System8Sysutils9EExternalC3ENS_13UnicodeStringE 0000000140008080     rtle:ustring.o
 0001:00007160       _ZN6System8Sysutils9EIntErrorD0Ev 0000000140008160     rtle:ustring.o
 0001:000071b0       _ZN6System8Sysutils9EExternalD0Ev 00000001400081b0     rtle:ustring.o
 0001:00007200       _ZN6System11AnsiStringTILt0EEC2ERKS1_ 0000000140008200     rtle:ustring.o
 0001:00007230       _ZN6System14AnsiStringBaseC2Ev 0000000140008230     rtle:ustring.o
 0001:00007250       __ClassCreate              0000000140008250     rtle:classcre64.o
 0001:0000725b       __ClassDestroy             000000014000825b     rtle:classcre64.o
 0001:00007261       __AfterConstruction        0000000140008261     rtle:classcre64.o
 0001:0000726a       __BeforeDestruction        000000014000826a     rtle:classcre64.o
 0001:0000727c       __currMul__                000000014000827c     rtle:classcre64.o
 0001:000072a0       fprintf                    00000001400082a0     libucrt:lib64_libucrt_extra_a-ucrt_fprintf.o
 0001:00007300       ___w64_mingwthr_add_key_dtor 0000000140008300     libmingw32:lib64_libmingw32_a-tlsthrd.o
 0001:000073c0       ___w64_mingwthr_remove_key_dtor 00000001400083c0     libmingw32:lib64_libmingw32_a-tlsthrd.o
 0001:000074a0       __mingw_TLScallback        00000001400084a0     libmingw32:lib64_libmingw32_a-tlsthrd.o
 0001:00007660       _ValidateImageBase         0000000140008660     libmingw32:lib64_libmingw32_a-pesect.o
 0001:00007710       _FindPESection             0000000140008710     libmingw32:lib64_libmingw32_a-pesect.o
 0001:000077f0       _FindPESectionByName       00000001400087f0     libmingw32:lib64_libmingw32_a-pesect.o
 0001:00007900       __mingw_GetSectionForAddress 0000000140008900     libmingw32:lib64_libmingw32_a-pesect.o
 0001:00007970       __mingw_GetSectionCount    0000000140008970     libmingw32:lib64_libmingw32_a-pesect.o
 0001:000079d0       _FindPESectionExec         00000001400089d0     libmingw32:lib64_libmingw32_a-pesect.o
 0001:00007ad0       _GetPEImageBase            0000000140008ad0     libmingw32:lib64_libmingw32_a-pesect.o
 0001:00007b20       _IsNonwritableInCurrentImage 0000000140008b20     libmingw32:lib64_libmingw32_a-pesect.o
 0001:00007bc0       __mingw_enum_import_library_names 0000000140008bc0     libmingw32:lib64_libmingw32_a-pesect.o
 0001:00007d0c       ___chkstk_ms               0000000140008d0c     libclang_rt.builtins-x86_64:chkstk.S.obj
 0001:00007d40       vfprintf                   0000000140008d40     libucrt:lib64_libucrt_extra_a-ucrt_vfprintf.o
 0001:00007d80       _ZN6System18LoadResourceStringEPKNS_13TResStringRecE 0000000140008d80     rtle:syssupp.o
 0001:00007db0       _ZN6System19CheckSafecallResultEl 0000000140008db0     rtle:syssupp.o
 0001:00007dd0       _ZN6System16InterLockedExchgEPPvS0_ 0000000140008dd0     rtle:syssupp.o
 0001:00007e00       .weak._ZN6System17TAggregatedObject13GetControllerEv.default._ZN6System18LoadResourceStringEPKNS_13TResStringRecE 0000000140008e00     rtle:syssupp.o
 0001:00007e00       .weak._ZN6System17TAggregatedObject13GetControllerEv.default._ZN6System18LoadResourceStringEPKNS_13TResStringRecE 0000000140008e00     rtle:syssupp.o
 0001:00007ec0       __dynamic_delphi_cast      0000000140008ec0     rtle:syssupp.o
 0001:00007fb0       __delphi_type_info         0000000140008fb0     rtle:syssupp.o
 0001:000084c0       __dynamic_delphi_type_info 00000001400094c0     rtle:syssupp.o
 0001:00008510       System_InstWeakClear       0000000140009510     rtle:syssupp.o
 0001:00008520       System_InstWeakCopy        0000000140009520     rtle:syssupp.o
 0001:00008540       System_AsgClosureObj       0000000140009540     rtle:syssupp.o
 0001:00008560       System_ClosureAddWeakRef   0000000140009560     rtle:syssupp.o
 0001:00008570       System_ClosureRemoveWeakRef 0000000140009570     rtle:syssupp.o
 0001:00008580       System_CopyClosure         0000000140009580     rtle:syssupp.o
 0001:000085a0       bcp_storeStrong            00000001400095a0     rtle:syssupp.o
 0001:000086a0       bcp_initStrong             00000001400096a0     rtle:syssupp.o
 0001:00008790       bcp_addref                 0000000140009790     rtle:syssupp.o
 0001:00008810       bcp_release                0000000140009810     rtle:syssupp.o
 0001:000088e0       bcp_initWeak               00000001400098e0     rtle:syssupp.o
 0001:000089d0       bcp_releaseWeak            00000001400099d0     rtle:syssupp.o
 0001:00008a90       bcp_storeWeak              0000000140009a90     rtle:syssupp.o
 0001:00008b70       bcp_closureAddref          0000000140009b70     rtle:syssupp.o
 0001:00008b90       bcp_closureRelease         0000000140009b90     rtle:syssupp.o
 0001:00008bb0       bcp_closureCopy            0000000140009bb0     rtle:syssupp.o
 0001:00008be0       bcp_closureAsg             0000000140009be0     rtle:syssupp.o
 0001:00008c10       _Z17DebugHlpr_HRCHECKIKcEllPT_S2_i 0000000140009c10     rtle:syssupp.o
 0001:00008ca0       _ZN6System15DelphiInterfaceINS_10IInterfaceEEadEv 0000000140009ca0     rtle:syssupp.o
 0001:00008cb0       _ZN6System15DelphiInterfaceINS_10IInterfaceEED2Ev 0000000140009cb0     rtle:syssupp.o
 0001:00008d00       _ZNSt3__110lock_guardINS_5mutexEEC2B6v15007ERS1_ 0000000140009d00     rtle:syssupp.o
 0001:00008d30       _ZNSt3__113unordered_mapIPN6System7Typinfo9TTypeInfoEPSt9type_infoNS_4hashIS4_EENS_8equal_toIS4_EENS_9allocatorINS_4pairIKS4_S6_EEEEEC2B6v15007Ev 0000000140009d30     rtle:syssupp.o
 0001:00008d70       _ZNSt3__113unordered_mapIPN6System7Typinfo9TTypeInfoEPSt9type_infoNS_4hashIS4_EENS_8equal_toIS4_EENS_9allocatorINS_4pairIKS4_S6_EEEEED2B6v15007Ev 0000000140009d70     rtle:syssupp.o
 0001:00008d90       _ZNSt3__113unordered_mapIPN6System7Typinfo9TTypeInfoEPSt9type_infoNS_4hashIS4_EENS_8equal_toIS4_EENS_9allocatorINS_4pairIKS4_S6_EEEEEixERSD_ 0000000140009d90     rtle:syssupp.o
 0001:00008e20       _ZN6System11AnsiStringTILt65001EEC2ERKNS_13UnicodeStringE 0000000140009e20     rtle:syssupp.o
 0001:00008e70       _ZNK6System11AnsiStringTILt65001EEplERKS1_ 0000000140009e70     rtle:syssupp.o
 0001:00008f10       _ZN6System11AnsiStringTILt65001EEC2EPKc 0000000140009f10     rtle:syssupp.o
 0001:00008f60       _ZN6System11AnsiStringTILt65001EEC2Ev 0000000140009f60     rtle:syssupp.o
 0001:00008f90       _ZN6System11AnsiStringTILt65001EEaSERKS1_ 0000000140009f90     rtle:syssupp.o
 0001:00008fc0       _ZN6System11AnsiStringTILt65001EED2Ev 0000000140009fc0     rtle:syssupp.o
 0001:00008fe0       _ZN10__cxxabiv117__class_type_infoC2Ev 0000000140009fe0     rtle:syssupp.o
 0001:00009010       _ZNK6System11AnsiStringTILt65001EE5c_strEv 000000014000a010     rtle:syssupp.o
 0001:00009060       _ZNSt3__110lock_guardINS_5mutexEED2B6v15007Ev 000000014000a060     rtle:syssupp.o
 0001:00009080       _ZN10__cxxabiv116__shim_type_infoC2Ev 000000014000a080     rtle:syssupp.o
 0001:000090b0       _ZNSt3__112__hash_tableINS_17__hash_value_typeIPN6System7Typinfo9TTypeInfoEPSt9type_infoEENS_22__unordered_map_hasherIS5_S8_NS_4hashIS5_EENS_8equal_toIS5_EELb1EEENS_21__unordered_map_equalIS5_S8_SD_SB_Lb1EEENS_9allocatorIS8_EEEC2Ev 000000014000a0b0     rtle:syssupp.o
 0001:00009140       _ZNSt3__119__debug_db_insert_cB6v15007INS_13unordered_mapIPN6System7Typinfo9TTypeInfoEPSt9type_infoNS_4hashIS5_EENS_8equal_toIS5_EENS_9allocatorINS_4pairIKS5_S7_EEEEEEEEvPT_ 000000014000a140     rtle:syssupp.o
 0001:00009150       _ZNSt3__110unique_ptrIA_PNS_16__hash_node_baseIPNS_11__hash_nodeINS_17__hash_value_typeIPN6System7Typinfo9TTypeInfoEPSt9type_infoEEPvEEEENS_25__bucket_list_deallocatorINS_9allocatorISF_EEEEEC2B6v15007ILb1EvEEv 000000014000a150     rtle:syssupp.o
 0001:00009180       _ZNSt3__117__compressed_pairINS_16__hash_node_baseIPNS_11__hash_nodeINS_17__hash_value_typeIPN6System7Typinfo9TTypeInfoEPSt9type_infoEEPvEEEENS_9allocatorISC_EEEC2B6v15007ILb1EvEEv 000000014000a180     rtle:syssupp.o
 0001:000091b0       _ZNSt3__117__compressed_pairIyNS_22__unordered_map_hasherIPN6System7Typinfo9TTypeInfoENS_17__hash_value_typeIS5_PSt9type_infoEENS_4hashIS5_EENS_8equal_toIS5_EELb1EEEEC2B6v15007IiNS_18__default_init_tagEEEOT_OT0_ 000000014000a1b0     rtle:syssupp.o
 0001:000091f0       _ZNSt3__117__compressed_pairIfNS_21__unordered_map_equalIPN6System7Typinfo9TTypeInfoENS_17__hash_value_typeIS5_PSt9type_infoEENS_8equal_toIS5_EENS_4hashIS5_EELb1EEEEC2B6v15007IfNS_18__default_init_tagEEEOT_OT0_ 000000014000a1f0     rtle:syssupp.o
 0001:00009230       _ZNSt3__117__compressed_pairIPPNS_16__hash_node_baseIPNS_11__hash_nodeINS_17__hash_value_typeIPN6System7Typinfo9TTypeInfoEPSt9type_infoEEPvEEEENS_25__bucket_list_deallocatorINS_9allocatorISF_EEEEEC2B6v15007INS_16__value_init_tagESN_EEOT_OT0_ 000000014000a230     rtle:syssupp.o
 0001:00009270       _ZNSt3__122__compressed_pair_elemIPPNS_16__hash_node_baseIPNS_11__hash_nodeINS_17__hash_value_typeIPN6System7Typinfo9TTypeInfoEPSt9type_infoEEPvEEEELi0ELb0EEC2B6v15007ENS_16__value_init_tagE 000000014000a270     rtle:syssupp.o
 0001:00009290       _ZNSt3__122__compressed_pair_elemINS_25__bucket_list_deallocatorINS_9allocatorIPNS_16__hash_node_baseIPNS_11__hash_nodeINS_17__hash_value_typeIPN6System7Typinfo9TTypeInfoEPSt9type_infoEEPvEEEEEEEELi1ELb0EEC2B6v15007ENS_16__value_init_tagE 000000014000a290     rtle:syssupp.o
 0001:000092b0       _ZNSt3__125__bucket_list_deallocatorINS_9allocatorIPNS_16__hash_node_baseIPNS_11__hash_nodeINS_17__hash_value_typeIPN6System7Typinfo9TTypeInfoEPSt9type_infoEEPvEEEEEEEC2B6v15007Ev 000000014000a2b0     rtle:syssupp.o
 0001:000092f0       _ZNSt3__117__compressed_pairIyNS_9allocatorIPNS_16__hash_node_baseIPNS_11__hash_nodeINS_17__hash_value_typeIPN6System7Typinfo9TTypeInfoEPSt9type_infoEEPvEEEEEEEC2B6v15007IiNS_18__default_init_tagEEEOT_OT0_ 000000014000a2f0     rtle:syssupp.o
 0001:00009330       _ZNSt3__122__compressed_pair_elemIyLi0ELb0EEC2B6v15007IivEEOT_ 000000014000a330     rtle:syssupp.o
 0001:00009360       _ZNSt3__122__compressed_pair_elemINS_9allocatorIPNS_16__hash_node_baseIPNS_11__hash_nodeINS_17__hash_value_typeIPN6System7Typinfo9TTypeInfoEPSt9type_infoEEPvEEEEEELi1ELb1EEC2B6v15007ENS_18__default_init_tagE 000000014000a360     rtle:syssupp.o
 0001:00009380       _ZNSt3__19allocatorIPNS_16__hash_node_baseIPNS_11__hash_nodeINS_17__hash_value_typeIPN6System7Typinfo9TTypeInfoEPSt9type_infoEEPvEEEEEC2B6v15007Ev 000000014000a380     rtle:syssupp.o
 0001:000093a0       _ZNSt3__116__non_trivial_ifILb1ENS_9allocatorIPNS_16__hash_node_baseIPNS_11__hash_nodeINS_17__hash_value_typeIPN6System7Typinfo9TTypeInfoEPSt9type_infoEEPvEEEEEEEC2B6v15007Ev 000000014000a3a0     rtle:syssupp.o
 0001:000093b0       _ZNSt3__122__compressed_pair_elemINS_16__hash_node_baseIPNS_11__hash_nodeINS_17__hash_value_typeIPN6System7Typinfo9TTypeInfoEPSt9type_infoEEPvEEEELi0ELb0EEC2B6v15007ENS_16__value_init_tagE 000000014000a3b0     rtle:syssupp.o
 0001:000093d0       _ZNSt3__122__compressed_pair_elemINS_9allocatorINS_11__hash_nodeINS_17__hash_value_typeIPN6System7Typinfo9TTypeInfoEPSt9type_infoEEPvEEEELi1ELb1EEC2B6v15007ENS_16__value_init_tagE 000000014000a3d0     rtle:syssupp.o
 0001:000093f0       _ZNSt3__116__hash_node_baseIPNS_11__hash_nodeINS_17__hash_value_typeIPN6System7Typinfo9TTypeInfoEPSt9type_infoEEPvEEEC2B6v15007Ev 000000014000a3f0     rtle:syssupp.o
 0001:00009410       _ZNSt3__19allocatorINS_11__hash_nodeINS_17__hash_value_typeIPN6System7Typinfo9TTypeInfoEPSt9type_infoEEPvEEEC2B6v15007Ev 000000014000a410     rtle:syssupp.o
 0001:00009430       _ZNSt3__116__non_trivial_ifILb1ENS_9allocatorINS_11__hash_nodeINS_17__hash_value_typeIPN6System7Typinfo9TTypeInfoEPSt9type_infoEEPvEEEEEC2B6v15007Ev 000000014000a430     rtle:syssupp.o
 0001:00009440       _ZNSt3__122__compressed_pair_elemINS_22__unordered_map_hasherIPN6System7Typinfo9TTypeInfoENS_17__hash_value_typeIS5_PSt9type_infoEENS_4hashIS5_EENS_8equal_toIS5_EELb1EEELi1ELb1EEC2B6v15007ENS_18__default_init_tagE 000000014000a440     rtle:syssupp.o
 0001:00009460       _ZNSt3__122__unordered_map_hasherIPN6System7Typinfo9TTypeInfoENS_17__hash_value_typeIS4_PSt9type_infoEENS_4hashIS4_EENS_8equal_toIS4_EELb1EEC2B6v15007Ev 000000014000a460     rtle:syssupp.o
 0001:00009470       _ZNSt3__122__compressed_pair_elemIfLi0ELb0EEC2B6v15007IfvEEOT_ 000000014000a470     rtle:syssupp.o
 0001:000094a0       _ZNSt3__122__compressed_pair_elemINS_21__unordered_map_equalIPN6System7Typinfo9TTypeInfoENS_17__hash_value_typeIS5_PSt9type_infoEENS_8equal_toIS5_EENS_4hashIS5_EELb1EEELi1ELb1EEC2B6v15007ENS_18__default_init_tagE 000000014000a4a0     rtle:syssupp.o
 0001:000094c0       _ZNSt3__121__unordered_map_equalIPN6System7Typinfo9TTypeInfoENS_17__hash_value_typeIS4_PSt9type_infoEENS_8equal_toIS4_EENS_4hashIS4_EELb1EEC2B6v15007Ev 000000014000a4c0     rtle:syssupp.o
 0001:000094d0       _ZNSt3__112__hash_tableINS_17__hash_value_typeIPN6System7Typinfo9TTypeInfoEPSt9type_infoEENS_22__unordered_map_hasherIS5_S8_NS_4hashIS5_EENS_8equal_toIS5_EELb1EEENS_21__unordered_map_equalIS5_S8_SD_SB_Lb1EEENS_9allocatorIS8_EEED2Ev 000000014000a4d0     rtle:syssupp.o
 0001:00009530       _ZNSt3__112__hash_tableINS_17__hash_value_typeIPN6System7Typinfo9TTypeInfoEPSt9type_infoEENS_22__unordered_map_hasherIS5_S8_NS_4hashIS5_EENS_8equal_toIS5_EELb1EEENS_21__unordered_map_equalIS5_S8_SD_SB_Lb1EEENS_9allocatorIS8_EEE17__deallocate_nodeEPNS_16__hash_node_baseIPNS_11__hash_nodeIS8_PvEEEE 000000014000a530     rtle:syssupp.o
 0001:000095e0       _ZNSt3__117__compressed_pairINS_16__hash_node_baseIPNS_11__hash_nodeINS_17__hash_value_typeIPN6System7Typinfo9TTypeInfoEPSt9type_infoEEPvEEEENS_9allocatorISC_EEE5firstB6v15007Ev 000000014000a5e0     rtle:syssupp.o
 0001:00009600       _ZNSt3__118__debug_db_erase_cB6v15007INS_12__hash_tableINS_17__hash_value_typeIPN6System7Typinfo9TTypeInfoEPSt9type_infoEENS_22__unordered_map_hasherIS6_S9_NS_4hashIS6_EENS_8equal_toIS6_EELb1EEENS_21__unordered_map_equalIS6_S9_SE_SC_Lb1EEENS_9allocatorIS9_EEEEEEvPT_ 000000014000a600     rtle:syssupp.o
 0001:00009610       _ZNSt3__110unique_ptrIA_PNS_16__hash_node_baseIPNS_11__hash_nodeINS_17__hash_value_typeIPN6System7Typinfo9TTypeInfoEPSt9type_infoEEPvEEEENS_25__bucket_list_deallocatorINS_9allocatorISF_EEEEED2B6v15007Ev 000000014000a610     rtle:syssupp.o
 0001:00009630       _ZNSt3__112__hash_tableINS_17__hash_value_typeIPN6System7Typinfo9TTypeInfoEPSt9type_infoEENS_22__unordered_map_hasherIS5_S8_NS_4hashIS5_EENS_8equal_toIS5_EELb1EEENS_21__unordered_map_equalIS5_S8_SD_SB_Lb1EEENS_9allocatorIS8_EEE12__node_allocB6v15007Ev 000000014000a630     rtle:syssupp.o
 0001:00009650       _ZNSt3__116__hash_node_baseIPNS_11__hash_nodeINS_17__hash_value_typeIPN6System7Typinfo9TTypeInfoEPSt9type_infoEEPvEEE8__upcastB6v15007Ev 000000014000a650     rtle:syssupp.o
 0001:00009670       _ZNSt3__116allocator_traitsINS_9allocatorINS_11__hash_nodeINS_17__hash_value_typeIPN6System7Typinfo9TTypeInfoEPSt9type_infoEEPvEEEEE7destroyB6v15007INS_4pairIKS7_S9_EEvvEEvRSD_PT_ 000000014000a670     rtle:syssupp.o
 0001:00009690       _ZNSt3__122__hash_key_value_typesINS_17__hash_value_typeIPN6System7Typinfo9TTypeInfoEPSt9type_infoEEE9__get_ptrB6v15007ERS8_ 000000014000a690     rtle:syssupp.o
 0001:000096b0       _ZNSt3__116allocator_traitsINS_9allocatorINS_11__hash_nodeINS_17__hash_value_typeIPN6System7Typinfo9TTypeInfoEPSt9type_infoEEPvEEEEE10deallocateB6v15007ERSD_PSC_y 000000014000a6b0     rtle:syssupp.o
 0001:000096e0       _ZNSt3__117__compressed_pairINS_16__hash_node_baseIPNS_11__hash_nodeINS_17__hash_value_typeIPN6System7Typinfo9TTypeInfoEPSt9type_infoEEPvEEEENS_9allocatorISC_EEE6secondB6v15007Ev 000000014000a6e0     rtle:syssupp.o
 0001:00009700       _ZNSt3__122__compressed_pair_elemINS_9allocatorINS_11__hash_nodeINS_17__hash_value_typeIPN6System7Typinfo9TTypeInfoEPSt9type_infoEEPvEEEELi1ELb1EE5__getB6v15007Ev 000000014000a700     rtle:syssupp.o
 0001:00009710       _ZNSt3__114pointer_traitsIPNS_16__hash_node_baseIPNS_11__hash_nodeINS_17__hash_value_typeIPN6System7Typinfo9TTypeInfoEPSt9type_infoEEPvEEEEE10pointer_toB6v15007ERSE_ 000000014000a710     rtle:syssupp.o
 0001:00009720       _ZNSt3__117__hash_value_typeIPN6System7Typinfo9TTypeInfoEPSt9type_infoE11__get_valueB6v15007Ev 000000014000a720     rtle:syssupp.o
 0001:00009740       _ZNSt3__17launderB6v15007INS_4pairIKPN6System7Typinfo9TTypeInfoEPSt9type_infoEEEEPT_SB_ 000000014000a740     rtle:syssupp.o
 0001:00009760       _ZNSt3__19__launderB6v15007INS_4pairIKPN6System7Typinfo9TTypeInfoEPSt9type_infoEEEEPT_SB_ 000000014000a760     rtle:syssupp.o
 0001:00009770       _ZNSt3__19allocatorINS_11__hash_nodeINS_17__hash_value_typeIPN6System7Typinfo9TTypeInfoEPSt9type_infoEEPvEEE10deallocateB6v15007EPSB_y 000000014000a770     rtle:syssupp.o
 0001:000097b0       _ZNSt3__119__libcpp_deallocateB6v15007EPvyy 000000014000a7b0     rtle:syssupp.o
 0001:00009820       _ZNSt3__124__is_overaligned_for_newB6v15007Ey 000000014000a820     rtle:syssupp.o
 0001:00009840       _ZNSt3__127__do_deallocate_handle_sizeB6v15007IJSt11align_val_tEEEvPvyDpT_ 000000014000a840     rtle:syssupp.o
 0001:00009870       _ZNSt3__127__do_deallocate_handle_sizeB6v15007IJEEEvPvyDpT_ 000000014000a870     rtle:syssupp.o
 0001:00009890       _ZNSt3__124__libcpp_operator_deleteB6v15007IJPvSt11align_val_tEEEvDpT_ 000000014000a890     rtle:syssupp.o
 0001:000098c0       _ZNSt3__124__libcpp_operator_deleteB6v15007IJPvEEEvDpT_ 000000014000a8c0     rtle:syssupp.o
 0001:000098e0       _ZNSt3__122__compressed_pair_elemINS_16__hash_node_baseIPNS_11__hash_nodeINS_17__hash_value_typeIPN6System7Typinfo9TTypeInfoEPSt9type_infoEEPvEEEELi0ELb0EE5__getB6v15007Ev 000000014000a8e0     rtle:syssupp.o
 0001:000098f0       _ZNSt3__110unique_ptrIA_PNS_16__hash_node_baseIPNS_11__hash_nodeINS_17__hash_value_typeIPN6System7Typinfo9TTypeInfoEPSt9type_infoEEPvEEEENS_25__bucket_list_deallocatorINS_9allocatorISF_EEEEE5resetB6v15007EDn 000000014000a8f0     rtle:syssupp.o
 0001:00009950       _ZNSt3__117__compressed_pairIPPNS_16__hash_node_baseIPNS_11__hash_nodeINS_17__hash_value_typeIPN6System7Typinfo9TTypeInfoEPSt9type_infoEEPvEEEENS_25__bucket_list_deallocatorINS_9allocatorISF_EEEEE5firstB6v15007Ev 000000014000a950     rtle:syssupp.o
 0001:00009970       _ZNSt3__117__compressed_pairIPPNS_16__hash_node_baseIPNS_11__hash_nodeINS_17__hash_value_typeIPN6System7Typinfo9TTypeInfoEPSt9type_infoEEPvEEEENS_25__bucket_list_deallocatorINS_9allocatorISF_EEEEE6secondB6v15007Ev 000000014000a970     rtle:syssupp.o
 0001:00009990       _ZNSt3__125__bucket_list_deallocatorINS_9allocatorIPNS_16__hash_node_baseIPNS_11__hash_nodeINS_17__hash_value_typeIPN6System7Typinfo9TTypeInfoEPSt9type_infoEEPvEEEEEEEclB6v15007EPSG_ 000000014000a990     rtle:syssupp.o
 0001:000099e0       _ZNSt3__122__compressed_pair_elemIPPNS_16__hash_node_baseIPNS_11__hash_nodeINS_17__hash_value_typeIPN6System7Typinfo9TTypeInfoEPSt9type_infoEEPvEEEELi0ELb0EE5__getB6v15007Ev 000000014000a9e0     rtle:syssupp.o
 0001:000099f0       _ZNSt3__122__compressed_pair_elemINS_25__bucket_list_deallocatorINS_9allocatorIPNS_16__hash_node_baseIPNS_11__hash_nodeINS_17__hash_value_typeIPN6System7Typinfo9TTypeInfoEPSt9type_infoEEPvEEEEEEEELi1ELb0EE5__getB6v15007Ev 000000014000a9f0     rtle:syssupp.o
 0001:00009a00       _ZNSt3__116allocator_traitsINS_9allocatorIPNS_16__hash_node_baseIPNS_11__hash_nodeINS_17__hash_value_typeIPN6System7Typinfo9TTypeInfoEPSt9type_infoEEPvEEEEEEE10deallocateB6v15007ERSH_PSG_y 000000014000aa00     rtle:syssupp.o
 0001:00009a30       _ZNSt3__125__bucket_list_deallocatorINS_9allocatorIPNS_16__hash_node_baseIPNS_11__hash_nodeINS_17__hash_value_typeIPN6System7Typinfo9TTypeInfoEPSt9type_infoEEPvEEEEEEE7__allocB6v15007Ev 000000014000aa30     rtle:syssupp.o
 0001:00009a50       _ZNSt3__125__bucket_list_deallocatorINS_9allocatorIPNS_16__hash_node_baseIPNS_11__hash_nodeINS_17__hash_value_typeIPN6System7Typinfo9TTypeInfoEPSt9type_infoEEPvEEEEEEE4sizeB6v15007Ev 000000014000aa50     rtle:syssupp.o
 0001:00009a70       _ZNSt3__19allocatorIPNS_16__hash_node_baseIPNS_11__hash_nodeINS_17__hash_value_typeIPN6System7Typinfo9TTypeInfoEPSt9type_infoEEPvEEEEE10deallocateB6v15007EPSF_y 000000014000aa70     rtle:syssupp.o
 0001:00009ab0       _ZNSt3__117__compressed_pairIyNS_9allocatorIPNS_16__hash_node_baseIPNS_11__hash_nodeINS_17__hash_value_typeIPN6System7Typinfo9TTypeInfoEPSt9type_infoEEPvEEEEEEE6secondB6v15007Ev 000000014000aab0     rtle:syssupp.o
 0001:00009ad0       _ZNSt3__122__compressed_pair_elemINS_9allocatorIPNS_16__hash_node_baseIPNS_11__hash_nodeINS_17__hash_value_typeIPN6System7Typinfo9TTypeInfoEPSt9type_infoEEPvEEEEEELi1ELb1EE5__getB6v15007Ev 000000014000aad0     rtle:syssupp.o
 0001:00009ae0       _ZNSt3__117__compressed_pairIyNS_9allocatorIPNS_16__hash_node_baseIPNS_11__hash_nodeINS_17__hash_value_typeIPN6System7Typinfo9TTypeInfoEPSt9type_infoEEPvEEEEEEE5firstB6v15007Ev 000000014000aae0     rtle:syssupp.o
 0001:00009b00       _ZNSt3__122__compressed_pair_elemIyLi0ELb0EE5__getB6v15007Ev 000000014000ab00     rtle:syssupp.o
 0001:00009b10       _ZNSt3__112__hash_tableINS_17__hash_value_typeIPN6System7Typinfo9TTypeInfoEPSt9type_infoEENS_22__unordered_map_hasherIS5_S8_NS_4hashIS5_EENS_8equal_toIS5_EELb1EEENS_21__unordered_map_equalIS5_S8_SD_SB_Lb1EEENS_9allocatorIS8_EEE25__emplace_unique_key_argsIS5_JRKNS_21piecewise_construct_tENS_5tupleIJRKS5_EEENSO_IJEEEEEENS_4pairINS_15__hash_iteratorIPNS_11__hash_nodeIS8_PvEEEEbEERKT_DpOT0_ 000000014000ab10     rtle:syssupp.o
 0001:0000a280       _ZNSt3__116forward_as_tupleB6v15007IJRKPN6System7Typinfo9TTypeInfoEEEENS_5tupleIJDpOT_EEESA_ 000000014000b280     rtle:syssupp.o
 0001:0000a2b0       _ZNSt3__116forward_as_tupleB6v15007IJEEENS_5tupleIJDpOT_EEES4_ 000000014000b2b0     rtle:syssupp.o
 0001:0000a2c0       _ZNKSt3__115__hash_iteratorIPNS_11__hash_nodeINS_17__hash_value_typeIPN6System7Typinfo9TTypeInfoEPSt9type_infoEEPvEEEptB6v15007Ev 000000014000b2c0     rtle:syssupp.o
 0001:0000a2f0       _ZNSt3__112__hash_tableINS_17__hash_value_typeIPN6System7Typinfo9TTypeInfoEPSt9type_infoEENS_22__unordered_map_hasherIS5_S8_NS_4hashIS5_EENS_8equal_toIS5_EELb1EEENS_21__unordered_map_equalIS5_S8_SD_SB_Lb1EEENS_9allocatorIS8_EEE13hash_functionB6v15007Ev 000000014000b2f0     rtle:syssupp.o
 0001:0000a310       _ZNKSt3__122__unordered_map_hasherIPN6System7Typinfo9TTypeInfoENS_17__hash_value_typeIS4_PSt9type_infoEENS_4hashIS4_EENS_8equal_toIS4_EELb1EEclB6v15007ERKS4_ 000000014000b310     rtle:syssupp.o
 0001:0000a340       _ZNKSt3__112__hash_tableINS_17__hash_value_typeIPN6System7Typinfo9TTypeInfoEPSt9type_infoEENS_22__unordered_map_hasherIS5_S8_NS_4hashIS5_EENS_8equal_toIS5_EELb1EEENS_21__unordered_map_equalIS5_S8_SD_SB_Lb1EEENS_9allocatorIS8_EEE12bucket_countB6v15007Ev 000000014000b340     rtle:syssupp.o
 0001:0000a370       _ZNSt3__116__constrain_hashB6v15007Eyy 000000014000b370     rtle:syssupp.o
 0001:0000a400       _ZNKSt3__110unique_ptrIA_PNS_16__hash_node_baseIPNS_11__hash_nodeINS_17__hash_value_typeIPN6System7Typinfo9TTypeInfoEPSt9type_infoEEPvEEEENS_25__bucket_list_deallocatorINS_9allocatorISF_EEEEEixB6v15007Ey 000000014000b400     rtle:syssupp.o
 0001:0000a430       _ZNKSt3__116__hash_node_baseIPNS_11__hash_nodeINS_17__hash_value_typeIPN6System7Typinfo9TTypeInfoEPSt9type_infoEEPvEEE6__hashB6v15007Ev 000000014000b430     rtle:syssupp.o
 0001:0000a440       _ZNSt3__112__hash_tableINS_17__hash_value_typeIPN6System7Typinfo9TTypeInfoEPSt9type_infoEENS_22__unordered_map_hasherIS5_S8_NS_4hashIS5_EENS_8equal_toIS5_EELb1EEENS_21__unordered_map_equalIS5_S8_SD_SB_Lb1EEENS_9allocatorIS8_EEE6key_eqB6v15007Ev 000000014000b440     rtle:syssupp.o
 0001:0000a460       _ZNKSt3__121__unordered_map_equalIPN6System7Typinfo9TTypeInfoENS_17__hash_value_typeIS4_PSt9type_infoEENS_8equal_toIS4_EENS_4hashIS4_EELb1EEclB6v15007ERKS8_RKS4_ 000000014000b460     rtle:syssupp.o
 0001:0000a4b0       _ZNSt3__112__hash_tableINS_17__hash_value_typeIPN6System7Typinfo9TTypeInfoEPSt9type_infoEENS_22__unordered_map_hasherIS5_S8_NS_4hashIS5_EENS_8equal_toIS5_EELb1EEENS_21__unordered_map_equalIS5_S8_SD_SB_Lb1EEENS_9allocatorIS8_EEE21__construct_node_hashIRKNS_21piecewise_construct_tEJNS_5tupleIJRKS5_EEENSO_IJEEEEEENS_10unique_ptrINS_11__hash_nodeIS8_PvEENS_22__hash_node_destructorINSH_ISW_EEEEEEyOT_DpOT0_ 000000014000b4b0     rtle:syssupp.o
 0001:0000a660       _ZNSt3__112__hash_tableINS_17__hash_value_typeIPN6System7Typinfo9TTypeInfoEPSt9type_infoEENS_22__unordered_map_hasherIS5_S8_NS_4hashIS5_EENS_8equal_toIS5_EELb1EEENS_21__unordered_map_equalIS5_S8_SD_SB_Lb1EEENS_9allocatorIS8_EEE4sizeB6v15007Ev 000000014000b660     rtle:syssupp.o
 0001:0000a680       _ZNSt3__112__hash_tableINS_17__hash_value_typeIPN6System7Typinfo9TTypeInfoEPSt9type_infoEENS_22__unordered_map_hasherIS5_S8_NS_4hashIS5_EENS_8equal_toIS5_EELb1EEENS_21__unordered_map_equalIS5_S8_SD_SB_Lb1EEENS_9allocatorIS8_EEE15max_load_factorB6v15007Ev 000000014000b680     rtle:syssupp.o
 0001:0000a6a0       _ZNSt3__112__hash_tableINS_17__hash_value_typeIPN6System7Typinfo9TTypeInfoEPSt9type_infoEENS_22__unordered_map_hasherIS5_S8_NS_4hashIS5_EENS_8equal_toIS5_EELb1EEENS_21__unordered_map_equalIS5_S8_SD_SB_Lb1EEENS_9allocatorIS8_EEE15__rehash_uniqueB6v15007Ey 000000014000b6a0     rtle:syssupp.o
 0001:0000a6d0       _ZNSt3__13maxB6v15007IyEERKT_S3_S3_ 000000014000b6d0     rtle:syssupp.o
 0001:0000a700       _ZNSt3__116__is_hash_power2B6v15007Ey 000000014000b700     rtle:syssupp.o
 0001:0000a750       _Z4ceilB6v15007f           000000014000b750     rtle:syssupp.o
 0001:0000a770       _ZNSt3__116__hash_node_baseIPNS_11__hash_nodeINS_17__hash_value_typeIPN6System7Typinfo9TTypeInfoEPSt9type_infoEEPvEEE5__ptrB6v15007Ev 000000014000b770     rtle:syssupp.o
 0001:0000a790       _ZNKSt3__110unique_ptrINS_11__hash_nodeINS_17__hash_value_typeIPN6System7Typinfo9TTypeInfoEPSt9type_infoEEPvEENS_22__hash_node_destructorINS_9allocatorISB_EEEEEptB6v15007Ev 000000014000b790     rtle:syssupp.o
 0001:0000a7b0       _ZNKSt3__110unique_ptrINS_11__hash_nodeINS_17__hash_value_typeIPN6System7Typinfo9TTypeInfoEPSt9type_infoEEPvEENS_22__hash_node_destructorINS_9allocatorISB_EEEEE3getB6v15007Ev 000000014000b7b0     rtle:syssupp.o
 0001:0000a7d0       _ZNSt3__110unique_ptrINS_11__hash_nodeINS_17__hash_value_typeIPN6System7Typinfo9TTypeInfoEPSt9type_infoEEPvEENS_22__hash_node_destructorINS_9allocatorISB_EEEEE7releaseB6v15007Ev 000000014000b7d0     rtle:syssupp.o
 0001:0000a810       _ZNSt3__110unique_ptrINS_11__hash_nodeINS_17__hash_value_typeIPN6System7Typinfo9TTypeInfoEPSt9type_infoEEPvEENS_22__hash_node_destructorINS_9allocatorISB_EEEEED2B6v15007Ev 000000014000b810     rtle:syssupp.o
 0001:0000a830       _ZNSt3__115__hash_iteratorIPNS_11__hash_nodeINS_17__hash_value_typeIPN6System7Typinfo9TTypeInfoEPSt9type_infoEEPvEEEC2B6v15007EPNS_16__hash_node_baseISC_EEPKv 000000014000b830     rtle:syssupp.o
 0001:0000a860       _ZNSt3__14pairINS_15__hash_iteratorIPNS_11__hash_nodeINS_17__hash_value_typeIPN6System7Typinfo9TTypeInfoEPSt9type_infoEEPvEEEEbEC2B6v15007ISE_RbLSB_0EEEOT_OT0_ 000000014000b860     rtle:syssupp.o
 0001:0000a8a0       _ZNSt3__117__compressed_pairIyNS_22__unordered_map_hasherIPN6System7Typinfo9TTypeInfoENS_17__hash_value_typeIS5_PSt9type_infoEENS_4hashIS5_EENS_8equal_toIS5_EELb1EEEE6secondB6v15007Ev 000000014000b8a0     rtle:syssupp.o
 0001:0000a8c0       _ZNSt3__122__compressed_pair_elemINS_22__unordered_map_hasherIPN6System7Typinfo9TTypeInfoENS_17__hash_value_typeIS5_PSt9type_infoEENS_4hashIS5_EENS_8equal_toIS5_EELb1EEELi1ELb1EE5__getB6v15007Ev 000000014000b8c0     rtle:syssupp.o
 0001:0000a8d0       _ZNKSt3__14hashIPN6System7Typinfo9TTypeInfoEEclB6v15007ES4_ 000000014000b8d0     rtle:syssupp.o
 0001:0000a920       _ZNSt3__121__murmur2_or_cityhashIyLy64EEclEPKvy 000000014000b920     rtle:syssupp.o
 0001:0000ae30       _ZNSt3__121__murmur2_or_cityhashIyLy64EE18__hash_len_0_to_16EPKcy 000000014000be30     rtle:syssupp.o
 0001:0000afd0       _ZNSt3__121__murmur2_or_cityhashIyLy64EE19__hash_len_17_to_32EPKcy 000000014000bfd0     rtle:syssupp.o
 0001:0000b0e0       _ZNSt3__121__murmur2_or_cityhashIyLy64EE19__hash_len_33_to_64EPKcy 000000014000c0e0     rtle:syssupp.o
 0001:0000b420       _ZNSt3__110__loadwordB6v15007IyEET_PKv 000000014000c420     rtle:syssupp.o
 0001:0000b440       _ZNSt3__121__murmur2_or_cityhashIyLy64EE13__hash_len_16Eyy 000000014000c440     rtle:syssupp.o
 0001:0000b4e0       _ZNSt3__121__murmur2_or_cityhashIyLy64EE29__weak_hash_len_32_with_seedsEPKcyy 000000014000c4e0     rtle:syssupp.o
 0001:0000b590       _ZNSt3__121__murmur2_or_cityhashIyLy64EE8__rotateEyi 000000014000c590     rtle:syssupp.o
 0001:0000b5f0       _ZNSt3__14pairIyyEaSB6v15007EOS1_ 000000014000c5f0     rtle:syssupp.o
 0001:0000b620       _ZNSt3__14swapB6v15007IyEENS_9enable_ifIXaasr21is_move_constructibleIT_EE5valuesr18is_move_assignableIS2_EE5valueEvE4typeERS2_S5_ 000000014000c620     rtle:syssupp.o
 0001:0000b660       _ZNSt3__121__murmur2_or_cityhashIyLy64EE11__shift_mixEy 000000014000c660     rtle:syssupp.o
 0001:0000b680       _ZNSt3__121__murmur2_or_cityhashIyLy64EE22__rotate_by_at_least_1Eyi 000000014000c680     rtle:syssupp.o
 0001:0000b6c0       _ZNSt3__110__loadwordB6v15007IjEET_PKv 000000014000c6c0     rtle:syssupp.o
 0001:0000b6e0       _ZNSt3__121__murmur2_or_cityhashIyLy64EE29__weak_hash_len_32_with_seedsEyyyyyy 000000014000c6e0     rtle:syssupp.o
 0001:0000b800       _ZNSt3__14pairIyyEC2B6v15007IyyLPv0EEEOT_OT0_ 000000014000c800     rtle:syssupp.o
 0001:0000b840       _ZNKSt3__110unique_ptrIA_PNS_16__hash_node_baseIPNS_11__hash_nodeINS_17__hash_value_typeIPN6System7Typinfo9TTypeInfoEPSt9type_infoEEPvEEEENS_25__bucket_list_deallocatorINS_9allocatorISF_EEEEE11get_deleterB6v15007Ev 000000014000c840     rtle:syssupp.o
 0001:0000b860       _ZNKSt3__125__bucket_list_deallocatorINS_9allocatorIPNS_16__hash_node_baseIPNS_11__hash_nodeINS_17__hash_value_typeIPN6System7Typinfo9TTypeInfoEPSt9type_infoEEPvEEEEEEE4sizeB6v15007Ev 000000014000c860     rtle:syssupp.o
 0001:0000b880       _ZNKSt3__117__compressed_pairIPPNS_16__hash_node_baseIPNS_11__hash_nodeINS_17__hash_value_typeIPN6System7Typinfo9TTypeInfoEPSt9type_infoEEPvEEEENS_25__bucket_list_deallocatorINS_9allocatorISF_EEEEE6secondB6v15007Ev 000000014000c880     rtle:syssupp.o
 0001:0000b8a0       _ZNKSt3__122__compressed_pair_elemINS_25__bucket_list_deallocatorINS_9allocatorIPNS_16__hash_node_baseIPNS_11__hash_nodeINS_17__hash_value_typeIPN6System7Typinfo9TTypeInfoEPSt9type_infoEEPvEEEEEEEELi1ELb0EE5__getB6v15007Ev 000000014000c8a0     rtle:syssupp.o
 0001:0000b8b0       _ZNKSt3__117__compressed_pairIyNS_9allocatorIPNS_16__hash_node_baseIPNS_11__hash_nodeINS_17__hash_value_typeIPN6System7Typinfo9TTypeInfoEPSt9type_infoEEPvEEEEEEE5firstB6v15007Ev 000000014000c8b0     rtle:syssupp.o
 0001:0000b8d0       _ZNKSt3__122__compressed_pair_elemIyLi0ELb0EE5__getB6v15007Ev 000000014000c8d0     rtle:syssupp.o
 0001:0000b8e0       _ZNKSt3__117__compressed_pairIPPNS_16__hash_node_baseIPNS_11__hash_nodeINS_17__hash_value_typeIPN6System7Typinfo9TTypeInfoEPSt9type_infoEEPvEEEENS_25__bucket_list_deallocatorINS_9allocatorISF_EEEEE5firstB6v15007Ev 000000014000c8e0     rtle:syssupp.o
 0001:0000b900       _ZNKSt3__122__compressed_pair_elemIPPNS_16__hash_node_baseIPNS_11__hash_nodeINS_17__hash_value_typeIPN6System7Typinfo9TTypeInfoEPSt9type_infoEEPvEEEELi0ELb0EE5__getB6v15007Ev 000000014000c900     rtle:syssupp.o
 0001:0000b910       _ZNSt3__117__compressed_pairIfNS_21__unordered_map_equalIPN6System7Typinfo9TTypeInfoENS_17__hash_value_typeIS5_PSt9type_infoEENS_8equal_toIS5_EENS_4hashIS5_EELb1EEEE6secondB6v15007Ev 000000014000c910     rtle:syssupp.o
 0001:0000b930       _ZNSt3__122__compressed_pair_elemINS_21__unordered_map_equalIPN6System7Typinfo9TTypeInfoENS_17__hash_value_typeIS5_PSt9type_infoEENS_8equal_toIS5_EENS_4hashIS5_EELb1EEELi1ELb1EE5__getB6v15007Ev 000000014000c930     rtle:syssupp.o
 0001:0000b940       _ZNKSt3__18equal_toIPN6System7Typinfo9TTypeInfoEEclB6v15007ERKS4_S7_ 000000014000c940     rtle:syssupp.o
 0001:0000b970       _ZNKSt3__117__hash_value_typeIPN6System7Typinfo9TTypeInfoEPSt9type_infoE11__get_valueB6v15007Ev 000000014000c970     rtle:syssupp.o
 0001:0000b990       _ZNSt3__17launderB6v15007IKNS_4pairIKPN6System7Typinfo9TTypeInfoEPSt9type_infoEEEEPT_SC_ 000000014000c990     rtle:syssupp.o
 0001:0000b9b0       _ZNSt3__19__launderB6v15007IKNS_4pairIKPN6System7Typinfo9TTypeInfoEPSt9type_infoEEEEPT_SC_ 000000014000c9b0     rtle:syssupp.o
 0001:0000b9c0       _ZNSt3__116allocator_traitsINS_9allocatorINS_11__hash_nodeINS_17__hash_value_typeIPN6System7Typinfo9TTypeInfoEPSt9type_infoEEPvEEEEE8allocateB6v15007ERSD_y 000000014000c9c0     rtle:syssupp.o
 0001:0000b9f0       _ZNSt3__122__hash_node_destructorINS_9allocatorINS_11__hash_nodeINS_17__hash_value_typeIPN6System7Typinfo9TTypeInfoEPSt9type_infoEEPvEEEEEC2B6v15007ERSD_b 000000014000c9f0     rtle:syssupp.o
 0001:0000ba30       _ZNSt3__110unique_ptrINS_11__hash_nodeINS_17__hash_value_typeIPN6System7Typinfo9TTypeInfoEPSt9type_infoEEPvEENS_22__hash_node_destructorINS_9allocatorISB_EEEEEC2B6v15007ILb1EvEEPSB_NS_16__dependent_typeINS_27__unique_ptr_deleter_sfinaeISF_EEXT_EE20__good_rval_ref_typeE 000000014000ca30     rtle:syssupp.o
 0001:0000ba70       _ZNSt3__116allocator_traitsINS_9allocatorINS_11__hash_nodeINS_17__hash_value_typeIPN6System7Typinfo9TTypeInfoEPSt9type_infoEEPvEEEEE9constructB6v15007INS_4pairIKS7_S9_EEJRKNS_21piecewise_construct_tENS_5tupleIJRSH_EEENSM_IJEEEEvEEvRSD_PT_DpOT0_ 000000014000ca70     rtle:syssupp.o
 0001:0000bac0       _ZNSt3__110unique_ptrINS_11__hash_nodeINS_17__hash_value_typeIPN6System7Typinfo9TTypeInfoEPSt9type_infoEEPvEENS_22__hash_node_destructorINS_9allocatorISB_EEEEE11get_deleterB6v15007Ev 000000014000cac0     rtle:syssupp.o
 0001:0000bae0       _ZNSt3__19allocatorINS_11__hash_nodeINS_17__hash_value_typeIPN6System7Typinfo9TTypeInfoEPSt9type_infoEEPvEEE8allocateB6v15007Ey 000000014000cae0     rtle:syssupp.o
 0001:0000bb40       _ZNSt3__116allocator_traitsINS_9allocatorINS_11__hash_nodeINS_17__hash_value_typeIPN6System7Typinfo9TTypeInfoEPSt9type_infoEEPvEEEEE8max_sizeB6v15007ISD_vEEyRKSD_ 000000014000cb40     rtle:syssupp.o
 0001:0000bb60       _ZSt28__throw_bad_array_new_lengthB6v15007v 000000014000cb60     rtle:syssupp.o
 0001:0000bba0       _ZNSt3__117__libcpp_allocateB6v15007Eyy 000000014000cba0     rtle:syssupp.o
 0001:0000bc10       _ZNKSt3__19allocatorINS_11__hash_nodeINS_17__hash_value_typeIPN6System7Typinfo9TTypeInfoEPSt9type_infoEEPvEEE8max_sizeB6v15007Ev 000000014000cc10     rtle:syssupp.o
 0001:0000bc30       _ZNSt3__121__libcpp_operator_newB6v15007IJySt11align_val_tEEEPvDpT_ 000000014000cc30     rtle:syssupp.o
 0001:0000bc60       _ZNSt3__121__libcpp_operator_newB6v15007IJyEEEPvDpT_ 000000014000cc60     rtle:syssupp.o
 0001:0000bc80       _ZNSt3__117__compressed_pairIPNS_11__hash_nodeINS_17__hash_value_typeIPN6System7Typinfo9TTypeInfoEPSt9type_infoEEPvEENS_22__hash_node_destructorINS_9allocatorISB_EEEEEC2B6v15007IRSC_SG_EEOT_OT0_ 000000014000cc80     rtle:syssupp.o
 0001:0000bcc0       _ZNSt3__122__compressed_pair_elemIPNS_11__hash_nodeINS_17__hash_value_typeIPN6System7Typinfo9TTypeInfoEPSt9type_infoEEPvEELi0ELb0EEC2B6v15007IRSC_vEEOT_ 000000014000ccc0     rtle:syssupp.o
 0001:0000bcf0       _ZNSt3__122__compressed_pair_elemINS_22__hash_node_destructorINS_9allocatorINS_11__hash_nodeINS_17__hash_value_typeIPN6System7Typinfo9TTypeInfoEPSt9type_infoEEPvEEEEEELi1ELb0EEC2B6v15007ISF_vEEOT_ 000000014000ccf0     rtle:syssupp.o
 0001:0000bd20       _ZNSt3__19allocatorINS_11__hash_nodeINS_17__hash_value_typeIPN6System7Typinfo9TTypeInfoEPSt9type_infoEEPvEEE9constructB6v15007INS_4pairIKS6_S8_EEJRKNS_21piecewise_construct_tENS_5tupleIJRSF_EEENSK_IJEEEEEEvPT_DpOT0_ 000000014000cd20     rtle:syssupp.o
 0001:0000bd70       _ZNSt3__14pairIKPN6System7Typinfo9TTypeInfoEPSt9type_infoEC2B6v15007IJRS5_EJEEENS_21piecewise_construct_tENS_5tupleIJDpT_EEENSC_IJDpT0_EEE 000000014000cd70     rtle:syssupp.o
 0001:0000bdd0       _ZNSt3__14pairIKPN6System7Typinfo9TTypeInfoEPSt9type_infoEC2B6v15007IJRS5_EJEJLy0EEJEEENS_21piecewise_construct_tERNS_5tupleIJDpT_EEERNSC_IJDpT0_EEENS_15__tuple_indicesIJXspT1_EEEENSL_IJXspT2_EEEE 000000014000cdd0     rtle:syssupp.o
 0001:0000be30       _ZNSt3__13getB6v15007ILy0EJRKPN6System7Typinfo9TTypeInfoEEEERNS_13tuple_elementIXT_ENS_5tupleIJDpT0_EEEE4typeERSB_ 000000014000ce30     rtle:syssupp.o
 0001:0000be50       _ZNSt3__112__tuple_leafILy0ERKPN6System7Typinfo9TTypeInfoELb0EE3getB6v15007Ev 000000014000ce50     rtle:syssupp.o
 0001:0000be60       _ZNSt3__117__compressed_pairIPNS_11__hash_nodeINS_17__hash_value_typeIPN6System7Typinfo9TTypeInfoEPSt9type_infoEEPvEENS_22__hash_node_destructorINS_9allocatorISB_EEEEE6secondB6v15007Ev 000000014000ce60     rtle:syssupp.o
 0001:0000be80       _ZNSt3__122__compressed_pair_elemINS_22__hash_node_destructorINS_9allocatorINS_11__hash_nodeINS_17__hash_value_typeIPN6System7Typinfo9TTypeInfoEPSt9type_infoEEPvEEEEEELi1ELb0EE5__getB6v15007Ev 000000014000ce80     rtle:syssupp.o
 0001:0000be90       _ZNSt3__117__compressed_pairIyNS_22__unordered_map_hasherIPN6System7Typinfo9TTypeInfoENS_17__hash_value_typeIS5_PSt9type_infoEENS_4hashIS5_EENS_8equal_toIS5_EELb1EEEE5firstB6v15007Ev 000000014000ce90     rtle:syssupp.o
 0001:0000beb0       _ZNSt3__117__compressed_pairIfNS_21__unordered_map_equalIPN6System7Typinfo9TTypeInfoENS_17__hash_value_typeIS5_PSt9type_infoEENS_8equal_toIS5_EENS_4hashIS5_EELb1EEEE5firstB6v15007Ev 000000014000ceb0     rtle:syssupp.o
 0001:0000bed0       _ZNSt3__122__compressed_pair_elemIfLi0ELb0EE5__getB6v15007Ev 000000014000ced0     rtle:syssupp.o
 0001:0000bee0       _ZNSt3__112__hash_tableINS_17__hash_value_typeIPN6System7Typinfo9TTypeInfoEPSt9type_infoEENS_22__unordered_map_hasherIS5_S8_NS_4hashIS5_EENS_8equal_toIS5_EELb1EEENS_21__unordered_map_equalIS5_S8_SD_SB_Lb1EEENS_9allocatorIS8_EEE8__rehashILb1EEEvy 000000014000cee0     rtle:syssupp.o
 0001:0000c140       _ZNSt3__112__hash_tableINS_17__hash_value_typeIPN6System7Typinfo9TTypeInfoEPSt9type_infoEENS_22__unordered_map_hasherIS5_S8_NS_4hashIS5_EENS_8equal_toIS5_EELb1EEENS_21__unordered_map_equalIS5_S8_SD_SB_Lb1EEENS_9allocatorIS8_EEE11__do_rehashILb1EEEvy 000000014000d140     rtle:syssupp.o
 0001:0000c410       _ZNSt3__116__next_hash_pow2B6v15007Ey 000000014000d410     rtle:syssupp.o
 0001:0000c470       _ZNSt3__125__debug_db_invalidate_allB6v15007INS_12__hash_tableINS_17__hash_value_typeIPN6System7Typinfo9TTypeInfoEPSt9type_infoEENS_22__unordered_map_hasherIS6_S9_NS_4hashIS6_EENS_8equal_toIS6_EELb1EEENS_21__unordered_map_equalIS6_S9_SE_SC_Lb1EEENS_9allocatorIS9_EEEEEEvPT_ 000000014000d470     rtle:syssupp.o
 0001:0000c480       _ZNSt3__110unique_ptrIA_PNS_16__hash_node_baseIPNS_11__hash_nodeINS_17__hash_value_typeIPN6System7Typinfo9TTypeInfoEPSt9type_infoEEPvEEEENS_25__bucket_list_deallocatorINS_9allocatorISF_EEEEE11get_deleterB6v15007Ev 000000014000d480     rtle:syssupp.o
 0001:0000c4a0       _ZNSt3__110unique_ptrIA_PNS_16__hash_node_baseIPNS_11__hash_nodeINS_17__hash_value_typeIPN6System7Typinfo9TTypeInfoEPSt9type_infoEEPvEEEENS_25__bucket_list_deallocatorINS_9allocatorISF_EEEEE5resetB6v15007IPSF_EENS_9enable_ifIXsr28_CheckArrayPointerConversionIT_EE5valueEvE4typeESP_ 000000014000d4a0     rtle:syssupp.o
 0001:0000c510       _ZNSt3__116allocator_traitsINS_9allocatorIPNS_16__hash_node_baseIPNS_11__hash_nodeINS_17__hash_value_typeIPN6System7Typinfo9TTypeInfoEPSt9type_infoEEPvEEEEEEE8allocateB6v15007ERSH_y 000000014000d510     rtle:syssupp.o
 0001:0000c540       _ZNSt3__19allocatorIPNS_16__hash_node_baseIPNS_11__hash_nodeINS_17__hash_value_typeIPN6System7Typinfo9TTypeInfoEPSt9type_infoEEPvEEEEE8allocateB6v15007Ey 000000014000d540     rtle:syssupp.o
 0001:0000c5a0       _ZNSt3__116allocator_traitsINS_9allocatorIPNS_16__hash_node_baseIPNS_11__hash_nodeINS_17__hash_value_typeIPN6System7Typinfo9TTypeInfoEPSt9type_infoEEPvEEEEEEE8max_sizeB6v15007ISH_vEEyRKSH_ 000000014000d5a0     rtle:syssupp.o
 0001:0000c5c0       _ZNKSt3__19allocatorIPNS_16__hash_node_baseIPNS_11__hash_nodeINS_17__hash_value_typeIPN6System7Typinfo9TTypeInfoEPSt9type_infoEEPvEEEEE8max_sizeB6v15007Ev 000000014000d5c0     rtle:syssupp.o
 0001:0000c5e0       _ZNSt3__112__libcpp_clzB6v15007Ey 000000014000d5e0     rtle:syssupp.o
 0001:0000c600       _ZNSt3__13maxB6v15007IyNS_6__lessIyyEEEERKT_S5_S5_T0_ 000000014000d600     rtle:syssupp.o
 0001:0000c660       _ZNKSt3__16__lessIyyEclB6v15007ERKyS3_ 000000014000d660     rtle:syssupp.o
 0001:0000c690       _ZNKSt3__117__compressed_pairIPNS_11__hash_nodeINS_17__hash_value_typeIPN6System7Typinfo9TTypeInfoEPSt9type_infoEEPvEENS_22__hash_node_destructorINS_9allocatorISB_EEEEE5firstB6v15007Ev 000000014000d690     rtle:syssupp.o
 0001:0000c6b0       _ZNKSt3__122__compressed_pair_elemIPNS_11__hash_nodeINS_17__hash_value_typeIPN6System7Typinfo9TTypeInfoEPSt9type_infoEEPvEELi0ELb0EE5__getB6v15007Ev 000000014000d6b0     rtle:syssupp.o
 0001:0000c6c0       _ZNSt3__117__compressed_pairIPNS_11__hash_nodeINS_17__hash_value_typeIPN6System7Typinfo9TTypeInfoEPSt9type_infoEEPvEENS_22__hash_node_destructorINS_9allocatorISB_EEEEE5firstB6v15007Ev 000000014000d6c0     rtle:syssupp.o
 0001:0000c6e0       _ZNSt3__122__compressed_pair_elemIPNS_11__hash_nodeINS_17__hash_value_typeIPN6System7Typinfo9TTypeInfoEPSt9type_infoEEPvEELi0ELb0EE5__getB6v15007Ev 000000014000d6e0     rtle:syssupp.o
 0001:0000c6f0       _ZNSt3__110unique_ptrINS_11__hash_nodeINS_17__hash_value_typeIPN6System7Typinfo9TTypeInfoEPSt9type_infoEEPvEENS_22__hash_node_destructorINS_9allocatorISB_EEEEE5resetB6v15007EPSB_ 000000014000d6f0     rtle:syssupp.o
 0001:0000c760       _ZNSt3__122__hash_node_destructorINS_9allocatorINS_11__hash_nodeINS_17__hash_value_typeIPN6System7Typinfo9TTypeInfoEPSt9type_infoEEPvEEEEEclB6v15007EPSC_ 000000014000d760     rtle:syssupp.o
 0001:0000c7f0       _ZNSt3__15tupleIJRKPN6System7Typinfo9TTypeInfoEEEC2B6v15007INS_4_AndELi0EEES6_ 000000014000d7f0     rtle:syssupp.o
 0001:0000c830       _ZNSt3__112__tuple_implINS_15__tuple_indicesIJLy0EEEEJRKPN6System7Typinfo9TTypeInfoEEEC2B6v15007IJLy0EEJS8_EJEJEJS8_EEENS1_IJXspT_EEEENS_13__tuple_typesIJDpT0_EEENS1_IJXspT1_EEEENSC_IJDpT2_EEEDpOT3_ 000000014000d830     rtle:syssupp.o
 0001:0000c870       _ZNSt3__112__tuple_leafILy0ERKPN6System7Typinfo9TTypeInfoELb0EEC2B6v15007IS6_vEEOT_ 000000014000d870     rtle:syssupp.o
 0001:0000c890       _ZNSt3__114pointer_traitsIPNS_17__hash_value_typeIPN6System7Typinfo9TTypeInfoEPSt9type_infoEEE10pointer_toB6v15007ERS8_ 000000014000d890     rtle:syssupp.o
 0001:0000c8a0       _ZN6System8Internal7Strhlpr15UnicodeFromAnsiERNS_13UnicodeStringERNS_11AnsiStringTILt65535EEE 000000014000d8a0     rtl:System.Internal.StrHlpr.o
 0001:0000c8c0       _ZN6System8Internal7Strhlpr16UnicodeFromPCharERNS_13UnicodeStringEPcb 000000014000d8c0     rtl:System.Internal.StrHlpr.o
 0001:0000c950       _ZN6System8Internal7Strhlpr15UnicodeFromUTF8ERNS_13UnicodeStringEPKc 000000014000d950     rtl:System.Internal.StrHlpr.o
 0001:0000c960       _ZN6System8Internal7Strhlpr20UnicodeFromPWideCharERNS_13UnicodeStringEPw 000000014000d960     rtl:System.Internal.StrHlpr.o
 0001:0000c980       _ZN6System8Internal7Strhlpr13UnicodeAppendERNS_13UnicodeStringES3_ 000000014000d980     rtl:System.Internal.StrHlpr.o
 0001:0000c9a0       _ZN6System8Internal7Strhlpr10UnicodeCatERNS_13UnicodeStringES3_ 000000014000d9a0     rtl:System.Internal.StrHlpr.o
 0001:0000c9c0       _ZN6System8Internal7Strhlpr13UnicodeDeleteERNS_13UnicodeStringEii 000000014000d9c0     rtl:System.Internal.StrHlpr.o
 0001:0000c9d0       _ZN6System8Internal7Strhlpr16UnicodeSetLengthERNS_13UnicodeStringEi 000000014000d9d0     rtl:System.Internal.StrHlpr.o
 0001:0000c9e0       _ZN6System8Internal7Strhlpr10UnicodePosERNS_13UnicodeStringES3_ 000000014000d9e0     rtl:System.Internal.StrHlpr.o
 0001:0000ca00       _ZN6System8Internal7Strhlpr11UnicodeCopyERNS_13UnicodeStringEii 000000014000da00     rtl:System.Internal.StrHlpr.o
 0001:0000ca20       _ZN6System8Internal7Strhlpr13UnicodeInsertERNS_13UnicodeStringES3_i 000000014000da20     rtl:System.Internal.StrHlpr.o
 0001:0000ca40       _ZN6System8Internal7Strhlpr13UnicodeAssignERNS_13UnicodeStringES3_ 000000014000da40     rtl:System.Internal.StrHlpr.o
 0001:0000ca60       _ZN6System8Internal7Strhlpr11UnicodeFreeERNS_13UnicodeStringE 000000014000da60     rtl:System.Internal.StrHlpr.o
 0001:0000ca70       _ZN6System8Internal7Strhlpr12UnicodeEqualERNS_13UnicodeStringES3_ 000000014000da70     rtl:System.Internal.StrHlpr.o
 0001:0000ca90       _ZN6System8Internal7Strhlpr11UnicodeLessERNS_13UnicodeStringES3_ 000000014000da90     rtl:System.Internal.StrHlpr.o
 0001:0000cab0       _ZN6System8Internal7Strhlpr14UnicodeGreaterERNS_13UnicodeStringES3_ 000000014000dab0     rtl:System.Internal.StrHlpr.o
 0001:0000cad0       _ZN6System8Internal7Strhlpr10AnsiAppendERNS_11AnsiStringTILt65535EEES4_ 000000014000dad0     rtl:System.Internal.StrHlpr.o
 0001:0000caf0       _ZN6System8Internal7Strhlpr7AnsiCatERNS_11AnsiStringTILt65535EEES4_ 000000014000daf0     rtl:System.Internal.StrHlpr.o
 0001:0000cb10       _ZN6System8Internal7Strhlpr10AnsiDeleteERNS_11AnsiStringTILt65535EEEii 000000014000db10     rtl:System.Internal.StrHlpr.o
 0001:0000cb20       _ZN6System8Internal7Strhlpr13AnsiSetLengthERNS_11AnsiStringTILt65535EEEi 000000014000db20     rtl:System.Internal.StrHlpr.o
 0001:0000cb40       _ZN6System8Internal7Strhlpr7AnsiPosERNS_11AnsiStringTILt65535EEES4_ 000000014000db40     rtl:System.Internal.StrHlpr.o
 0001:0000cb60       _ZN6System8Internal7Strhlpr8AnsiCopyERNS_11AnsiStringTILt65535EEEii 000000014000db60     rtl:System.Internal.StrHlpr.o
 0001:0000cb80       _ZN6System8Internal7Strhlpr10AnsiInsertERNS_11AnsiStringTILt65535EEES4_i 000000014000db80     rtl:System.Internal.StrHlpr.o
 0001:0000cba0       _ZN6System8Internal7Strhlpr9AnsiEqualERNS_11AnsiStringTILt65535EEES4_ 000000014000dba0     rtl:System.Internal.StrHlpr.o
 0001:0000cbc0       _ZN6System8Internal7Strhlpr11AnsiGreaterERNS_11AnsiStringTILt65535EEES4_ 000000014000dbc0     rtl:System.Internal.StrHlpr.o
 0001:0000cbe0       _ZN6System8Internal7Strhlpr8AnsiLessERNS_11AnsiStringTILt65535EEES4_ 000000014000dbe0     rtl:System.Internal.StrHlpr.o
 0001:0000cc00       _ZN6System8Internal7Strhlpr10AnsiAssignERNS_11AnsiStringTILt65535EEES4_ 000000014000dc00     rtl:System.Internal.StrHlpr.o
 0001:0000cc20       _ZN6System8Internal7Strhlpr8AnsiFreeERNS_11AnsiStringTILt65535EEE 000000014000dc20     rtl:System.Internal.StrHlpr.o
 0001:0000cc30       _ZN6System8Internal7Strhlpr10WideAssignERNS_10WideStringES3_ 000000014000dc30     rtl:System.Internal.StrHlpr.o
 0001:0000cc50       _ZN6System8Internal7Strhlpr8WideFreeERNS_10WideStringE 000000014000dc50     rtl:System.Internal.StrHlpr.o
 0001:0000cc60       _ZN6System8Internal7Strhlpr12WideFromAnsiERNS_10WideStringERNS_11AnsiStringTILt65535EEE 000000014000dc60     rtl:System.Internal.StrHlpr.o
 0001:0000cc80       _ZN6System8Internal7Strhlpr15WideFromUnicodeERNS_10WideStringERNS_13UnicodeStringE 000000014000dc80     rtl:System.Internal.StrHlpr.o
 0001:0000cca0       _ZN6System8Internal7Strhlpr13WideFromPCharERNS_10WideStringEPcb 000000014000dca0     rtl:System.Internal.StrHlpr.o
 0001:0000cd30       _ZN6System8Internal7Strhlpr9WideEqualERNS_10WideStringES3_ 000000014000dd30     rtl:System.Internal.StrHlpr.o
 0001:0000cd50       _ZN6System8Internal7Strhlpr8WideLessERNS_10WideStringES3_ 000000014000dd50     rtl:System.Internal.StrHlpr.o
 0001:0000cd70       _ZN6System8Internal7Strhlpr11WideGreaterERNS_10WideStringES3_ 000000014000dd70     rtl:System.Internal.StrHlpr.o
 0001:0000cd90       _ZN6System8Internal7Strhlpr7WideCatERNS_10WideStringES3_ 000000014000dd90     rtl:System.Internal.StrHlpr.o
 0001:0000cdb0       _ZN6System8Internal7Strhlpr10WideLengthERNS_10WideStringE 000000014000ddb0     rtl:System.Internal.StrHlpr.o
 0001:0000cdd0       _ZN6System8Internal7Strhlpr7WidePosERNS_10WideStringES3_ 000000014000ddd0     rtl:System.Internal.StrHlpr.o
 0001:0000cdf0       _ZN6System8Internal7Strhlpr13WideSetLengthERNS_10WideStringEi 000000014000ddf0     rtl:System.Internal.StrHlpr.o
 0001:0000ce00       _ZN6System8Internal7Strhlpr10WideDeleteERNS_10WideStringEii 000000014000de00     rtl:System.Internal.StrHlpr.o
 0001:0000ce10       _ZN6System8Internal7Strhlpr10WideInsertERNS_10WideStringES3_i 000000014000de10     rtl:System.Internal.StrHlpr.o
 0001:0000ce30       _ZN6System8Internal7Strhlpr8WideCopyERNS_10WideStringEii 000000014000de30     rtl:System.Internal.StrHlpr.o
 0001:0000ce50       _ZN6System8Internal7Strhlpr10WideAppendERNS_10WideStringES3_ 000000014000de50     rtl:System.Internal.StrHlpr.o
 0001:0000ce70       _ZN6System8Internal7Strhlpr12WideFromUTF8ERNS_10WideStringEPKc 000000014000de70     rtl:System.Internal.StrHlpr.o
 0001:0000cee0       _ZN6System8Internal7Strhlpr15UnicodeFromWideERNS_13UnicodeStringERNS_10WideStringE 000000014000dee0     rtl:System.Internal.StrHlpr.o
 0001:0000cf00       _ZN6System8Internal7Strhlpr12FinalizationEv 000000014000df00     rtl:System.Internal.StrHlpr.o
 0001:0000cf10       _ZN6System8Internal7Strhlpr14initializationEv 000000014000df10     rtl:System.Internal.StrHlpr.o
 0001:0000cf20       _ZNK6System14AnsiStringBase6GetRecEv 000000014000df20     rtle:dstring.o
 0001:0000cf40       _ZN6System14AnsiStringBase6GetRecEv 000000014000df40     rtle:dstring.o
 0001:0000cf60       _ZNK6System14AnsiStringBase6LengthEv 000000014000df60     rtle:dstring.o
 0001:0000cfb0       _ZNK6System14AnsiStringBase17ThrowIfOutOfRangeEi 000000014000dfb0     rtle:dstring.o
 0001:0000d090       _ZN6System14AnsiStringBaseC2EPKci 000000014000e090     rtle:dstring.o
 0001:0000d090       _ZN6System14AnsiStringBaseC1EPKci 000000014000e090     rtle:dstring.o
 0001:0000d110       _ZN6System14AnsiStringBaseC2ERKS0_ 000000014000e110     rtle:dstring.o
 0001:0000d110       _ZN6System14AnsiStringBaseC1ERKS0_ 000000014000e110     rtle:dstring.o
 0001:0000d190       _ZN6System14AnsiStringBaseC2ERKNS_10WideStringEi 000000014000e190     rtle:dstring.o
 0001:0000d190       _ZN6System14AnsiStringBaseC1ERKNS_10WideStringEi 000000014000e190     rtle:dstring.o
 0001:0000d210       _ZN6System14AnsiStringBaseC2ERKNS_13UnicodeStringEi 000000014000e210     rtle:dstring.o
 0001:0000d210       _ZN6System14AnsiStringBaseC1ERKNS_13UnicodeStringEi 000000014000e210     rtle:dstring.o
 0001:0000d290       _ZN6System14AnsiStringBaseC2EPKcii 000000014000e290     rtle:dstring.o
 0001:0000d290       _ZN6System14AnsiStringBaseC1EPKcii 000000014000e290     rtle:dstring.o
 0001:0000d310       _ZN6System14AnsiStringBase9SetLengthEii 000000014000e310     rtle:dstring.o
 0001:0000d380       _ZN6System14AnsiStringBase15_AnsiFromPWCharERS0_PKwii 000000014000e380     rtle:dstring.o
 0001:0000d400       _ZN6System14AnsiStringBaseC2EPKwii 000000014000e400     rtle:dstring.o
 0001:0000d400       _ZN6System14AnsiStringBaseC1EPKwii 000000014000e400     rtle:dstring.o
 0001:0000d470       _ZN6System14AnsiStringBaseC2EPKDsii 000000014000e470     rtle:dstring.o
 0001:0000d470       _ZN6System14AnsiStringBaseC1EPKDsii 000000014000e470     rtle:dstring.o
 0001:0000d4e0       _ZN6System14AnsiStringBaseC2EPKDiii 000000014000e4e0     rtle:dstring.o
 0001:0000d4e0       _ZN6System14AnsiStringBaseC1EPKDiii 000000014000e4e0     rtle:dstring.o
 0001:0000d5e0       _ZN6System14AnsiStringBaseaSERKS0_ 000000014000e5e0     rtle:dstring.o
 0001:0000d610       _ZN6System14AnsiStringBaseC2Ewi 000000014000e610     rtle:dstring.o
 0001:0000d610       _ZN6System14AnsiStringBaseC1Ewi 000000014000e610     rtle:dstring.o
 0001:0000d690       _ZN6System14AnsiStringBaseC2EDii 000000014000e690     rtle:dstring.o
 0001:0000d690       _ZN6System14AnsiStringBaseC1EDii 000000014000e690     rtle:dstring.o
 0001:0000d780       _ZN6System14AnsiStringBaseC2Edi 000000014000e780     rtle:dstring.o
 0001:0000d780       _ZN6System14AnsiStringBaseC1Edi 000000014000e780     rtle:dstring.o
 0001:0000d870       _ZN6System14AnsiStringBaseD2Ev 000000014000e870     rtle:dstring.o
 0001:0000d870       _ZN6System14AnsiStringBaseD1Ev 000000014000e870     rtle:dstring.o
 0001:0000d8a0       _ZN6System14AnsiStringBase8_AnsiCatERS0_RKS0_ 000000014000e8a0     rtle:dstring.o
 0001:0000d8d0       _ZN6System14AnsiStringBase8_AnsiCatERS0_RKS0_S3_ 000000014000e8d0     rtle:dstring.o
 0001:0000d910       _ZNK6System14AnsiStringBaseeqERKS0_ 000000014000e910     rtle:dstring.o
 0001:0000d940       _ZNK6System14AnsiStringBase11AnsiCompareERKS0_ 000000014000e940     rtle:dstring.o
 0001:0000d9c0       _ZNK6System14AnsiStringBaseneERKS0_ 000000014000e9c0     rtle:dstring.o
 0001:0000d9f0       _ZNK6System14AnsiStringBaseltERKS0_ 000000014000e9f0     rtle:dstring.o
 0001:0000da20       _ZNK6System14AnsiStringBasegtERKS0_ 000000014000ea20     rtle:dstring.o
 0001:0000da50       _ZNK6System14AnsiStringBase13AnsiCompareICERKS0_ 000000014000ea50     rtle:dstring.o
 0001:0000da80       _ZN6System14AnsiStringBase12StringOfCharEci 000000014000ea80     rtle:dstring.o
 0001:0000db30       _ZN6System14AnsiStringBase7LoadStrEii 000000014000eb30     rtle:dstring.o
 0001:0000dbe0       _ZN6System14AnsiStringBase7LoadStrEP11HINSTANCE__ii 000000014000ebe0     rtle:dstring.o
 0001:0000dc80       _ZN6System14AnsiStringBase11LoadStringAEP11HINSTANCE__ii 000000014000ec80     rtle:dstring.o
 0001:0000de40       _ZN6System14AnsiStringBase10FmtLoadStrEiPKNS_7TVarRecEii 000000014000ee40     rtle:dstring.o
 0001:0000df20       _ZN6System14AnsiStringBase6FormatERKS0_PKNS_7TVarRecEii 000000014000ef20     rtle:dstring.o
 0001:0000e000       _ZN6System14AnsiStringBase11FormatFloatERKS0_RKei 000000014000f000     rtle:dstring.o
 0001:0000e100       _ZN6System14AnsiStringBase7vprintfEiPKcPc 000000014000f100     rtle:dstring.o
 0001:0000e1a0       _ZN6System14AnsiStringBase11cat_vprintfEiPKcPc 000000014000f1a0     rtle:dstring.o
 0001:0000e250       _ZN6System14AnsiStringBase11FloatToStrFEeNS0_18TStringFloatFormatEiii 000000014000f250     rtle:dstring.o
 0001:0000e350       _ZN6System14AnsiStringBase8IntToHexEiii 000000014000f350     rtle:dstring.o
 0001:0000e410       _ZN6System14AnsiStringBase9CurrToStrERKNS_8CurrencyEi 000000014000f410     rtle:dstring.o
 0001:0000e4c0       _ZN6System14AnsiStringBase10CurrToStrFERKNS_8CurrencyENS0_18TStringFloatFormatEii 000000014000f4c0     rtle:dstring.o
 0001:0000e5a0       _ZNK6System14AnsiStringBase15WideCharBufSizeEi 000000014000f5a0     rtle:dstring.o
 0001:0000e620       _ZNK6System14AnsiStringBase8WideCharEPwii 000000014000f620     rtle:dstring.o
 0001:0000e6b0       _ZN6System14AnsiStringBase7Insert1ERKS0_i 000000014000f6b0     rtle:dstring.o
 0001:0000e6f0       _ZN6System14AnsiStringBase7Insert0ERKS0_i 000000014000f6f0     rtle:dstring.o
 0001:0000e8f0       _ZN6System14AnsiStringBase4swapERS0_ 000000014000f8f0     rtle:dstring.o
 0001:0000e930       _ZN6System14AnsiStringBase7Delete1Eii 000000014000f930     rtle:dstring.o
 0001:0000e970       _ZN6System14AnsiStringBase7Delete0Eii 000000014000f970     rtle:dstring.o
 0001:0000eb40       _ZNK6System14AnsiStringBase4Pos1ERKS0_ 000000014000fb40     rtle:dstring.o
 0001:0000eb70       _ZNK6System14AnsiStringBase4Pos0ERKS0_ 000000014000fb70     rtle:dstring.o
 0001:0000eba0       _ZNK6System14AnsiStringBase9LowerCaseEi 000000014000fba0     rtle:dstring.o
 0001:0000ec50       _ZNK6System14AnsiStringBase9UpperCaseEi 000000014000fc50     rtle:dstring.o
 0001:0000ed00       _ZNK6System14AnsiStringBase4TrimEi 000000014000fd00     rtle:dstring.o
 0001:0000edb0       _ZNK6System14AnsiStringBase8TrimLeftEi 000000014000fdb0     rtle:dstring.o
 0001:0000ee60       _ZNK6System14AnsiStringBase9TrimRightEi 000000014000fe60     rtle:dstring.o
 0001:0000ef10       _ZNK6System14AnsiStringBase10SubString1Eii 000000014000ff10     rtle:dstring.o
 0001:0000f000       _ZNK6System14AnsiStringBase10SubString0Eii 0000000140010000     rtle:dstring.o
 0001:0000f050       _ZNK6System14AnsiStringBase5ToIntEv 0000000140010050     rtle:dstring.o
 0001:0000f0c0       _ZNK6System14AnsiStringBase8ToIntDefEi 00000001400100c0     rtle:dstring.o
 0001:0000f140       _ZNK6System14AnsiStringBase8ToDoubleEv 0000000140010140     rtle:dstring.o
 0001:0000f1b0       _ZNK6System14AnsiStringBase12IsDelimiter1ERKS0_i 00000001400101b0     rtle:dstring.o
 0001:0000f1f0       _ZNK6System14AnsiStringBase12IsDelimiter0ERKS0_i 00000001400101f0     rtle:dstring.o
 0001:0000f2d0       _ZNK6System14AnsiStringBase8AnsiPos1ERKS0_ 00000001400102d0     rtle:dstring.o
 0001:0000f300       _ZNK6System14AnsiStringBase8AnsiPos0ERKS0_ 0000000140010300     rtle:dstring.o
 0001:0000f330       _ZNK6System14AnsiStringBase16IsPathDelimiter1Ei 0000000140010330     rtle:dstring.o
 0001:0000f360       _ZNK6System14AnsiStringBase16IsPathDelimiter0Ei 0000000140010360     rtle:dstring.o
 0001:0000f390       _ZNK6System14AnsiStringBase14LastDelimiter1ERKS0_ 0000000140010390     rtle:dstring.o
 0001:0000f3c0       _ZNK6System14AnsiStringBase14LastDelimiter0ERKS0_ 00000001400103c0     rtle:dstring.o
 0001:0000f4a0       _ZNK6System14AnsiStringBase9ByteType1Ei 00000001400104a0     rtle:dstring.o
 0001:0000f4d0       _ZNK6System14AnsiStringBase9ByteType0Ei 00000001400104d0     rtle:dstring.o
 0001:0000f500       _ZNK6System14AnsiStringBase11IsLeadByte1Ei 0000000140010500     rtle:dstring.o
 0001:0000f540       _ZNK6System14AnsiStringBase11IsLeadByte0Ei 0000000140010540     rtle:dstring.o
 0001:0000f570       _ZNK6System14AnsiStringBase12IsTrailByte1Ei 0000000140010570     rtle:dstring.o
 0001:0000f5b0       _ZNK6System14AnsiStringBase12IsTrailByte0Ei 00000001400105b0     rtle:dstring.o
 0001:0000f5e0       _ZNK6System14AnsiStringBase7BytesOfEv 00000001400105e0     rtle:dstring.o
 0001:0000f620       _ZNK6System14AnsiStringBase12AnsiLastCharEv 0000000140010620     rtle:dstring.o
 0001:0000f680       _ZN6System8_CharLenIwEEiPKT_ 0000000140010680     rtle:dstring.o
 0001:0000f6e0       _ZN6System8_CharLenIDsEEiPKT_ 00000001400106e0     rtle:dstring.o
 0001:0000f740       _ZN6System14AnsiStringBaseC2ILt0EEEONS_11AnsiStringTIXT_EEE 0000000140010740     rtle:dstring.o
 0001:0000f770       _ZNK6System14AnsiStringBase8CodePageEv 0000000140010770     rtle:dstring.o
 0001:0000f7c0       _ZNK6System14AnsiStringBaseixEi 00000001400107c0     rtle:dstring.o
 0001:0000f800       sprintf                    0000000140010800     libucrt:lib64_libucrt_extra_a-ucrt_sprintf.o
 0001:0000f860       vsnprintf                  0000000140010860     libucrt:lib64_libucrt_extra_a-ucrt_vsnprintf.o
 0001:0000f8b0       .weak._fWinMain.default._fWinMainCRTStartup 00000001400108b0     libmingw32:lib64_libmingw32_a-fmxwin.o
 0001:0000f8b0       .weak._fWinMain.default._fWinMainCRTStartup 00000001400108b0     libmingw32:lib64_libmingw32_a-fmxwin.o
 0001:0000f8e0       .weak._fwWinMain.default._fWinMainCRTStartup 00000001400108e0     libmingw32:lib64_libmingw32_a-fmxwin.o
 0001:0000f8e0       .weak._fwWinMain.default._fWinMainCRTStartup 00000001400108e0     libmingw32:lib64_libmingw32_a-fmxwin.o
 0001:0000f8e0       .weak._fwWinMain.default._fWinMainCRTStartup 00000001400108e0     libmingw32:lib64_libmingw32_a-fmxwin.o
 0001:0000f910       _fWinMainCRTStartup        0000000140010910     libmingw32:lib64_libmingw32_a-fmxwin.o
 0001:0000fad0       _ZN6System8Internal7Initcpp15InitializeUnitsEPNS1_20TUnitDescriptorBlockES3_ 0000000140010ad0     rtl:System.Internal.InitCPP.o
 0001:0000fb20       _ZN6System8Internal7Initcpp13FinalizeUnitsEPNS1_20TUnitDescriptorBlockES3_ 0000000140010b20     rtl:System.Internal.InitCPP.o
 0001:0000fb70       _ZN6System8Internal7Initcpp15InitializeUnitsEPPNS1_20TUnitDescriptorBlockES4_ 0000000140010b70     rtl:System.Internal.InitCPP.o
 0001:0000fbc0       _ZN6System8Internal7Initcpp13FinalizeUnitsEPPNS1_20TUnitDescriptorBlockES4_ 0000000140010bc0     rtl:System.Internal.InitCPP.o
 0001:0000fc10       _ZN6System8Internal7Initcpp15InitializeUnitsEPNS1_15TUnitDescriptorES3_ 0000000140010c10     rtl:System.Internal.InitCPP.o
 0001:0000fc20       _ZN6System8Internal7Initcpp13FinalizeUnitsEPNS1_15TUnitDescriptorES3_ 0000000140010c20     rtl:System.Internal.InitCPP.o
 0001:0000fc30       _ZN6System8Internal7Initcpp15CalculateDegreeEPNS1_20TUnitDescriptorBlockES3_ 0000000140010c30     rtl:System.Internal.InitCPP.o
 0001:0000fc60       _ZN6System8Internal7Initcpp15CalculateDegreeEPPNS1_20TUnitDescriptorBlockES4_ 0000000140010c60     rtl:System.Internal.InitCPP.o
 0001:0000fc90       _ZN6System8Internal7Initcpp18InitializeRootUnitEPNS1_15TUnitDescriptorE 0000000140010c90     rtl:System.Internal.InitCPP.o
 0001:0000fe70       _ZN6System8Internal7Initcpp16FinalizeRootUnitEPNS1_15TUnitDescriptorE 0000000140010e70     rtl:System.Internal.InitCPP.o
 0001:0000ff40       _ZN6System8Internal7Initcpp12FinalizationEv 0000000140010f40     rtl:System.Internal.InitCPP.o
 0001:0000ff50       _ZN6System8Internal7Initcpp14initializationEv 0000000140010f50     rtl:System.Internal.InitCPP.o
 0001:00010030       _Z15__hook_delphiehv       0000000140011030     libmingw32:lib64_libmingw32_a-hook_delphieh.o
 0001:00010150       _internal_malloc           0000000140011150     libmingw32:lib64_libmingw32_a-hook_delphimm.o
 0001:00010170       _internal_allocmem         0000000140011170     libmingw32:lib64_libmingw32_a-hook_delphimm.o
 0001:00010190       _internal_free             0000000140011190     libmingw32:lib64_libmingw32_a-hook_delphimm.o
 0001:000101c0       _internal_realloc          00000001400111c0     libmingw32:lib64_libmingw32_a-hook_delphimm.o
 0001:00010250       _internal_free_heaps       0000000140011250     libmingw32:lib64_libmingw32_a-hook_delphimm.o
 0001:00010260       _internal_regmem           0000000140011260     libmingw32:lib64_libmingw32_a-hook_delphimm.o
 0001:00010270       _internal_unreg_mem        0000000140011270     libmingw32:lib64_libmingw32_a-hook_delphimm.o
 0001:00010280       _Z15__hook_delphimmv       0000000140011280     libmingw32:lib64_libmingw32_a-hook_delphimm.o
 0001:000102f0       _ZN6System23_DelphiExceptionHandlerEPNS_16TExceptionRecordEyPvS2_ 00000001400112f0     rtl:rtl290.bpl
 0001:00010300       _ZN6System9_RunErrorEh     0000000140011300     rtl:rtl290.bpl
 0001:00010310       _ZN6System14RegisterModuleEPNS_10TLibModuleE 0000000140011310     rtl:rtl290.bpl
 0001:00010320       _ZN6System16UnregisterModuleEPNS_10TLibModuleE 0000000140011320     rtl:rtl290.bpl
 0001:00010330       _ZN6System13FindHInstanceEPv 0000000140011330     rtl:rtl290.bpl
 0001:00010340       _ZN6System11_DoneExceptEv  0000000140011340     rtl:rtl290.bpl
 0001:00010350       _ZN6System17_DestroyExceptionEP18TExceptionPointersy 0000000140011350     rtl:rtl290.bpl
 0001:00010360       _ZN6System12_PackageLoadEPNS_16PackageInfoTableEPNS_10TLibModuleE 0000000140011360     rtl:rtl290.bpl
 0001:00010370       _ZN6System14_PackageUnloadEPNS_16PackageInfoTableEPNS_10TLibModuleE 0000000140011370     rtl:rtl290.bpl
 0001:00010380       _ZN6System9_StartLibEPNS_12TInitContextEPNS_16PackageInfoTableEPNS_10TLibModuleEPvPFviS6_EyjS6_ 0000000140011380     rtl:rtl290.bpl
 0001:00010390       _ZN6System9_StartExeEPNS_16PackageInfoTableEPNS_10TLibModuleE 0000000140011390     rtl:rtl290.bpl
 0001:000103a0       _ZN6System14initializationEv 00000001400113a0     rtl:rtl290.bpl
 0001:000103b0       _ZN3Fmx5Forms11TCustomFormC3EPN6System7Classes10TComponentE 00000001400113b0     fmx:fmx290.bpl
 0001:000103c0       _ZN3Fmx5Forms11TCustomFormC3EPN6System7Classes10TComponentEx 00000001400113c0     fmx:fmx290.bpl
 0001:000103d0       _ZN3Fmx5Forms11TCustomFormD0Ev 00000001400113d0     fmx:fmx290.bpl
 0001:000103e0       _ZN6System7TObject6EqualsEPS0_ 00000001400113e0     rtl:rtl290.bpl
 0001:000103f0       _ZN6System7TObject11GetHashCodeEv 00000001400113f0     rtl:rtl290.bpl
 0001:00010400       _ZN6System7TObject8ToStringEv 0000000140011400     rtl:rtl290.bpl
 0001:00010410       _ZN6System7Classes10TComponent17SafeCallExceptionEPNS_7TObjectEPv 0000000140011410     rtl:rtl290.bpl
 0001:00010420       _ZN3Fmx5Forms17TCommonCustomForm17AfterConstructionEv 0000000140011420     fmx:fmx290.bpl
 0001:00010430       _ZN3Fmx5Forms17TCommonCustomForm17BeforeDestructionEv 0000000140011430     fmx:fmx290.bpl
 0001:00010440       _ZN6System7TObject8DispatchEPv 0000000140011440     rtl:rtl290.bpl
 0001:00010450       _ZN6System7TObject14DefaultHandlerEPv 0000000140011450     rtl:rtl290.bpl
 0001:00010460       _ZN6System7TObject11NewInstanceEv 0000000140011460     rtl:rtl290.bpl
 0001:00010470       _ZN6System7TObject12FreeInstanceEv 0000000140011470     rtl:rtl290.bpl
 0001:00010480       _ZN6System7Classes11TPersistent8AssignToEPS1_ 0000000140011480     rtl:rtl290.bpl
 0001:00010490       _ZN3Fmx5Forms17TCommonCustomForm16DefinePropertiesEPN6System7Classes6TFilerE 0000000140011490     fmx:fmx290.bpl
 0001:000104a0       _ZN6System7Classes11TPersistent6AssignEPS1_ 00000001400114a0     rtl:rtl290.bpl
 0001:000104b0       _ZN6System7Classes10TComponent13AsyncScheduleEPNS0_16TBaseAsyncResultE 00000001400114b0     rtl:rtl290.bpl
 0001:000104c0       _ZN3Fmx5Forms17TCommonCustomForm6LoadedEv 00000001400114c0     fmx:fmx290.bpl
 0001:000104d0       _ZN3Fmx5Forms11TCustomForm12NotificationEPN6System7Classes10TComponentENS3_10TOperationE 00000001400114d0     fmx:fmx290.bpl
 0001:000104e0       _ZN6System7Classes10TComponent9ReadStateEPNS0_7TReaderE 00000001400114e0     rtl:rtl290.bpl
 0001:000104f0       _ZN6System7Classes10TComponent10CanObserveEi 00000001400114f0     rtl:rtl290.bpl
 0001:00010500       _ZN6System7Classes10TComponent13ObserverAddedEiNS_15DelphiInterfaceINS0_9IObserverEEE 0000000140011500     rtl:rtl290.bpl
 0001:00010510       _ZN6System7Classes10TComponent12GetObserversEv 0000000140011510     rtl:rtl290.bpl
 0001:00010520       _ZN6System7Classes10TComponent7SetNameENS_13UnicodeStringE 0000000140011520     rtl:rtl290.bpl
 0001:00010530       _ZN6System7Classes10TComponent14UpdateRegistryEbNS_13UnicodeStringES2_ 0000000140011530     rtl:rtl290.bpl
 0001:00010540       _ZN3Fmx5Forms17TCommonCustomForm14ValidateRenameEPN6System7Classes10TComponentENS2_13UnicodeStringES6_ 0000000140011540     fmx:fmx290.bpl
 0001:00010550       _ZN6System7Classes10TComponent10WriteStateEPNS0_7TWriterE 0000000140011550     rtl:rtl290.bpl
 0001:00010560       _ZN3Fmx5Forms17TCommonCustomForm14QueryInterfaceERK5_GUIDPv 0000000140011560     fmx:fmx290.bpl
 0001:00010570       _ZN6System7Classes10TComponent12UpdateActionEPNS0_12TBasicActionE 0000000140011570     rtl:rtl290.bpl
 0001:00010580       _ZN3Fmx5Types10TFmxObject18CreateChildrenListEPN6System8Generics11Collections8TList__1IPS1_EE 0000000140011580     fmx:fmx290.bpl
 0001:00010590       _ZN3Fmx5Forms17TCommonCustomForm12GetBackIndexEv 0000000140011590     fmx:fmx290.bpl
 0001:000105a0       _ZN3Fmx5Forms17TCommonCustomForm18GetActionLinkClassEv 00000001400115a0     fmx:fmx290.bpl
 0001:000105b0       _ZN3Fmx5Types10TFmxObject14InitiateActionEv 00000001400115b0     fmx:fmx290.bpl
 0001:000105c0       _ZN3Fmx5Types10TFmxObject14DoActionChangeEPN6System7TObjectE 00000001400115c0     fmx:fmx290.bpl
 0001:000105d0       _ZN3Fmx5Forms17TCommonCustomForm12ActionChangeEPN6System7Classes12TBasicActionEb 00000001400115d0     fmx:fmx290.bpl
 0001:000105e0       _ZN3Fmx5Types10TFmxObject21DoActionClientChangedEv 00000001400115e0     fmx:fmx290.bpl
 0001:000105f0       _ZN3Fmx5Types10TFmxObject17AddToResourcePoolEv 00000001400115f0     fmx:fmx290.bpl
 0001:00010600       _ZN3Fmx5Types10TFmxObject22RemoveFromResourcePoolEv 0000000140011600     fmx:fmx290.bpl
 0001:00010610       _ZN3Fmx5Types10TFmxObject9SetParentEPS1_ 0000000140011610     fmx:fmx290.bpl
 0001:00010620       _ZN3Fmx5Types10TFmxObject14DoRootChangingEN6System15DelphiInterfaceINS0_5IRootEEE 0000000140011620     fmx:fmx290.bpl
 0001:00010630       _ZN3Fmx5Forms17TCommonCustomForm13DoRootChangedEv 0000000140011630     fmx:fmx290.bpl
 0001:00010640       _ZN3Fmx5Types10TFmxObject13ParentChangedEv 0000000140011640     fmx:fmx290.bpl
 0001:00010650       _ZN3Fmx5Types10TFmxObject11ChangeOrderEv 0000000140011650     fmx:fmx290.bpl
 0001:00010660       _ZN3Fmx5Forms11TCustomForm14ChangeChildrenEv 0000000140011660     fmx:fmx290.bpl
 0001:00010670       _ZN3Fmx5Forms11TCustomForm11DoAddObjectEPNS_5Types10TFmxObjectE 0000000140011670     fmx:fmx290.bpl
 0001:00010680       _ZN3Fmx5Types10TFmxObject14DoInsertObjectEiPS1_ 0000000140011680     fmx:fmx290.bpl
 0001:00010690       _ZN3Fmx5Forms11TCustomForm14DoRemoveObjectEPNS_5Types10TFmxObjectE 0000000140011690     fmx:fmx290.bpl
 0001:000106a0       _ZN3Fmx5Forms11TCustomForm16DoDeleteChildrenEv 00000001400116a0     fmx:fmx290.bpl
 0001:000106b0       _ZN3Fmx5Types10TFmxObject10SearchIntoEv 00000001400116b0     fmx:fmx290.bpl
 0001:000106c0       _ZN3Fmx5Forms17TCommonCustomForm16FreeNotificationEPN6System7TObjectE 00000001400116c0     fmx:fmx290.bpl
 0001:000106d0       _ZN3Fmx5Types10TFmxObject23SupportsPlatformServiceERK5_GUIDPv 00000001400116d0     fmx:fmx290.bpl
 0001:000106e0       _ZN3Fmx5Types10TFmxObject7GetDataEv 00000001400116e0     fmx:fmx290.bpl
 0001:000106f0       _ZN3Fmx5Types10TFmxObject7SetDataERKN6System4Rtti6TValueE 00000001400116f0     fmx:fmx290.bpl
 0001:00010700       _ZN3Fmx5Forms17TCommonCustomForm7ReleaseEv 0000000140011700     fmx:fmx290.bpl
 0001:00010710       _ZN3Fmx5Types10TFmxObject14ContainsObjectEPS1_ 0000000140011710     fmx:fmx290.bpl
 0001:00010720       _ZN3Fmx5Types10TFmxObject8ExchangeEPS1_S2_ 0000000140011720     fmx:fmx290.bpl
 0001:00010730       _ZN3Fmx5Types10TFmxObject7IsChildEPS1_ 0000000140011730     fmx:fmx290.bpl
 0001:00010740       _ZN3Fmx5Forms17TCommonCustomForm12BringToFrontEv 0000000140011740     fmx:fmx290.bpl
 0001:00010750       _ZN3Fmx5Forms17TCommonCustomForm10SendToBackEv 0000000140011750     fmx:fmx290.bpl
 0001:00010760       _ZN3Fmx5Types10TFmxObject4SortEN6System15DelphiInterfaceINS0_21TFmxObjectSortCompareEEE 0000000140011760     fmx:fmx290.bpl
 0001:00010770       _ZN3Fmx5Types10TFmxObject17FindStyleResourceEN6System13UnicodeStringEb 0000000140011770     fmx:fmx290.bpl
 0001:00010780       _ZN3Fmx5Forms17TCommonCustomForm8RecreateEv 0000000140011780     fmx:fmx290.bpl
 0001:00010790       _ZN3Fmx5Forms17TCommonCustomForm6ResizeEv 0000000140011790     fmx:fmx290.bpl
 0001:000107a0       _ZN3Fmx5Forms17TCommonCustomForm17ConstrainedResizeERfS2_S2_S2_ 00000001400117a0     fmx:fmx290.bpl
 0001:000107b0       _ZN3Fmx5Forms17TCommonCustomForm10AdjustSizeERN6System5Types6TSizeFE 00000001400117b0     fmx:fmx290.bpl
 0001:000107c0       _ZN3Fmx5Forms17TCommonCustomForm9SetActiveEb 00000001400117c0     fmx:fmx290.bpl
 0001:000107d0       _ZN3Fmx5Forms17TCommonCustomForm10FindTargetERKN6System5Types7TPointFERKNS_5Types11TDragObjectE 00000001400117d0     fmx:fmx290.bpl
 0001:000107e0       _ZN3Fmx5Forms11TCustomForm15UpdateStyleBookEv 00000001400117e0     fmx:fmx290.bpl
 0001:000107f0       _ZN3Fmx5Forms17TCommonCustomForm14DoFlipChildrenEv 00000001400117f0     fmx:fmx290.bpl
 0001:00010800       _ZN3Fmx5Forms11TCustomForm12CanFlipChildEPNS_5Types10TFmxObjectE 0000000140011800     fmx:fmx290.bpl
 0001:00010810       _ZN3Fmx5Forms11TCustomForm7RealignEv 0000000140011810     fmx:fmx290.bpl
 0001:00010820       _ZN3Fmx5Forms11TCustomForm23AddPreloadPropertyNamesEPN6System8Generics11Collections8TList__1INS2_13UnicodeStringEEE 0000000140011820     fmx:fmx290.bpl
 0001:00010830       _ZN3Fmx5Forms11TCustomForm20SetPreloadPropertiesEPN6System8Generics11Collections14TDictionary__2INS2_13UnicodeStringENS2_7VariantEEE 0000000140011830     fmx:fmx290.bpl
 0001:00010840       _ZN3Fmx5Forms11TCustomForm12CreateHandleEv 0000000140011840     fmx:fmx290.bpl
 0001:00010850       _ZN3Fmx5Forms11TCustomForm13DestroyHandleEv 0000000140011850     fmx:fmx290.bpl
 0001:00010860       _ZN3Fmx5Forms11TCustomForm12ResizeHandleEv 0000000140011860     fmx:fmx290.bpl
 0001:00010870       _ZN3Fmx5Forms17TCommonCustomForm15SetTransparencyEb 0000000140011870     fmx:fmx290.bpl
 0001:00010880       _ZN3Fmx5Forms11TCustomForm10PaintRectsEPKN6System5Types6TRectFEx 0000000140011880     fmx:fmx290.bpl
 0001:00010890       _ZN3Fmx5Forms17TCommonCustomForm12CreateBorderEv 0000000140011890     fmx:fmx290.bpl
 0001:000108a0       _ZN3Fmx5Forms17TCommonCustomForm13UpdateActionsEv 00000001400118a0     fmx:fmx290.bpl
 0001:000108b0       _ZN3Fmx5Forms17TCommonCustomForm28VirtualKeyboardChangeHandlerEPN6System7TObjectEPNS2_9Messaging12TMessageBaseE 00000001400118b0     fmx:fmx290.bpl
 0001:000108c0       _ZN3Fmx5Forms17TCommonCustomForm11IsDialogKeyEtwN6System3SetINS2_7Classes15TShiftStateItemELS5_0ELS5_10EEERb 00000001400118c0     fmx:fmx290.bpl
 0001:000108d0       _ZN3Fmx5Forms17TCommonCustomForm6DoShowEv 00000001400118d0     fmx:fmx290.bpl
 0001:000108e0       _ZN3Fmx5Forms17TCommonCustomForm6DoHideEv 00000001400118e0     fmx:fmx290.bpl
 0001:000108f0       _ZN3Fmx5Forms17TCommonCustomForm7DoCloseERN6System7Uitypes12TCloseActionE 00000001400118f0     fmx:fmx290.bpl
 0001:00010900       _ZN3Fmx5Forms11TCustomForm14DoScaleChangedEv 0000000140011900     fmx:fmx290.bpl
 0001:00010910       _ZN3Fmx5Forms11TCustomForm14DoStyleChangedEv 0000000140011910     fmx:fmx290.bpl
 0001:00010920       _ZN3Fmx5Forms17TCommonCustomForm11DoMouseDownEN6System7Uitypes12TMouseButtonENS2_3SetINS2_7Classes15TShiftStateItemELS7_0ELS7_10EEEff 0000000140011920     fmx:fmx290.bpl
 0001:00010930       _ZN3Fmx5Forms17TCommonCustomForm11DoMouseMoveEN6System3SetINS2_7Classes15TShiftStateItemELS5_0ELS5_10EEEff 0000000140011930     fmx:fmx290.bpl
 0001:00010940       _ZN3Fmx5Forms17TCommonCustomForm9DoMouseUpEN6System7Uitypes12TMouseButtonENS2_3SetINS2_7Classes15TShiftStateItemELS7_0ELS7_10EEEff 0000000140011940     fmx:fmx290.bpl
 0001:00010950       _ZN3Fmx5Forms17TCommonCustomForm12DoMouseWheelEN6System3SetINS2_7Classes15TShiftStateItemELS5_0ELS5_10EEEiRb 0000000140011950     fmx:fmx290.bpl
 0001:00010960       _ZN3Fmx5Forms17TCommonCustomForm14DoFocusChangedEv 0000000140011960     fmx:fmx290.bpl
 0001:00010970       _ZN3Fmx5Forms17TCommonCustomForm16DoPaddingChangedEv 0000000140011970     fmx:fmx290.bpl
 0001:00010980       _ZN3Fmx5Forms17TCommonCustomForm5DoTapERKN6System5Types7TPointFE 0000000140011980     fmx:fmx290.bpl
 0001:00010990       _ZN3Fmx5Forms17TCommonCustomForm9DoKeyDownERtRwN6System3SetINS4_7Classes15TShiftStateItemELS7_0ELS7_10EEE 0000000140011990     fmx:fmx290.bpl
 0001:000109a0       _ZN3Fmx5Forms17TCommonCustomForm7DoKeyUpERtRwN6System3SetINS4_7Classes15TShiftStateItemELS7_0ELS7_10EEE 00000001400119a0     fmx:fmx290.bpl
 0001:000109b0       _ZN3Fmx5Forms11TCustomForm14GetWindowStyleEv 00000001400119b0     fmx:fmx290.bpl
 0001:000109c0       _ZN3Fmx5Forms17TCommonCustomForm19DoParentFormChangedEv 00000001400119c0     fmx:fmx290.bpl
 0001:000109d0       _ZN3Fmx5Forms17TCommonCustomForm9DoGestureERKNS_5Types17TGestureEventInfoERb 00000001400119d0     fmx:fmx290.bpl
 0001:000109e0       _ZN3Fmx5Forms17TCommonCustomForm9CMGestureERNS_5Types17TGestureEventInfoE 00000001400119e0     fmx:fmx290.bpl
 0001:000109f0       _ZN3Fmx5Forms17TCommonCustomForm3TapERKN6System5Types7TPointFE 00000001400119f0     fmx:fmx290.bpl
 0001:00010a00       _ZN3Fmx5Forms17TCommonCustomForm19ScaleChangedHandlerEPN6System7TObjectEPNS2_9Messaging12TMessageBaseE 0000000140011a00     fmx:fmx290.bpl
 0001:00010a10       _ZN3Fmx5Forms11TCustomForm19StyleChangedHandlerEPN6System7TObjectEPNS2_9Messaging12TMessageBaseE 0000000140011a10     fmx:fmx290.bpl
 0001:00010a20       _ZN3Fmx5Forms11TCustomForm17InitializeNewFormEv 0000000140011a20     fmx:fmx290.bpl
 0001:00010a30       _ZN3Fmx5Forms17TCommonCustomForm13ObjectAtPointERKN6System5Types7TPointFE 0000000140011a30     fmx:fmx290.bpl
 0001:00010a40       _ZN3Fmx5Forms17TCommonCustomForm9MouseDownEN6System7Uitypes12TMouseButtonENS2_3SetINS2_7Classes15TShiftStateItemELS7_0ELS7_10EEEff 0000000140011a40     fmx:fmx290.bpl
 0001:00010a50       _ZN3Fmx5Forms17TCommonCustomForm9MouseMoveEN6System3SetINS2_7Classes15TShiftStateItemELS5_0ELS5_10EEEff 0000000140011a50     fmx:fmx290.bpl
 0001:00010a60       _ZN3Fmx5Forms17TCommonCustomForm7MouseUpEN6System7Uitypes12TMouseButtonENS2_3SetINS2_7Classes15TShiftStateItemELS7_0ELS7_10EEEffb 0000000140011a60     fmx:fmx290.bpl
 0001:00010a70       _ZN3Fmx5Forms17TCommonCustomForm10MouseWheelEN6System3SetINS2_7Classes15TShiftStateItemELS5_0ELS5_10EEEiRb 0000000140011a70     fmx:fmx290.bpl
 0001:00010a80       _ZN3Fmx5Forms17TCommonCustomForm10MouseLeaveEv 0000000140011a80     fmx:fmx290.bpl
 0001:00010a90       _ZN3Fmx5Forms17TCommonCustomForm7KeyDownERtRwN6System3SetINS4_7Classes15TShiftStateItemELS7_0ELS7_10EEE 0000000140011a90     fmx:fmx290.bpl
 0001:00010aa0       _ZN3Fmx5Forms17TCommonCustomForm5KeyUpERtRwN6System3SetINS4_7Classes15TShiftStateItemELS7_0ELS7_10EEE 0000000140011aa0     fmx:fmx290.bpl
 0001:00010ab0       _ZN3Fmx5Forms17TCommonCustomForm22DispatchAcceleratorKeyEtwN6System3SetINS2_7Classes15TShiftStateItemELS5_0ELS5_10EEE 0000000140011ab0     fmx:fmx290.bpl
 0001:00010ac0       _ZN3Fmx5Forms17TCommonCustomForm17DispatchDialogKeyEtwN6System3SetINS2_7Classes15TShiftStateItemELS5_0ELS5_10EEE 0000000140011ac0     fmx:fmx290.bpl
 0001:00010ad0       _ZN3Fmx5Forms11TCustomForm17RecreateResourcesEv 0000000140011ad0     fmx:fmx290.bpl
 0001:00010ae0       _ZN3Fmx5Forms17TCommonCustomForm9DragEnterERKNS_5Types11TDragObjectERKN6System5Types7TPointFE 0000000140011ae0     fmx:fmx290.bpl
 0001:00010af0       _ZN3Fmx5Forms17TCommonCustomForm8DragOverERKNS_5Types11TDragObjectERKN6System5Types7TPointFERNS2_14TDragOperationE 0000000140011af0     fmx:fmx290.bpl
 0001:00010b00       _ZN3Fmx5Forms17TCommonCustomForm8DragDropERKNS_5Types11TDragObjectERKN6System5Types7TPointFE 0000000140011b00     fmx:fmx290.bpl
 0001:00010b10       _ZN3Fmx5Forms17TCommonCustomForm9DragLeaveEv 0000000140011b10     fmx:fmx290.bpl
 0001:00010b20       _ZN3Fmx5Forms17TCommonCustomForm15StartWindowDragEv 0000000140011b20     fmx:fmx290.bpl
 0001:00010b30       _ZN3Fmx5Forms17TCommonCustomForm17StartWindowResizeEv 0000000140011b30     fmx:fmx290.bpl
 0001:00010b40       _ZN3Fmx5Forms17TCommonCustomForm9SetBoundsEiiii 0000000140011b40     fmx:fmx290.bpl
 0001:00010b50       _ZN3Fmx5Forms17TCommonCustomForm10SetBoundsFEffff 0000000140011b50     fmx:fmx290.bpl
 0001:00010b60       _ZN3Fmx5Forms17TCommonCustomForm9GetBoundsEv 0000000140011b60     fmx:fmx290.bpl
 0001:00010b70       _ZN3Fmx5Forms17TCommonCustomForm10GetBoundsFEv 0000000140011b70     fmx:fmx290.bpl
 0001:00010b80       _ZN3Fmx5Forms17TCommonCustomForm7CanShowEv 0000000140011b80     fmx:fmx290.bpl
 0001:00010b90       _ZN3Fmx5Forms17TCommonCustomForm10CloseQueryEv 0000000140011b90     fmx:fmx290.bpl
 0001:00010ba0       _ZN3Fmx5Forms17TCommonCustomForm11IsPopupFormEv 0000000140011ba0     fmx:fmx290.bpl
 0001:00010bb0       _ZN3Fmx5Forms17TCommonCustomForm11BeginUpdateEv 0000000140011bb0     fmx:fmx290.bpl
 0001:00010bc0       _ZN3Fmx5Forms11TCustomForm9EndUpdateEv 0000000140011bc0     fmx:fmx290.bpl
 0001:00010bd0       _ZN3Fmx5Forms11TCustomForm16ApplyStyleLookupEv 0000000140011bd0     fmx:fmx290.bpl
 0001:00010be0       _ZN3Fmx5Forms11TCustomForm7DoPaintEPNS_8Graphics7TCanvasERKN6System5Types6TRectFE 0000000140011be0     fmx:fmx290.bpl
 0001:00010bf0       _ZN3Fmx5Forms11TCustomForm15PaintBackgroundEv 0000000140011bf0     fmx:fmx290.bpl
 0001:00010c00       _ZN3Fmx5Forms12TApplication10InitializeEv 0000000140011c00     fmx:fmx290.bpl
 0001:00010c10       _ZN3Fmx5Forms12TApplication10CreateFormEN6System7Classes15TComponentClassEPv 0000000140011c10     fmx:fmx290.bpl
 0001:00010c20       _ZN3Fmx5Forms12TApplication3RunEv 0000000140011c20     fmx:fmx290.bpl
 0001:00010c30       _ZN3Fmx5Forms12TApplication13ShowExceptionEPN6System8Sysutils9ExceptionE 0000000140011c30     fmx:fmx290.bpl
 0001:00010c40       _ZN6System8Sysutils9ExceptionC3ENS_13UnicodeStringE 0000000140011c40     rtl:rtl290.bpl
 0001:00010c50       _ZN6System8Sysutils9ExceptionD0Ev 0000000140011c50     rtl:rtl290.bpl
 0001:00010c60       malloc                     0000000140011c60     libucrt:api-ms-win-crt-heap-l1-1-0.dll
 0001:00010c70       __C_specific_handler       0000000140011c70     libucrt:api-ms-win-crt-private-l1-1-0.dll
 0001:00010c80       memcpy                     0000000140011c80     libucrt:api-ms-win-crt-private-l1-1-0.dll
 0001:00010c90       _cexit                     0000000140011c90     libucrt:api-ms-win-crt-runtime-l1-1-0.dll
 0001:00010ca0       _initterm                  0000000140011ca0     libucrt:api-ms-win-crt-runtime-l1-1-0.dll
 0001:00010cb0       _set_invalid_parameter_handler 0000000140011cb0     libucrt:api-ms-win-crt-runtime-l1-1-0.dll
 0001:00010cc0       exit                       0000000140011cc0     libucrt:api-ms-win-crt-runtime-l1-1-0.dll
 0001:00010cd0       __p__commode               0000000140011cd0     libucrt:api-ms-win-crt-stdio-l1-1-0.dll
 0001:00010ce0       __p__fmode                 0000000140011ce0     libucrt:api-ms-win-crt-stdio-l1-1-0.dll
 0001:00010cf0       wcslen                     0000000140011cf0     libucrt:api-ms-win-crt-string-l1-1-0.dll
 0001:00010d00       _ZSt9terminatev            0000000140011d00     libc++.dll:libc++.dll
 0001:00010d10       __cxa_begin_catch          0000000140011d10     libc++.dll:libc++.dll
 0001:00010d20       __cxa_end_catch            0000000140011d20     libc++.dll:libc++.dll
 0001:00010d30       __cxa_throw                0000000140011d30     libc++.dll:libc++.dll
 0001:00010d40       __gxx_personality_seh0     0000000140011d40     libc++.dll:libc++.dll
 0001:00010d50       _Unwind_Resume             0000000140011d50     libunwind.dll:libunwind.dll
 0001:00010d60       FreeLibrary                0000000140011d60     import64:KERNEL32.dll
 0001:00010d70       GetCommandLineW            0000000140011d70     import64:KERNEL32.dll
 0001:00010d80       GetLastError               0000000140011d80     import64:KERNEL32.dll
 0001:00010d90       GetModuleHandleW           0000000140011d90     import64:KERNEL32.dll
 0001:00010da0       GetProcAddress             0000000140011da0     import64:KERNEL32.dll
 0001:00010db0       LoadLibraryA               0000000140011db0     import64:KERNEL32.dll
 0001:00010dc0       LocalAlloc                 0000000140011dc0     import64:KERNEL32.dll
 0001:00010dd0       LocalFree                  0000000140011dd0     import64:KERNEL32.dll
 0001:00010de0       RaiseException             0000000140011de0     import64:KERNEL32.dll
 0001:00010df0       SetUnhandledExceptionFilter 0000000140011df0     import64:KERNEL32.dll
 0001:00010e00       Sleep                      0000000140011e00     import64:KERNEL32.dll
 0001:00010e10       TlsAlloc                   0000000140011e10     import64:KERNEL32.dll
 0001:00010e20       TlsFree                    0000000140011e20     import64:KERNEL32.dll
 0001:00010e30       TlsGetValue                0000000140011e30     import64:KERNEL32.dll
 0001:00010e40       TlsSetValue                0000000140011e40     import64:KERNEL32.dll
 0001:00010e50       _set_app_type              0000000140011e50     libucrt:api-ms-win-crt-runtime-l1-1-0.dll
 0001:00010e50       _set_app_type              0000000140011e50     libucrt:api-ms-win-crt-runtime-l1-1-0.dll
 0001:00010e60       _initialize_narrow_environment 0000000140011e60     libucrt:api-ms-win-crt-runtime-l1-1-0.dll
 0001:00010e70       _configure_narrow_argv     0000000140011e70     libucrt:api-ms-win-crt-runtime-l1-1-0.dll
 0001:00010e80       __p___argc                 0000000140011e80     libucrt:api-ms-win-crt-runtime-l1-1-0.dll
 0001:00010e90       __p___argv                 0000000140011e90     libucrt:api-ms-win-crt-runtime-l1-1-0.dll
 0001:00010ea0       __p__environ               0000000140011ea0     libucrt:api-ms-win-crt-environment-l1-1-0.dll
 0001:00010eb0       _set_new_mode              0000000140011eb0     libucrt:api-ms-win-crt-heap-l1-1-0.dll
 0001:00010ec0       _initialize_wide_environment 0000000140011ec0     libucrt:api-ms-win-crt-runtime-l1-1-0.dll
 0001:00010ed0       _configure_wide_argv       0000000140011ed0     libucrt:api-ms-win-crt-runtime-l1-1-0.dll
 0001:00010ee0       __p___wargv                0000000140011ee0     libucrt:api-ms-win-crt-runtime-l1-1-0.dll
 0001:00010ef0       __p__wenviron              0000000140011ef0     libucrt:api-ms-win-crt-environment-l1-1-0.dll
 0001:00010f00       _crt_atexit                0000000140011f00     libucrt:api-ms-win-crt-runtime-l1-1-0.dll
 0001:00010f10       _crt_at_quick_exit         0000000140011f10     libucrt:api-ms-win-crt-runtime-l1-1-0.dll
 0001:00010f20       __acrt_iob_func            0000000140011f20     libucrt:api-ms-win-crt-stdio-l1-1-0.dll
 0001:00010f30       _exit                      0000000140011f30     libucrt:api-ms-win-crt-runtime-l1-1-0.dll
 0001:00010f40       __tzname                   0000000140011f40     libucrt:api-ms-win-crt-time-l1-1-0.dll
 0001:00010f50       __timezone                 0000000140011f50     libucrt:api-ms-win-crt-time-l1-1-0.dll
 0001:00010f60       __daylight                 0000000140011f60     libucrt:api-ms-win-crt-time-l1-1-0.dll
 0001:00010f70       __stdio_common_vfwprintf   0000000140011f70     libucrt:api-ms-win-crt-stdio-l1-1-0.dll
 0001:00010f80       __p__wcmdln                0000000140011f80     libucrt:api-ms-win-crt-runtime-l1-1-0.dll
 0001:00010f90       memset                     0000000140011f90     libucrt:api-ms-win-crt-string-l1-1-0.dll
 0001:00010fa0       GetStartupInfoW            0000000140011fa0     import64:KERNEL32.dll
 0001:00010fb0       VirtualProtect             0000000140011fb0     import64:KERNEL32.dll
 0001:00010fc0       abort                      0000000140011fc0     libucrt:api-ms-win-crt-runtime-l1-1-0.dll
 0001:00010fd0       VirtualQuery               0000000140011fd0     import64:KERNEL32.dll
 0001:00010fe0       __setusermatherr           0000000140011fe0     libucrt:api-ms-win-crt-math-l1-1-0.dll
 0001:00010ff0       signal                     0000000140011ff0     libucrt:api-ms-win-crt-runtime-l1-1-0.dll
 0001:00011000       _ZN6System8Syncobjs12TInterlocked9IncrementERi 0000000140012000     rtl:rtl290.bpl
 0001:00011010       __cxa_guard_acquire        0000000140012010     libc++.dll:libc++.dll
 0001:00011020       __cxa_guard_release        0000000140012020     libc++.dll:libc++.dll
 0001:00011030       _ZN6System8Sysutils10FloatToStrEe 0000000140012030     rtl:rtl290.bpl
 0001:00011040       CompareStringW             0000000140012040     import64:KERNEL32.dll
 0001:00011050       _ZN6System8Sysutils7LoadStrEy 0000000140012050     rtl:rtl290.bpl
 0001:00011060       FindResourceA              0000000140012060     import64:KERNEL32.dll
 0001:00011070       LoadResource               0000000140012070     import64:KERNEL32.dll
 0001:00011080       LockResource               0000000140012080     import64:KERNEL32.dll
 0001:00011090       FreeResource               0000000140012090     import64:KERNEL32.dll
 0001:000110a0       _ZN6System8Sysutils10FmtLoadStrEyPKNS_7TVarRecEx 00000001400120a0     rtl:rtl290.bpl
 0001:000110b0       _ZN6System8Sysutils6FormatENS_13UnicodeStringEPKNS_7TVarRecEx 00000001400120b0     rtl:rtl290.bpl
 0001:000110c0       _ZN6System8Sysutils11FormatFloatENS_13UnicodeStringEe 00000001400120c0     rtl:rtl290.bpl
 0001:000110d0       __stdio_common_vswprintf   00000001400120d0     libucrt:api-ms-win-crt-stdio-l1-1-0.dll
 0001:000110e0       _ZN6System8Sysutils11FloatToStrFEeNS0_12TFloatFormatEii 00000001400120e0     rtl:rtl290.bpl
 0001:000110f0       _ZN6System8Sysutils8IntToHexEii 00000001400120f0     rtl:rtl290.bpl
 0001:00011100       _ZN6System8Sysutils9CurrToStrENS_8CurrencyE 0000000140012100     rtl:rtl290.bpl
 0001:00011110       _ZN6System8Sysutils10CurrToStrFENS_8CurrencyENS0_12TFloatFormatEi 0000000140012110     rtl:rtl290.bpl
 0001:00011120       _ZN6System12UniqueStringERNS_13UnicodeStringE 0000000140012120     rtl:rtl290.bpl
 0001:00011130       _ZN6System8Sysutils13AnsiLowerCaseENS_13UnicodeStringE 0000000140012130     rtl:rtl290.bpl
 0001:00011140       _ZN6System8Sysutils13AnsiUpperCaseENS_13UnicodeStringE 0000000140012140     rtl:rtl290.bpl
 0001:00011150       _ZN6System8Sysutils4TrimENS_13UnicodeStringE 0000000140012150     rtl:rtl290.bpl
 0001:00011160       _ZN6System8Sysutils8TrimLeftENS_13UnicodeStringE 0000000140012160     rtl:rtl290.bpl
 0001:00011170       _ZN6System8Sysutils9TrimRightENS_13UnicodeStringE 0000000140012170     rtl:rtl290.bpl
 0001:00011180       _ZN6System8Sysutils8StrToIntENS_13UnicodeStringE 0000000140012180     rtl:rtl290.bpl
 0001:00011190       _ZN6System8Sysutils11StrToIntDefENS_13UnicodeStringEi 0000000140012190     rtl:rtl290.bpl
 0001:000111a0       _ZN6System8Sysutils10StrToFloatENS_13UnicodeStringE 00000001400121a0     rtl:rtl290.bpl
 0001:000111b0       _ZN6System8Sysutils11IsDelimiterENS_13UnicodeStringES1_i 00000001400121b0     rtl:rtl290.bpl
 0001:000111c0       _ZN6System8Sysutils15IsPathDelimiterENS_13UnicodeStringEi 00000001400121c0     rtl:rtl290.bpl
 0001:000111d0       _ZN6System8Sysutils13LastDelimiterENS_13UnicodeStringES1_ 00000001400121d0     rtl:rtl290.bpl
 0001:000111e0       _ZN6System8Sysutils8ByteTypeENS_13UnicodeStringEi 00000001400121e0     rtl:rtl290.bpl
 0001:000111f0       _ZN6System8Sysutils7BytesOfENS_13UnicodeStringE 00000001400121f0     rtl:rtl290.bpl
 0001:00011200       _ZN6System8Sysutils12AnsiLastCharENS_13UnicodeStringE 0000000140012200     rtl:rtl290.bpl
 0001:00011210       _ZN6System8Syncobjs12TInterlocked8ExchangeERPvS2_ 0000000140012210     rtl:rtl290.bpl
 0001:00011220       _ZN6System8Sysutils9BoolToStrEbb 0000000140012220     rtl:rtl290.bpl
 0001:00011230       _ZN6System12StringOfCharEci 0000000140012230     rtl:rtl290.bpl
 0001:00011240       _ZN6System8Sysutils8IntToStrEi 0000000140012240     rtl:rtl290.bpl
 0001:00011250       _ZN6System8Sysutils9UIntToStrEj 0000000140012250     rtl:rtl290.bpl
 0001:00011260       _ZN6System8Sysutils8IntToStrEx 0000000140012260     rtl:rtl290.bpl
 0001:00011270       _ZN6System8Sysutils9UIntToStrEy 0000000140012270     rtl:rtl290.bpl
 0001:00011280       _ZN6System12StringOfCharEwi 0000000140012280     rtl:rtl290.bpl
 0001:00011290       _ZN6System8Sysutils10FloatToStrEeRKNS0_15TFormatSettingsE 0000000140012290     rtl:rtl290.bpl
 0001:000112a0       _ZN6System8Sysutils12TryStrToBoolENS_13UnicodeStringERb 00000001400122a0     rtl:rtl290.bpl
 0001:000112b0       _ZN6System8Sysutils13TryStrToFloatENS_13UnicodeStringERe 00000001400122b0     rtl:rtl290.bpl
 0001:000112c0       _ZN6System8Sysutils13TryStrToFloatENS_13UnicodeStringEReRKNS0_15TFormatSettingsE 00000001400122c0     rtl:rtl290.bpl
 0001:000112d0       _ZN6System8Sysutils11TryStrToIntENS_13UnicodeStringERi 00000001400122d0     rtl:rtl290.bpl
 0001:000112e0       _ZN6System8Sysutils13TryStrToInt64ENS_13UnicodeStringERx 00000001400122e0     rtl:rtl290.bpl
 0001:000112f0       _ZN6System8Sysutils12TryStrToUIntENS_13UnicodeStringERj 00000001400122f0     rtl:rtl290.bpl
 0001:00011300       _ZN6System8Sysutils14TryStrToUInt64ENS_13UnicodeStringERy 0000000140012300     rtl:rtl290.bpl
 0001:00011310       __stdio_common_vfprintf    0000000140012310     libucrt:api-ms-win-crt-stdio-l1-1-0.dll
 0001:00011320       calloc                     0000000140012320     libucrt:api-ms-win-crt-heap-l1-1-0.dll
 0001:00011330       EnterCriticalSection       0000000140012330     import64:KERNEL32.dll
 0001:00011340       LeaveCriticalSection       0000000140012340     import64:KERNEL32.dll
 0001:00011350       free                       0000000140012350     libucrt:api-ms-win-crt-heap-l1-1-0.dll
 0001:00011360       InitializeCriticalSection  0000000140012360     import64:KERNEL32.dll
 0001:00011370       DeleteCriticalSection      0000000140012370     import64:KERNEL32.dll
 0001:00011380       strlen                     0000000140012380     libucrt:api-ms-win-crt-string-l1-1-0.dll
 0001:00011390       strncmp                    0000000140012390     libucrt:api-ms-win-crt-string-l1-1-0.dll
 0001:000113a0       _ZN6System13LoadResStringEPNS_13TResStringRecE 00000001400123a0     rtl:rtl290.bpl
 0001:000113b0       _ZN6System16_CheckAutoResultEl 00000001400123b0     rtl:rtl290.bpl
 0001:000113c0       _assert                    00000001400123c0     libucrt:api-ms-win-crt-runtime-l1-1-0.dll
 0001:000113d0       _ZN6System7TObject12InheritsFromEPNS_10TMetaClassE 00000001400123d0     rtl:rtl290.bpl
 0001:000113e0       _ZN6System7Typinfo11GetTypeNameEPNS0_9TTypeInfoE 00000001400123e0     rtl:rtl290.bpl
 0001:000113f0       _ZN6System7Typinfo11GetTypeDataEPNS0_9TTypeInfoE 00000001400123f0     rtl:rtl290.bpl
 0001:00011400       _ZN6System7Typinfo9TTypeData11UnitNameFldEv 0000000140012400     rtl:rtl290.bpl
 0001:00011410       _ZN6System7Typinfo22TTypeInfoFieldAccessor8ToStringEv 0000000140012410     rtl:rtl290.bpl
 0001:00011420       _Znwy                      0000000140012420     libc++.dll:libc++.dll
 0001:00011430       _ZNSt3__15mutex4lockEv     0000000140012430     libc++.dll:libc++.dll
 0001:00011440       _ZNSt3__15mutex6unlockEv   0000000140012440     libc++.dll:libc++.dll
 0001:00011450       _ZN6System7TObject9ClassInfoEv 0000000140012450     rtl:rtl290.bpl
 0001:00011460       _ZdlPv                     0000000140012460     libc++.dll:libc++.dll
 0001:00011470       _ZdlPvSt11align_val_t      0000000140012470     libc++.dll:libc++.dll
 0001:00011480       ceilf                      0000000140012480     libucrt:api-ms-win-crt-math-l1-1-0.dll
 0001:00011490       __cxa_allocate_exception   0000000140012490     libc++.dll:libc++.dll
 0001:000114a0       _ZNSt20bad_array_new_lengthC1Ev 00000001400124a0     libc++.dll:libc++.dll
 0001:000114b0       _ZNSt20bad_array_new_lengthD1Ev 00000001400124b0     libc++.dll:libc++.dll
 0001:000114c0       _ZnwySt11align_val_t       00000001400124c0     libc++.dll:libc++.dll
 0001:000114d0       _ZNSt3__112__next_primeEy  00000001400124d0     libc++.dll:libc++.dll
 0001:000114e0       _ZN6System13_UStrFromLStrERNS_13UnicodeStringENS_11AnsiStringTILt0EEE 00000001400124e0     rtl:rtl290.bpl
 0001:000114f0       _ZN6System14_UStrFromPCharERNS_13UnicodeStringEPc 00000001400124f0     rtl:rtl290.bpl
 0001:00011500       _ZN6System14_LStrFromPCharERNS_11AnsiStringTILt0EEEPct 0000000140012500     rtl:rtl290.bpl
 0001:00011510       _ZN6System8_LStrClrEPv     0000000140012510     rtl:rtl290.bpl
 0001:00011520       _ZN6System19UTF8ToUnicodeStringEPKc 0000000140012520     rtl:rtl290.bpl
 0001:00011530       _ZN6System15_UStrFromPWCharERNS_13UnicodeStringEPw 0000000140012530     rtl:rtl290.bpl
 0001:00011540       _ZN6System8_UStrCatERNS_13UnicodeStringES0_ 0000000140012540     rtl:rtl290.bpl
 0001:00011550       _ZN6System9_UStrCat3ERNS_13UnicodeStringES0_S0_ 0000000140012550     rtl:rtl290.bpl
 0001:00011560       _ZN6System11_UStrDeleteERNS_13UnicodeStringEii 0000000140012560     rtl:rtl290.bpl
 0001:00011570       _ZN6System14_UStrSetLengthERNS_13UnicodeStringEi 0000000140012570     rtl:rtl290.bpl
 0001:00011580       _ZN6System8_UStrPosEPwS0_i 0000000140012580     rtl:rtl290.bpl
 0001:00011590       _ZN6System9_UStrCopyENS_13UnicodeStringEii 0000000140012590     rtl:rtl290.bpl
 0001:000115a0       _ZN6System11_UStrInsertENS_13UnicodeStringERS0_i 00000001400125a0     rtl:rtl290.bpl
 0001:000115b0       _ZN6System8_UStrAsgERNS_13UnicodeStringES0_ 00000001400125b0     rtl:rtl290.bpl
 0001:000115c0       _ZN6System8_UStrClrEPv     00000001400125c0     rtl:rtl290.bpl
 0001:000115d0       _ZN6System10_UStrEqualENS_13UnicodeStringES0_ 00000001400125d0     rtl:rtl290.bpl
 0001:000115e0       _ZN6System8_UStrCmpENS_13UnicodeStringES0_ 00000001400125e0     rtl:rtl290.bpl
 0001:000115f0       _ZN6System8_LStrCatERNS_11AnsiStringTILt0EEES1_ 00000001400125f0     rtl:rtl290.bpl
 0001:00011600       _ZN6System9_LStrCat3ERNS_11AnsiStringTILt0EEES1_S1_ 0000000140012600     rtl:rtl290.bpl
 0001:00011610       _ZN6System11_LStrDeleteERNS_11AnsiStringTILt0EEEii 0000000140012610     rtl:rtl290.bpl
 0001:00011620       _ZN6System14_LStrSetLengthERNS_11AnsiStringTILt0EEEit 0000000140012620     rtl:rtl290.bpl
 0001:00011630       _ZN6System8_LStrPosEPcS0_i 0000000140012630     rtl:rtl290.bpl
 0001:00011640       _ZN6System9_LStrCopyENS_11AnsiStringTILt0EEEii 0000000140012640     rtl:rtl290.bpl
 0001:00011650       _ZN6System11_LStrInsertENS_11AnsiStringTILt0EEERS1_i 0000000140012650     rtl:rtl290.bpl
 0001:00011660       _ZN6System10_LStrEqualENS_11AnsiStringTILt0EEES1_ 0000000140012660     rtl:rtl290.bpl
 0001:00011670       _ZN6System8_LStrCmpENS_11AnsiStringTILt0EEES1_ 0000000140012670     rtl:rtl290.bpl
 0001:00011680       _ZN6System8_LStrAsgERNS_11AnsiStringTILt0EEES1_ 0000000140012680     rtl:rtl290.bpl
 0001:00011690       _ZN6System8_WStrAsgERNS_10WideStringES0_ 0000000140012690     rtl:rtl290.bpl
 0001:000116a0       _ZN6System8_WStrClrEPv     00000001400126a0     rtl:rtl290.bpl
 0001:000116b0       _ZN6System13_WStrFromLStrERNS_10WideStringENS_11AnsiStringTILt0EEE 00000001400126b0     rtl:rtl290.bpl
 0001:000116c0       _ZN6System13_WStrFromUStrERNS_10WideStringENS_13UnicodeStringE 00000001400126c0     rtl:rtl290.bpl
 0001:000116d0       _ZN6System14_WStrFromPCharERNS_10WideStringEPc 00000001400126d0     rtl:rtl290.bpl
 0001:000116e0       _ZN6System10_WStrEqualENS_10WideStringES0_ 00000001400126e0     rtl:rtl290.bpl
 0001:000116f0       _ZN6System8_WStrCmpENS_10WideStringES0_ 00000001400126f0     rtl:rtl290.bpl
 0001:00011700       _ZN6System9_WStrCat3ERNS_10WideStringES0_S0_ 0000000140012700     rtl:rtl290.bpl
 0001:00011710       _ZN6System8_WStrPosEPwS0_i 0000000140012710     rtl:rtl290.bpl
 0001:00011720       _ZN6System14_WStrSetLengthERNS_10WideStringEi 0000000140012720     rtl:rtl290.bpl
 0001:00011730       _ZN6System11_WStrDeleteERNS_10WideStringEii 0000000140012730     rtl:rtl290.bpl
 0001:00011740       _ZN6System11_WStrInsertENS_10WideStringERS0_i 0000000140012740     rtl:rtl290.bpl
 0001:00011750       _ZN6System9_WStrCopyENS_10WideStringEii 0000000140012750     rtl:rtl290.bpl
 0001:00011760       _ZN6System8_WStrCatERNS_10WideStringES0_ 0000000140012760     rtl:rtl290.bpl
 0001:00011770       _ZN6System13_UStrFromWStrERNS_13UnicodeStringENS_10WideStringE 0000000140012770     rtl:rtl290.bpl
 0001:00011780       _ZN6System13_LStrFromWStrERNS_11AnsiStringTILt0EEENS_10WideStringEt 0000000140012780     rtl:rtl290.bpl
 0001:00011790       _ZN6System13_LStrFromUStrERNS_11AnsiStringTILt0EEENS_13UnicodeStringEt 0000000140012790     rtl:rtl290.bpl
 0001:000117a0       _ZN6System18_LStrFromPWCharLenERNS_11AnsiStringTILt0EEEPwit 00000001400127a0     rtl:rtl290.bpl
 0001:000117b0       _ZN6System14_LStrFromWCharERNS_11AnsiStringTILt0EEEwt 00000001400127b0     rtl:rtl290.bpl
 0001:000117c0       _ZN6System11Ansistrings15AnsiCompareTextENS_11AnsiStringTILt0EEES2_ 00000001400127c0     rtl:rtl290.bpl
 0001:000117d0       _ZN6System11Ansistrings6FormatENS_11AnsiStringTILt0EEEPKNS_7TVarRecEx 00000001400127d0     rtl:rtl290.bpl
 0001:000117e0       MultiByteToWideChar        00000001400127e0     import64:KERNEL32.dll
 0001:000117f0       memmove                    00000001400127f0     libucrt:api-ms-win-crt-private-l1-1-0.dll
 0001:00011800       _ZN6System3PosENS_11AnsiStringTILt65535EEES1_i 0000000140012800     rtl:rtl290.bpl
 0001:00011810       _ZN6System11Ansistrings13AnsiLowerCaseENS_11AnsiStringTILt0EEE 0000000140012810     rtl:rtl290.bpl
 0001:00011820       _ZN6System11Ansistrings13AnsiUpperCaseENS_11AnsiStringTILt0EEE 0000000140012820     rtl:rtl290.bpl
 0001:00011830       _ZN6System11Ansistrings4TrimENS_11AnsiStringTILt0EEE 0000000140012830     rtl:rtl290.bpl
 0001:00011840       _ZN6System11Ansistrings8TrimLeftENS_11AnsiStringTILt0EEE 0000000140012840     rtl:rtl290.bpl
 0001:00011850       _ZN6System11Ansistrings9TrimRightENS_11AnsiStringTILt0EEE 0000000140012850     rtl:rtl290.bpl
 0001:00011860       _ZN6System11Ansistrings11IsDelimiterENS_11AnsiStringTILt0EEES2_i 0000000140012860     rtl:rtl290.bpl
 0001:00011870       _ZN6System11Ansistrings7AnsiPosENS_11AnsiStringTILt0EEES2_ 0000000140012870     rtl:rtl290.bpl
 0001:00011880       _ZN6System11Ansistrings15IsPathDelimiterENS_11AnsiStringTILt0EEEi 0000000140012880     rtl:rtl290.bpl
 0001:00011890       _ZN6System11Ansistrings13LastDelimiterENS_11AnsiStringTILt0EEES2_ 0000000140012890     rtl:rtl290.bpl
 0001:000118a0       _ZN6System11Ansistrings8ByteTypeENS_11AnsiStringTILt0EEEi 00000001400128a0     rtl:rtl290.bpl
 0001:000118b0       _ZN6System8Sysutils7BytesOfENS_11AnsiStringTILt65535EEE 00000001400128b0     rtl:rtl290.bpl
 0001:000118c0       _ZN6System11Ansistrings12AnsiLastCharENS_11AnsiStringTILt0EEE 00000001400128c0     rtl:rtl290.bpl
 0001:000118d0       _strdup                    00000001400128d0     libucrt:api-ms-win-crt-string-l1-1-0.dll
 0001:000118d0       _strdup                    00000001400128d0     libucrt:api-ms-win-crt-string-l1-1-0.dll
 0001:000118e0       __stdio_common_vsprintf    00000001400128e0     libucrt:api-ms-win-crt-stdio-l1-1-0.dll
 0001:000118f0       _ZN6System11_RaiseAgainEv  00000001400128f0     rtl:rtl290.bpl
 0001:00011900       __delphi_init_eh           0000000140012900     libc++.dll:libc++.dll
 0001:00011910       _ZN6System9RaiseListEv     0000000140012910     rtl:rtl290.bpl
 0001:00011920       _ZN6System12SetRaiseListEPv 0000000140012920     rtl:rtl290.bpl
 0001:00011930       realloc                    0000000140012930     libucrt:api-ms-win-crt-heap-l1-1-0.dll
 0001:00011940       _ZN6System18IsMemoryManagerSetEv 0000000140012940     rtl:rtl290.bpl
 0001:00011950       _ZN6System16SetMemoryManagerERKNS_16TMemoryManagerExE 0000000140012950     rtl:rtl290.bpl
 0002:00000000       .refptr._MINGW_INSTALL_DEBUG_MATHERR 0000000140013000     crt2u.o
 0002:00000008       .refptr.__dyn_tls_init_callback 0000000140013008     crt2u.o
 0002:00000010       .refptr.__globallocalestatus 0000000140013010     crt2u.o
 0002:00000018       .refptr.__image_base__     0000000140013018     crt2u.o
 0002:00000020       .refptr.__imp___winitenv   0000000140013020     crt2u.o
 0002:00000028       .refptr.__mingw_app_type   0000000140013028     crt2u.o
 0002:00000030       .refptr.__mingw_initltsdrot_force 0000000140013030     crt2u.o
 0002:00000038       .refptr.__mingw_initltsdyn_force 0000000140013038     crt2u.o
 0002:00000040       .refptr.__mingw_initltssuo_force 0000000140013040     crt2u.o
 0002:00000048       .refptr.__mingw_oldexcpt_handler 0000000140013048     crt2u.o
 0002:00000050       .refptr.__native_startup_lock 0000000140013050     crt2u.o
 0002:00000058       .refptr.__native_startup_state 0000000140013058     crt2u.o
 0002:00000060       .refptr.__xc_a             0000000140013060     crt2u.o
 0002:00000068       .refptr.__xc_z             0000000140013068     crt2u.o
 0002:00000070       .refptr.__xi_a             0000000140013070     crt2u.o
 0002:00000078       .refptr.__xi_z             0000000140013078     crt2u.o
 0002:00000080       .refptr._commode           0000000140013080     crt2u.o
 0002:00000088       .refptr._dowildcard        0000000140013088     crt2u.o
 0002:00000090       .refptr._fmode             0000000140013090     crt2u.o
 0002:00000098       .refptr._hInstance         0000000140013098     crt2u.o
 0002:000000a0       .refptr._newmode           00000001400130a0     crt2u.o
 0002:000000ec       _ZTRN7Sysinit15PImageThunkDataE 00000001400130ec     sysinit.o
 0002:00000110       _ZTRN7Sysinit15TImageThunkDataE 0000000140013110     sysinit.o
 0002:000001b8       _ZTRN7Sysinit13ImgDelayDescrE 00000001400131b8     sysinit.o
 0002:000002b8       _ZTRN7Sysinit14PImgDelayDescrE 00000001400132b8     sysinit.o
 0002:000002dc       _ZTRN7Sysinit13DelayLoadProcE 00000001400132dc     sysinit.o
 0002:00000360       _ZTRN7Sysinit14PDelayLoadProcE 0000000140013360     sysinit.o
 0002:00000384       _ZTRN7Sysinit13DelayLoadInfoE 0000000140013384     sysinit.o
 0002:00000478       _ZTRN7Sysinit14PDelayLoadInfoE 0000000140013478     sysinit.o
 0002:0000049c       _ZTRN7Sysinit10PfnDliHookE 000000014001349c     sysinit.o
 0002:00005a90       _ZTV13TMainpageform        0000000140018a90     MainPage.o
 0002:00005f30       _ZTX13TMainpageform        0000000140018f30     MainPage.o
 0002:00005f50       _ZTF13TMainpageform        0000000140018f50     MainPage.o
 0002:00005fc0       _ZTM13TMainpageform        0000000140018fc0     MainPage.o
 0002:00005ff0       _ZTR13TMainpageform        0000000140018ff0     MainPage.o
 0002:00006030       _ZTV12TPC1pageform         0000000140019030     PC1page.o
 0002:000064d0       _ZTX12TPC1pageform         00000001400194d0     PC1page.o
 0002:000064f0       _ZTF12TPC1pageform         00000001400194f0     PC1page.o
 0002:00006610       _ZTR12TPC1pageform         0000000140019610     PC1page.o
 0002:00006650       _ZTV12TPC2pageform         0000000140019650     PC2page.o
 0002:00006af0       _ZTX12TPC2pageform         0000000140019af0     PC2page.o
 0002:00006b10       _ZTF12TPC2pageform         0000000140019b10     PC2page.o
 0002:00006c30       _ZTR12TPC2pageform         0000000140019c30     PC2page.o
 0002:00006c70       _ZTV12TPC3pageform         0000000140019c70     PC3page.o
 0002:00007110       _ZTX12TPC3pageform         000000014001a110     PC3page.o
 0002:00007130       _ZTF12TPC3pageform         000000014001a130     PC3page.o
 0002:00007250       _ZTR12TPC3pageform         000000014001a250     PC3page.o
 0002:00007290       _ZTV12TPC4pageform         000000014001a290     PC4page.o
 0002:00007730       _ZTX12TPC4pageform         000000014001a730     PC4page.o
 0002:00007750       _ZTF12TPC4pageform         000000014001a750     PC4page.o
 0002:00007870       _ZTR12TPC4pageform         000000014001a870     PC4page.o
 0002:000078b0       .refptr.Mainpageform       000000014001a8b0     Project-2nd-try.o
 0002:000078b8       .refptr.PC1pageform        000000014001a8b8     Project-2nd-try.o
 0002:000078c0       .refptr.PC2pageform        000000014001a8c0     Project-2nd-try.o
 0002:000078c8       .refptr.PC3pageform        000000014001a8c8     Project-2nd-try.o
 0002:000078d0       .refptr.PC4pageform        000000014001a8d0     Project-2nd-try.o
 0002:000078d8       .refptr._ZTRN6System8Sysutils9ExceptionE 000000014001a8d8     Project-2nd-try.o
 0002:000078e0       .refptr._ZTV12TPC1pageform 000000014001a8e0     Project-2nd-try.o
 0002:000078e8       .refptr._ZTV12TPC2pageform 000000014001a8e8     Project-2nd-try.o
 0002:000078f0       .refptr._ZTV12TPC3pageform 000000014001a8f0     Project-2nd-try.o
 0002:000078f8       .refptr._ZTV12TPC4pageform 000000014001a8f8     Project-2nd-try.o
 0002:00007900       .refptr._ZTV13TMainpageform 000000014001a900     Project-2nd-try.o
 0002:00007908       .refptr._ZTVN6System8Sysutils9ExceptionE 000000014001a908     Project-2nd-try.o
 0002:00007928       .refptr.__imp__tzset       000000014001a928     libucrt:lib64_libucrt_extra_a-ucrtbase_compat.o
 0002:00007930       .refptr.__mingw_module_is_dll 000000014001a930     libucrt:lib64_libucrt_extra_a-ucrtbase_compat.o
 0002:00007938       .refptr.__CTOR_LIST__      000000014001a938     libmingw32:lib64_libmingw32_a-gccmain.o
 0002:00007948       _tls_used                  000000014001a948     libmingw32:lib64_libmingw32_a-tlssup.o
 0002:00007970       __dyn_tls_init_callback    000000014001a970     libmingw32:lib64_libmingw32_a-tlssup.o
 0002:00007978       .refptr._CRT_MT            000000014001a978     libmingw32:lib64_libmingw32_a-tlssup.o
 0002:00007bd8       .refptr.__RUNTIME_PSEUDO_RELOC_LIST_END__ 000000014001abd8     libmingw32:lib64_libmingw32_a-pseudo-reloc.o
 0002:00007be0       .refptr.__RUNTIME_PSEUDO_RELOC_LIST__ 000000014001abe0     libmingw32:lib64_libmingw32_a-pseudo-reloc.o
 0002:00007be8       .refptr._ZN6System10_init_instE 000000014001abe8     rtle:ustring.o
 0002:00007bf0       .refptr._ZTRN6System8Sysutils11ERangeErrorE 000000014001abf0     rtle:ustring.o
 0002:00007bf8       .refptr._ZTVN6System8Sysutils11ERangeErrorE 000000014001abf8     rtle:ustring.o
 0002:00007c08       _ZN6System10_init_instE    000000014001ac08     rtle:syssupp.o
 0002:00007db2       _ZTSSt20bad_array_new_length 000000014001adb2     rtle:syssupp.o
 0002:00007dcb       _ZTSSt9bad_alloc           000000014001adcb     rtle:syssupp.o
 0002:00007dd8       _ZTSSt9exception           000000014001add8     rtle:syssupp.o
 0002:00007de8       _ZTISt9exception           000000014001ade8     rtle:syssupp.o
 0002:00007df8       _ZTISt9bad_alloc           000000014001adf8     rtle:syssupp.o
 0002:00007e10       _ZTISt20bad_array_new_length 000000014001ae10     rtle:syssupp.o
 0002:00007e98       .refptr.__EMBT_INIT_LIST_BEGIN__ 000000014001ae98     libmingw32:lib64_libmingw32_a-start_delphi.o
 0002:00007ea0       .refptr.__EMBT_INIT_LIST_END__ 000000014001aea0     libmingw32:lib64_libmingw32_a-start_delphi.o
 0002:00007ea8       .refptr.__isDLL            000000014001aea8     libmingw32:lib64_libmingw32_a-start_delphi.o
 0002:00007eb0       .refptr.__isGUI            000000014001aeb0     libmingw32:lib64_libmingw32_a-start_delphi.o
 0002:00007eb8       .refptr.__isVCLPackage     000000014001aeb8     libmingw32:lib64_libmingw32_a-start_delphi.o
 0002:00007f2c       _ZTRN6System8Internal7Initcpp15PUnitDescriptorE 000000014001af2c     rtl:System.Internal.InitCPP.o
 0002:00007f50       _ZTRN6System8Internal7Initcpp16PPUnitDescriptorE 000000014001af50     rtl:System.Internal.InitCPP.o
 0002:00007f74       _ZTRN6System8Internal7Initcpp17PPPUnitDescriptorE 000000014001af74     rtl:System.Internal.InitCPP.o
 0002:00007f9c       _ZTRN6System8Internal7Initcpp13TUnitInitProcE 000000014001af9c     rtl:System.Internal.InitCPP.o
 0002:00007fd8       _ZTRN6System8Internal7Initcpp13TUnitFiniProcE 000000014001afd8     rtl:System.Internal.InitCPP.o
 0002:00008014       _ZTRN6System8Internal7Initcpp15TUnitDescriptorE 000000014001b014     rtl:System.Internal.InitCPP.o
 0002:00008188       _ZTRN6System8Internal7Initcpp20PUnitDescriptorBlockE 000000014001b188     rtl:System.Internal.InitCPP.o
 0002:000081b0       _ZTRN6System8Internal7Initcpp21PPUnitDescriptorBlockE 000000014001b1b0     rtl:System.Internal.InitCPP.o
 0002:000081dc       _ZTRN6System8Internal7Initcpp20TUnitDescriptorBlockE 000000014001b1dc     rtl:System.Internal.InitCPP.o
 0000:00000000       __RUNTIME_PSEUDO_RELOC_LIST__ 000000014001b260     <linker-defined>
 0002:000082d8       __xc_a                     000000014001b2d8     libmingw32:lib64_libmingw32_a-cinitexe.o
 0000:00000000       __RUNTIME_PSEUDO_RELOC_LIST_END__ 000000014001b2d8     <linker-defined>
 0002:000082e0       __mingw_pcppinit           000000014001b2e0     crt2u.o
 0002:000082e8       __xc_z                     000000014001b2e8     libmingw32:lib64_libmingw32_a-cinitexe.o
 0002:00008300       __xi_a                     000000014001b300     libmingw32:lib64_libmingw32_a-cinitexe.o
 0002:00008308       __mingw_pcinit             000000014001b308     crt2u.o
 0002:00008310       __xi_z                     000000014001b310     libmingw32:lib64_libmingw32_a-cinitexe.o
 0002:00008318       __xl_a                     000000014001b318     libmingw32:lib64_libmingw32_a-tlssup.o
 0002:00008320       __xl_c                     000000014001b320     libmingw32:lib64_libmingw32_a-tlssup.o
 0002:00008328       __xl_d                     000000014001b328     libmingw32:lib64_libmingw32_a-tlssup.o
 0002:00008330       __xl_z                     000000014001b330     libmingw32:lib64_libmingw32_a-tlssup.o
 0000:00000000       __CTOR_LIST__              000000014001b338     <linker-defined>
 0000:00000000       __DTOR_LIST__              000000014001b360     <linker-defined>
 0002:00009198       __imp__ZN6System10_LStrEqualENS_11AnsiStringTILt0EEES1_ 000000014001c198     rtl:rtl290.bpl
 0002:000091a0       __imp__ZN6System10_UStrEqualENS_13UnicodeStringES0_ 000000014001c1a0     rtl:rtl290.bpl
 0002:000091a8       __imp__ZN6System10_WStrEqualENS_10WideStringES0_ 000000014001c1a8     rtl:rtl290.bpl
 0002:000091b0       __imp__ZN6System11Ansistrings11IsDelimiterENS_11AnsiStringTILt0EEES2_i 000000014001c1b0     rtl:rtl290.bpl
 0002:000091b8       __imp__ZN6System11Ansistrings12AnsiLastCharENS_11AnsiStringTILt0EEE 000000014001c1b8     rtl:rtl290.bpl
 0002:000091c0       __imp__ZN6System11Ansistrings13AnsiLowerCaseENS_11AnsiStringTILt0EEE 000000014001c1c0     rtl:rtl290.bpl
 0002:000091c8       __imp__ZN6System11Ansistrings13AnsiUpperCaseENS_11AnsiStringTILt0EEE 000000014001c1c8     rtl:rtl290.bpl
 0002:000091d0       __imp__ZN6System11Ansistrings13LastDelimiterENS_11AnsiStringTILt0EEES2_ 000000014001c1d0     rtl:rtl290.bpl
 0002:000091d8       __imp__ZN6System11Ansistrings15AnsiCompareTextENS_11AnsiStringTILt0EEES2_ 000000014001c1d8     rtl:rtl290.bpl
 0002:000091e0       __imp__ZN6System11Ansistrings15IsPathDelimiterENS_11AnsiStringTILt0EEEi 000000014001c1e0     rtl:rtl290.bpl
 0002:000091e8       __imp__ZN6System11Ansistrings4TrimENS_11AnsiStringTILt0EEE 000000014001c1e8     rtl:rtl290.bpl
 0002:000091f0       __imp__ZN6System11Ansistrings6FormatENS_11AnsiStringTILt0EEEPKNS_7TVarRecEx 000000014001c1f0     rtl:rtl290.bpl
 0002:000091f8       __imp__ZN6System11Ansistrings7AnsiPosENS_11AnsiStringTILt0EEES2_ 000000014001c1f8     rtl:rtl290.bpl
 0002:00009200       __imp__ZN6System11Ansistrings8ByteTypeENS_11AnsiStringTILt0EEEi 000000014001c200     rtl:rtl290.bpl
 0002:00009208       __imp__ZN6System11Ansistrings8TrimLeftENS_11AnsiStringTILt0EEE 000000014001c208     rtl:rtl290.bpl
 0002:00009210       __imp__ZN6System11Ansistrings9TrimRightENS_11AnsiStringTILt0EEE 000000014001c210     rtl:rtl290.bpl
 0002:00009218       __imp__ZN6System11_DoneExceptEv 000000014001c218     rtl:rtl290.bpl
 0002:00009220       __imp__ZN6System11_LStrDeleteERNS_11AnsiStringTILt0EEEii 000000014001c220     rtl:rtl290.bpl
 0002:00009228       __imp__ZN6System11_LStrInsertENS_11AnsiStringTILt0EEERS1_i 000000014001c228     rtl:rtl290.bpl
 0002:00009230       __imp__ZN6System11_RaiseAgainEv 000000014001c230     rtl:rtl290.bpl
 0002:00009238       __imp__ZN6System11_UStrDeleteERNS_13UnicodeStringEii 000000014001c238     rtl:rtl290.bpl
 0002:00009240       __imp__ZN6System11_UStrInsertENS_13UnicodeStringERS0_i 000000014001c240     rtl:rtl290.bpl
 0002:00009248       __imp__ZN6System11_WStrDeleteERNS_10WideStringEii 000000014001c248     rtl:rtl290.bpl
 0002:00009250       __imp__ZN6System11_WStrInsertENS_10WideStringERS0_i 000000014001c250     rtl:rtl290.bpl
 0002:00009258       .refptr._ZN6System12MainInstanceE 000000014001c258     rtl:rtl290.bpl
 0002:00009258       _ZN6System12MainInstanceE  000000014001c258     rtl:rtl290.bpl
 0002:00009260       __imp__ZN6System12SetRaiseListEPv 000000014001c260     rtl:rtl290.bpl
 0002:00009268       __imp__ZN6System12StringOfCharEci 000000014001c268     rtl:rtl290.bpl
 0002:00009270       __imp__ZN6System12StringOfCharEwi 000000014001c270     rtl:rtl290.bpl
 0002:00009278       __imp__ZN6System12UniqueStringERNS_13UnicodeStringE 000000014001c278     rtl:rtl290.bpl
 0002:00009280       __imp__ZN6System12_PackageLoadEPNS_16PackageInfoTableEPNS_10TLibModuleE 000000014001c280     rtl:rtl290.bpl
 0002:00009288       .refptr._ZN6System13ExceptObjProcE 000000014001c288     rtl:rtl290.bpl
 0002:00009288       _ZN6System13ExceptObjProcE 000000014001c288     rtl:rtl290.bpl
 0002:00009290       __imp__ZN6System13FindHInstanceEPv 000000014001c290     rtl:rtl290.bpl
 0002:00009298       .refptr._ZN6System13IsMultiThreadE 000000014001c298     rtl:rtl290.bpl
 0002:00009298       _ZN6System13IsMultiThreadE 000000014001c298     rtl:rtl290.bpl
 0002:000092a0       __imp__ZN6System13LoadResStringEPNS_13TResStringRecE 000000014001c2a0     rtl:rtl290.bpl
 0002:000092a8       __imp__ZN6System13_LStrFromUStrERNS_11AnsiStringTILt0EEENS_13UnicodeStringEt 000000014001c2a8     rtl:rtl290.bpl
 0002:000092b0       __imp__ZN6System13_LStrFromWStrERNS_11AnsiStringTILt0EEENS_10WideStringEt 000000014001c2b0     rtl:rtl290.bpl
 0002:000092b8       __imp__ZN6System13_UStrFromLStrERNS_13UnicodeStringENS_11AnsiStringTILt0EEE 000000014001c2b8     rtl:rtl290.bpl
 0002:000092c0       __imp__ZN6System13_UStrFromWStrERNS_13UnicodeStringENS_10WideStringE 000000014001c2c0     rtl:rtl290.bpl
 0002:000092c8       __imp__ZN6System13_WStrFromLStrERNS_10WideStringENS_11AnsiStringTILt0EEE 000000014001c2c8     rtl:rtl290.bpl
 0002:000092d0       __imp__ZN6System13_WStrFromUStrERNS_10WideStringENS_13UnicodeStringE 000000014001c2d0     rtl:rtl290.bpl
 0002:000092d8       __imp__ZN6System14RegisterModuleEPNS_10TLibModuleE 000000014001c2d8     rtl:rtl290.bpl
 0002:000092e0       __imp__ZN6System14_LStrFromPCharERNS_11AnsiStringTILt0EEEPct 000000014001c2e0     rtl:rtl290.bpl
 0002:000092e8       __imp__ZN6System14_LStrFromWCharERNS_11AnsiStringTILt0EEEwt 000000014001c2e8     rtl:rtl290.bpl
 0002:000092f0       __imp__ZN6System14_LStrSetLengthERNS_11AnsiStringTILt0EEEit 000000014001c2f0     rtl:rtl290.bpl
 0002:000092f8       __imp__ZN6System14_PackageUnloadEPNS_16PackageInfoTableEPNS_10TLibModuleE 000000014001c2f8     rtl:rtl290.bpl
 0002:00009300       __imp__ZN6System14_UStrFromPCharERNS_13UnicodeStringEPc 000000014001c300     rtl:rtl290.bpl
 0002:00009308       __imp__ZN6System14_UStrSetLengthERNS_13UnicodeStringEi 000000014001c308     rtl:rtl290.bpl
 0002:00009310       __imp__ZN6System14_WStrFromPCharERNS_10WideStringEPc 000000014001c310     rtl:rtl290.bpl
 0002:00009318       __imp__ZN6System14_WStrSetLengthERNS_10WideStringEi 000000014001c318     rtl:rtl290.bpl
 0002:00009320       __imp__ZN6System14initializationEv 000000014001c320     rtl:rtl290.bpl
 0002:00009328       __imp__ZN6System15_UStrFromPWCharERNS_13UnicodeStringEPw 000000014001c328     rtl:rtl290.bpl
 0002:00009330       __imp__ZN6System16SetMemoryManagerERKNS_16TMemoryManagerExE 000000014001c330     rtl:rtl290.bpl
 0002:00009338       __imp__ZN6System16UnregisterModuleEPNS_10TLibModuleE 000000014001c338     rtl:rtl290.bpl
 0002:00009340       __imp__ZN6System16_CheckAutoResultEl 000000014001c340     rtl:rtl290.bpl
 0002:00009348       __imp__ZN6System17_DestroyExceptionEP18TExceptionPointersy 000000014001c348     rtl:rtl290.bpl
 0002:00009350       __imp__ZN6System18IsMemoryManagerSetEv 000000014001c350     rtl:rtl290.bpl
 0002:00009358       __imp__ZN6System18_LStrFromPWCharLenERNS_11AnsiStringTILt0EEEPwit 000000014001c358     rtl:rtl290.bpl
 0002:00009360       __imp__ZN6System19UTF8ToUnicodeStringEPKc 000000014001c360     rtl:rtl290.bpl
 0002:00009368       .refptr._ZN6System21DefaultSystemCodePageE 000000014001c368     rtl:rtl290.bpl
 0002:00009368       _ZN6System21DefaultSystemCodePageE 000000014001c368     rtl:rtl290.bpl
 0002:00009370       __imp__ZN6System23_DelphiExceptionHandlerEPNS_16TExceptionRecordEyPvS2_ 000000014001c370     rtl:rtl290.bpl
 0002:00009378       __imp__ZN6System3PosENS_11AnsiStringTILt65535EEES1_i 000000014001c378     rtl:rtl290.bpl
 0002:00009380       _ZN6System3Win6Comobj11CoInitFlagsE 000000014001c380     rtl:rtl290.bpl
 0002:00009388       __imp__ZN6System7Classes10TComponent10CanObserveEi 000000014001c388     rtl:rtl290.bpl
 0002:00009390       __imp__ZN6System7Classes10TComponent10WriteStateEPNS0_7TWriterE 000000014001c390     rtl:rtl290.bpl
 0002:00009398       __imp__ZN6System7Classes10TComponent12GetObserversEv 000000014001c398     rtl:rtl290.bpl
 0002:000093a0       __imp__ZN6System7Classes10TComponent12UpdateActionEPNS0_12TBasicActionE 000000014001c3a0     rtl:rtl290.bpl
 0002:000093a8       __imp__ZN6System7Classes10TComponent13AsyncScheduleEPNS0_16TBaseAsyncResultE 000000014001c3a8     rtl:rtl290.bpl
 0002:000093b0       __imp__ZN6System7Classes10TComponent13ObserverAddedEiNS_15DelphiInterfaceINS0_9IObserverEEE 000000014001c3b0     rtl:rtl290.bpl
 0002:000093b8       __imp__ZN6System7Classes10TComponent14UpdateRegistryEbNS_13UnicodeStringES2_ 000000014001c3b8     rtl:rtl290.bpl
 0002:000093c0       __imp__ZN6System7Classes10TComponent17SafeCallExceptionEPNS_7TObjectEPv 000000014001c3c0     rtl:rtl290.bpl
 0002:000093c8       __imp__ZN6System7Classes10TComponent7SetNameENS_13UnicodeStringE 000000014001c3c8     rtl:rtl290.bpl
 0002:000093d0       __imp__ZN6System7Classes10TComponent9ReadStateEPNS0_7TReaderE 000000014001c3d0     rtl:rtl290.bpl
 0002:000093d8       __imp__ZN6System7Classes11TPersistent6AssignEPS1_ 000000014001c3d8     rtl:rtl290.bpl
 0002:000093e0       __imp__ZN6System7Classes11TPersistent8AssignToEPS1_ 000000014001c3e0     rtl:rtl290.bpl
 0002:000093e8       _ZN6System7CmdLineE        000000014001c3e8     rtl:rtl290.bpl
 0002:000093f0       __imp__ZN6System7TObject11GetHashCodeEv 000000014001c3f0     rtl:rtl290.bpl
 0002:000093f8       __imp__ZN6System7TObject11NewInstanceEv 000000014001c3f8     rtl:rtl290.bpl
 0002:00009400       __imp__ZN6System7TObject12FreeInstanceEv 000000014001c400     rtl:rtl290.bpl
 0002:00009408       __imp__ZN6System7TObject12InheritsFromEPNS_10TMetaClassE 000000014001c408     rtl:rtl290.bpl
 0002:00009410       __imp__ZN6System7TObject14DefaultHandlerEPv 000000014001c410     rtl:rtl290.bpl
 0002:00009418       __imp__ZN6System7TObject6EqualsEPS0_ 000000014001c418     rtl:rtl290.bpl
 0002:00009420       __imp__ZN6System7TObject8DispatchEPv 000000014001c420     rtl:rtl290.bpl
 0002:00009428       __imp__ZN6System7TObject8ToStringEv 000000014001c428     rtl:rtl290.bpl
 0002:00009430       __imp__ZN6System7TObject9ClassInfoEv 000000014001c430     rtl:rtl290.bpl
 0002:00009438       __imp__ZN6System7Typinfo11GetTypeDataEPNS0_9TTypeInfoE 000000014001c438     rtl:rtl290.bpl
 0002:00009440       __imp__ZN6System7Typinfo11GetTypeNameEPNS0_9TTypeInfoE 000000014001c440     rtl:rtl290.bpl
 0002:00009448       __imp__ZN6System7Typinfo22TTypeInfoFieldAccessor8ToStringEv 000000014001c448     rtl:rtl290.bpl
 0002:00009450       __imp__ZN6System7Typinfo9TTypeData11UnitNameFldEv 000000014001c450     rtl:rtl290.bpl
 0002:00009458       _ZN6System8ExitProcE       000000014001c458     rtl:rtl290.bpl
 0002:00009460       __imp__ZN6System8Syncobjs12TInterlocked8ExchangeERPvS2_ 000000014001c460     rtl:rtl290.bpl
 0002:00009468       __imp__ZN6System8Syncobjs12TInterlocked9IncrementERi 000000014001c468     rtl:rtl290.bpl
 0002:00009470       .refptr._ZN6System8Sysconst12_SRangeErrorE 000000014001c470     rtl:rtl290.bpl
 0002:00009470       _ZN6System8Sysconst12_SRangeErrorE 000000014001c470     rtl:rtl290.bpl
 0002:00009478       __imp__ZN6System8Sysutils10CurrToStrFENS_8CurrencyENS0_12TFloatFormatEi 000000014001c478     rtl:rtl290.bpl
 0002:00009480       __imp__ZN6System8Sysutils10FloatToStrEe 000000014001c480     rtl:rtl290.bpl
 0002:00009488       __imp__ZN6System8Sysutils10FloatToStrEeRKNS0_15TFormatSettingsE 000000014001c488     rtl:rtl290.bpl
 0002:00009490       __imp__ZN6System8Sysutils10FmtLoadStrEyPKNS_7TVarRecEx 000000014001c490     rtl:rtl290.bpl
 0002:00009498       __imp__ZN6System8Sysutils10StrToFloatENS_13UnicodeStringE 000000014001c498     rtl:rtl290.bpl
 0002:000094a0       __imp__ZN6System8Sysutils11FloatToStrFEeNS0_12TFloatFormatEii 000000014001c4a0     rtl:rtl290.bpl
 0002:000094a8       __imp__ZN6System8Sysutils11FormatFloatENS_13UnicodeStringEe 000000014001c4a8     rtl:rtl290.bpl
 0002:000094b0       __imp__ZN6System8Sysutils11IsDelimiterENS_13UnicodeStringES1_i 000000014001c4b0     rtl:rtl290.bpl
 0002:000094b8       __imp__ZN6System8Sysutils11StrToIntDefENS_13UnicodeStringEi 000000014001c4b8     rtl:rtl290.bpl
 0002:000094c0       __imp__ZN6System8Sysutils11TryStrToIntENS_13UnicodeStringERi 000000014001c4c0     rtl:rtl290.bpl
 0002:000094c8       __imp__ZN6System8Sysutils12AnsiLastCharENS_13UnicodeStringE 000000014001c4c8     rtl:rtl290.bpl
 0002:000094d0       __imp__ZN6System8Sysutils12TryStrToBoolENS_13UnicodeStringERb 000000014001c4d0     rtl:rtl290.bpl
 0002:000094d8       __imp__ZN6System8Sysutils12TryStrToUIntENS_13UnicodeStringERj 000000014001c4d8     rtl:rtl290.bpl
 0002:000094e0       __imp__ZN6System8Sysutils13AnsiLowerCaseENS_13UnicodeStringE 000000014001c4e0     rtl:rtl290.bpl
 0002:000094e8       __imp__ZN6System8Sysutils13AnsiUpperCaseENS_13UnicodeStringE 000000014001c4e8     rtl:rtl290.bpl
 0002:000094f0       __imp__ZN6System8Sysutils13LastDelimiterENS_13UnicodeStringES1_ 000000014001c4f0     rtl:rtl290.bpl
 0002:000094f8       __imp__ZN6System8Sysutils13TryStrToFloatENS_13UnicodeStringERe 000000014001c4f8     rtl:rtl290.bpl
 0002:00009500       __imp__ZN6System8Sysutils13TryStrToFloatENS_13UnicodeStringEReRKNS0_15TFormatSettingsE 000000014001c500     rtl:rtl290.bpl
 0002:00009508       __imp__ZN6System8Sysutils13TryStrToInt64ENS_13UnicodeStringERx 000000014001c508     rtl:rtl290.bpl
 0002:00009510       __imp__ZN6System8Sysutils14TryStrToUInt64ENS_13UnicodeStringERy 000000014001c510     rtl:rtl290.bpl
 0002:00009518       __imp__ZN6System8Sysutils15IsPathDelimiterENS_13UnicodeStringEi 000000014001c518     rtl:rtl290.bpl
 0002:00009520       __imp__ZN6System8Sysutils4TrimENS_13UnicodeStringE 000000014001c520     rtl:rtl290.bpl
 0002:00009528       __imp__ZN6System8Sysutils6FormatENS_13UnicodeStringEPKNS_7TVarRecEx 000000014001c528     rtl:rtl290.bpl
 0002:00009530       __imp__ZN6System8Sysutils7BytesOfENS_11AnsiStringTILt65535EEE 000000014001c530     rtl:rtl290.bpl
 0002:00009538       __imp__ZN6System8Sysutils7BytesOfENS_13UnicodeStringE 000000014001c538     rtl:rtl290.bpl
 0002:00009540       __imp__ZN6System8Sysutils7LoadStrEy 000000014001c540     rtl:rtl290.bpl
 0002:00009548       __imp__ZN6System8Sysutils8ByteTypeENS_13UnicodeStringEi 000000014001c548     rtl:rtl290.bpl
 0002:00009550       __imp__ZN6System8Sysutils8IntToHexEii 000000014001c550     rtl:rtl290.bpl
 0002:00009558       __imp__ZN6System8Sysutils8IntToStrEi 000000014001c558     rtl:rtl290.bpl
 0002:00009560       __imp__ZN6System8Sysutils8IntToStrEx 000000014001c560     rtl:rtl290.bpl
 0002:00009568       __imp__ZN6System8Sysutils8StrToIntENS_13UnicodeStringE 000000014001c568     rtl:rtl290.bpl
 0002:00009570       __imp__ZN6System8Sysutils8TrimLeftENS_13UnicodeStringE 000000014001c570     rtl:rtl290.bpl
 0002:00009578       __imp__ZN6System8Sysutils9BoolToStrEbb 000000014001c578     rtl:rtl290.bpl
 0002:00009580       __imp__ZN6System8Sysutils9CurrToStrENS_8CurrencyE 000000014001c580     rtl:rtl290.bpl
 0002:00009588       __imp__ZN6System8Sysutils9ExceptionC3ENS_13UnicodeStringE 000000014001c588     rtl:rtl290.bpl
 0002:00009590       __imp__ZN6System8Sysutils9ExceptionD0Ev 000000014001c590     rtl:rtl290.bpl
 0002:00009598       __imp__ZN6System8Sysutils9TrimRightENS_13UnicodeStringE 000000014001c598     rtl:rtl290.bpl
 0002:000095a0       __imp__ZN6System8Sysutils9UIntToStrEj 000000014001c5a0     rtl:rtl290.bpl
 0002:000095a8       __imp__ZN6System8Sysutils9UIntToStrEy 000000014001c5a8     rtl:rtl290.bpl
 0002:000095b0       __imp__ZN6System8_LStrAsgERNS_11AnsiStringTILt0EEES1_ 000000014001c5b0     rtl:rtl290.bpl
 0002:000095b8       __imp__ZN6System8_LStrCatERNS_11AnsiStringTILt0EEES1_ 000000014001c5b8     rtl:rtl290.bpl
 0002:000095c0       __imp__ZN6System8_LStrClrEPv 000000014001c5c0     rtl:rtl290.bpl
 0002:000095c8       __imp__ZN6System8_LStrCmpENS_11AnsiStringTILt0EEES1_ 000000014001c5c8     rtl:rtl290.bpl
 0002:000095d0       __imp__ZN6System8_LStrPosEPcS0_i 000000014001c5d0     rtl:rtl290.bpl
 0002:000095d8       __imp__ZN6System8_UStrAsgERNS_13UnicodeStringES0_ 000000014001c5d8     rtl:rtl290.bpl
 0002:000095e0       __imp__ZN6System8_UStrCatERNS_13UnicodeStringES0_ 000000014001c5e0     rtl:rtl290.bpl
 0002:000095e8       __imp__ZN6System8_UStrClrEPv 000000014001c5e8     rtl:rtl290.bpl
 0002:000095f0       __imp__ZN6System8_UStrCmpENS_13UnicodeStringES0_ 000000014001c5f0     rtl:rtl290.bpl
 0002:000095f8       __imp__ZN6System8_UStrPosEPwS0_i 000000014001c5f8     rtl:rtl290.bpl
 0002:00009600       __imp__ZN6System8_WStrAsgERNS_10WideStringES0_ 000000014001c600     rtl:rtl290.bpl
 0002:00009608       __imp__ZN6System8_WStrCatERNS_10WideStringES0_ 000000014001c608     rtl:rtl290.bpl
 0002:00009610       __imp__ZN6System8_WStrClrEPv 000000014001c610     rtl:rtl290.bpl
 0002:00009618       __imp__ZN6System8_WStrCmpENS_10WideStringES0_ 000000014001c618     rtl:rtl290.bpl
 0002:00009620       __imp__ZN6System8_WStrPosEPwS0_i 000000014001c620     rtl:rtl290.bpl
 0002:00009628       _ZN6System9IsConsoleE      000000014001c628     rtl:rtl290.bpl
 0002:00009630       _ZN6System9IsLibraryE      000000014001c630     rtl:rtl290.bpl
 0002:00009638       __imp__ZN6System9RaiseListEv 000000014001c638     rtl:rtl290.bpl
 0002:00009640       __imp__ZN6System9_LStrCat3ERNS_11AnsiStringTILt0EEES1_S1_ 000000014001c640     rtl:rtl290.bpl
 0002:00009648       __imp__ZN6System9_LStrCopyENS_11AnsiStringTILt0EEEii 000000014001c648     rtl:rtl290.bpl
 0002:00009650       __imp__ZN6System9_RunErrorEh 000000014001c650     rtl:rtl290.bpl
 0002:00009658       __imp__ZN6System9_StartExeEPNS_16PackageInfoTableEPNS_10TLibModuleE 000000014001c658     rtl:rtl290.bpl
 0002:00009660       __imp__ZN6System9_StartLibEPNS_12TInitContextEPNS_16PackageInfoTableEPNS_10TLibModuleEPvPFviS6_EyjS6_ 000000014001c660     rtl:rtl290.bpl
 0002:00009668       __imp__ZN6System9_UStrCat3ERNS_13UnicodeStringES0_S0_ 000000014001c668     rtl:rtl290.bpl
 0002:00009670       __imp__ZN6System9_UStrCopyENS_13UnicodeStringEii 000000014001c670     rtl:rtl290.bpl
 0002:00009678       __imp__ZN6System9_WStrCat3ERNS_10WideStringES0_S0_ 000000014001c678     rtl:rtl290.bpl
 0002:00009680       __imp__ZN6System9_WStrCopyENS_10WideStringEii 000000014001c680     rtl:rtl290.bpl
 0002:00009688       _ZTRN6System13PPointerArrayE 000000014001c688     rtl:rtl290.bpl
 0002:00009690       _ZTRN6System4WordE         000000014001c690     rtl:rtl290.bpl
 0002:00009698       _ZTRN6System6UInt64E       000000014001c698     rtl:rtl290.bpl
 0002:000096a0       _ZTRN6System7IntegerE      000000014001c6a0     rtl:rtl290.bpl
 0002:000096a8       _ZTRN6System7PointerE      000000014001c6a8     rtl:rtl290.bpl
 0002:000096b0       _ZTRN6System8CardinalE     000000014001c6b0     rtl:rtl290.bpl
 0002:000096b8       _ZTRN6System8LongBoolE     000000014001c6b8     rtl:rtl290.bpl
 0002:000096c0       _ZTRN6System8PPointerE     000000014001c6c0     rtl:rtl290.bpl
 0002:000096c8       _ZTRN6System8Sysutils11ERangeErrorE 000000014001c6c8     rtl:rtl290.bpl
 0002:000096d0       _ZTRN6System8Sysutils9ExceptionE 000000014001c6d0     rtl:rtl290.bpl
 0002:000096d8       _ZTRN6System9PAnsiCharE    000000014001c6d8     rtl:rtl290.bpl
 0002:000096e0       _ZTRN6System9PWideCharE    000000014001c6e0     rtl:rtl290.bpl
 0002:000096e8       _ZTVN6System8Sysutils11ERangeErrorE 000000014001c6e8     rtl:rtl290.bpl
 0002:000096f0       _ZTVN6System8Sysutils9ExceptionE 000000014001c6f0     rtl:rtl290.bpl
 0002:000096f8       __init_record_System       000000014001c6f8     rtl:rtl290.bpl
 0002:00009700       __init_record_System_Ansistrings 000000014001c700     rtl:rtl290.bpl
 0002:00009708       __init_record_System_Classes 000000014001c708     rtl:rtl290.bpl
 0002:00009710       __init_record_System_Startupcopy 000000014001c710     rtl:rtl290.bpl
 0002:00009718       __init_record_System_Syncobjs 000000014001c718     rtl:rtl290.bpl
 0002:00009720       __init_record_System_Sysconst 000000014001c720     rtl:rtl290.bpl
 0002:00009728       __init_record_System_Sysutils 000000014001c728     rtl:rtl290.bpl
 0002:00009730       __init_record_System_Typinfo 000000014001c730     rtl:rtl290.bpl
 0002:00009738       __init_record_System_Win_Comobj 000000014001c738     rtl:rtl290.bpl
 0002:00009748       .refptr._ZN3Fmx5Forms11ApplicationE 000000014001c748     fmx:fmx290.bpl
 0002:00009748       _ZN3Fmx5Forms11ApplicationE 000000014001c748     fmx:fmx290.bpl
 0002:00009750       __imp__ZN3Fmx5Forms11TCustomForm10PaintRectsEPKN6System5Types6TRectFEx 000000014001c750     fmx:fmx290.bpl
 0002:00009758       __imp__ZN3Fmx5Forms11TCustomForm11DoAddObjectEPNS_5Types10TFmxObjectE 000000014001c758     fmx:fmx290.bpl
 0002:00009760       __imp__ZN3Fmx5Forms11TCustomForm12CanFlipChildEPNS_5Types10TFmxObjectE 000000014001c760     fmx:fmx290.bpl
 0002:00009768       __imp__ZN3Fmx5Forms11TCustomForm12CreateHandleEv 000000014001c768     fmx:fmx290.bpl
 0002:00009770       __imp__ZN3Fmx5Forms11TCustomForm12NotificationEPN6System7Classes10TComponentENS3_10TOperationE 000000014001c770     fmx:fmx290.bpl
 0002:00009778       __imp__ZN3Fmx5Forms11TCustomForm12ResizeHandleEv 000000014001c778     fmx:fmx290.bpl
 0002:00009780       __imp__ZN3Fmx5Forms11TCustomForm13DestroyHandleEv 000000014001c780     fmx:fmx290.bpl
 0002:00009788       __imp__ZN3Fmx5Forms11TCustomForm14ChangeChildrenEv 000000014001c788     fmx:fmx290.bpl
 0002:00009790       __imp__ZN3Fmx5Forms11TCustomForm14DoRemoveObjectEPNS_5Types10TFmxObjectE 000000014001c790     fmx:fmx290.bpl
 0002:00009798       __imp__ZN3Fmx5Forms11TCustomForm14DoScaleChangedEv 000000014001c798     fmx:fmx290.bpl
 0002:000097a0       __imp__ZN3Fmx5Forms11TCustomForm14DoStyleChangedEv 000000014001c7a0     fmx:fmx290.bpl
 0002:000097a8       __imp__ZN3Fmx5Forms11TCustomForm14GetWindowStyleEv 000000014001c7a8     fmx:fmx290.bpl
 0002:000097b0       __imp__ZN3Fmx5Forms11TCustomForm15PaintBackgroundEv 000000014001c7b0     fmx:fmx290.bpl
 0002:000097b8       __imp__ZN3Fmx5Forms11TCustomForm15UpdateStyleBookEv 000000014001c7b8     fmx:fmx290.bpl
 0002:000097c0       __imp__ZN3Fmx5Forms11TCustomForm16ApplyStyleLookupEv 000000014001c7c0     fmx:fmx290.bpl
 0002:000097c8       __imp__ZN3Fmx5Forms11TCustomForm16DoDeleteChildrenEv 000000014001c7c8     fmx:fmx290.bpl
 0002:000097d0       __imp__ZN3Fmx5Forms11TCustomForm17InitializeNewFormEv 000000014001c7d0     fmx:fmx290.bpl
 0002:000097d8       __imp__ZN3Fmx5Forms11TCustomForm17RecreateResourcesEv 000000014001c7d8     fmx:fmx290.bpl
 0002:000097e0       __imp__ZN3Fmx5Forms11TCustomForm19StyleChangedHandlerEPN6System7TObjectEPNS2_9Messaging12TMessageBaseE 000000014001c7e0     fmx:fmx290.bpl
 0002:000097e8       __imp__ZN3Fmx5Forms11TCustomForm20SetPreloadPropertiesEPN6System8Generics11Collections14TDictionary__2INS2_13UnicodeStringENS2_7VariantEEE 000000014001c7e8     fmx:fmx290.bpl
 0002:000097f0       __imp__ZN3Fmx5Forms11TCustomForm23AddPreloadPropertyNamesEPN6System8Generics11Collections8TList__1INS2_13UnicodeStringEEE 000000014001c7f0     fmx:fmx290.bpl
 0002:000097f8       __imp__ZN3Fmx5Forms11TCustomForm7DoPaintEPNS_8Graphics7TCanvasERKN6System5Types6TRectFE 000000014001c7f8     fmx:fmx290.bpl
 0002:00009800       __imp__ZN3Fmx5Forms11TCustomForm7RealignEv 000000014001c800     fmx:fmx290.bpl
 0002:00009808       __imp__ZN3Fmx5Forms11TCustomForm9EndUpdateEv 000000014001c808     fmx:fmx290.bpl
 0002:00009810       __imp__ZN3Fmx5Forms11TCustomFormC3EPN6System7Classes10TComponentE 000000014001c810     fmx:fmx290.bpl
 0002:00009818       __imp__ZN3Fmx5Forms11TCustomFormC3EPN6System7Classes10TComponentEx 000000014001c818     fmx:fmx290.bpl
 0002:00009820       __imp__ZN3Fmx5Forms11TCustomFormD0Ev 000000014001c820     fmx:fmx290.bpl
 0002:00009828       __imp__ZN3Fmx5Forms12TApplication10CreateFormEN6System7Classes15TComponentClassEPv 000000014001c828     fmx:fmx290.bpl
 0002:00009830       __imp__ZN3Fmx5Forms12TApplication10InitializeEv 000000014001c830     fmx:fmx290.bpl
 0002:00009838       __imp__ZN3Fmx5Forms12TApplication13ShowExceptionEPN6System8Sysutils9ExceptionE 000000014001c838     fmx:fmx290.bpl
 0002:00009840       __imp__ZN3Fmx5Forms12TApplication3RunEv 000000014001c840     fmx:fmx290.bpl
 0002:00009848       __imp__ZN3Fmx5Forms17TCommonCustomForm10AdjustSizeERN6System5Types6TSizeFE 000000014001c848     fmx:fmx290.bpl
 0002:00009850       __imp__ZN3Fmx5Forms17TCommonCustomForm10CloseQueryEv 000000014001c850     fmx:fmx290.bpl
 0002:00009858       __imp__ZN3Fmx5Forms17TCommonCustomForm10FindTargetERKN6System5Types7TPointFERKNS_5Types11TDragObjectE 000000014001c858     fmx:fmx290.bpl
 0002:00009860       __imp__ZN3Fmx5Forms17TCommonCustomForm10GetBoundsFEv 000000014001c860     fmx:fmx290.bpl
 0002:00009868       __imp__ZN3Fmx5Forms17TCommonCustomForm10MouseLeaveEv 000000014001c868     fmx:fmx290.bpl
 0002:00009870       __imp__ZN3Fmx5Forms17TCommonCustomForm10MouseWheelEN6System3SetINS2_7Classes15TShiftStateItemELS5_0ELS5_10EEEiRb 000000014001c870     fmx:fmx290.bpl
 0002:00009878       __imp__ZN3Fmx5Forms17TCommonCustomForm10SendToBackEv 000000014001c878     fmx:fmx290.bpl
 0002:00009880       __imp__ZN3Fmx5Forms17TCommonCustomForm10SetBoundsFEffff 000000014001c880     fmx:fmx290.bpl
 0002:00009888       __imp__ZN3Fmx5Forms17TCommonCustomForm11BeginUpdateEv 000000014001c888     fmx:fmx290.bpl
 0002:00009890       __imp__ZN3Fmx5Forms17TCommonCustomForm11DoMouseDownEN6System7Uitypes12TMouseButtonENS2_3SetINS2_7Classes15TShiftStateItemELS7_0ELS7_10EEEff 000000014001c890     fmx:fmx290.bpl
 0002:00009898       __imp__ZN3Fmx5Forms17TCommonCustomForm11DoMouseMoveEN6System3SetINS2_7Classes15TShiftStateItemELS5_0ELS5_10EEEff 000000014001c898     fmx:fmx290.bpl
 0002:000098a0       __imp__ZN3Fmx5Forms17TCommonCustomForm11IsDialogKeyEtwN6System3SetINS2_7Classes15TShiftStateItemELS5_0ELS5_10EEERb 000000014001c8a0     fmx:fmx290.bpl
 0002:000098a8       __imp__ZN3Fmx5Forms17TCommonCustomForm11IsPopupFormEv 000000014001c8a8     fmx:fmx290.bpl
 0002:000098b0       __imp__ZN3Fmx5Forms17TCommonCustomForm12ActionChangeEPN6System7Classes12TBasicActionEb 000000014001c8b0     fmx:fmx290.bpl
 0002:000098b8       __imp__ZN3Fmx5Forms17TCommonCustomForm12BringToFrontEv 000000014001c8b8     fmx:fmx290.bpl
 0002:000098c0       __imp__ZN3Fmx5Forms17TCommonCustomForm12CreateBorderEv 000000014001c8c0     fmx:fmx290.bpl
 0002:000098c8       __imp__ZN3Fmx5Forms17TCommonCustomForm12DoMouseWheelEN6System3SetINS2_7Classes15TShiftStateItemELS5_0ELS5_10EEEiRb 000000014001c8c8     fmx:fmx290.bpl
 0002:000098d0       __imp__ZN3Fmx5Forms17TCommonCustomForm12GetBackIndexEv 000000014001c8d0     fmx:fmx290.bpl
 0002:000098d8       __imp__ZN3Fmx5Forms17TCommonCustomForm13DoRootChangedEv 000000014001c8d8     fmx:fmx290.bpl
 0002:000098e0       __imp__ZN3Fmx5Forms17TCommonCustomForm13ObjectAtPointERKN6System5Types7TPointFE 000000014001c8e0     fmx:fmx290.bpl
 0002:000098e8       __imp__ZN3Fmx5Forms17TCommonCustomForm13UpdateActionsEv 000000014001c8e8     fmx:fmx290.bpl
 0002:000098f0       __imp__ZN3Fmx5Forms17TCommonCustomForm14DoFlipChildrenEv 000000014001c8f0     fmx:fmx290.bpl
 0002:000098f8       __imp__ZN3Fmx5Forms17TCommonCustomForm14DoFocusChangedEv 000000014001c8f8     fmx:fmx290.bpl
 0002:00009900       __imp__ZN3Fmx5Forms17TCommonCustomForm14QueryInterfaceERK5_GUIDPv 000000014001c900     fmx:fmx290.bpl
 0002:00009908       __imp__ZN3Fmx5Forms17TCommonCustomForm14ValidateRenameEPN6System7Classes10TComponentENS2_13UnicodeStringES6_ 000000014001c908     fmx:fmx290.bpl
 0002:00009910       __imp__ZN3Fmx5Forms17TCommonCustomForm15SetTransparencyEb 000000014001c910     fmx:fmx290.bpl
 0002:00009918       __imp__ZN3Fmx5Forms17TCommonCustomForm15StartWindowDragEv 000000014001c918     fmx:fmx290.bpl
 0002:00009920       __imp__ZN3Fmx5Forms17TCommonCustomForm16DefinePropertiesEPN6System7Classes6TFilerE 000000014001c920     fmx:fmx290.bpl
 0002:00009928       __imp__ZN3Fmx5Forms17TCommonCustomForm16DoPaddingChangedEv 000000014001c928     fmx:fmx290.bpl
 0002:00009930       __imp__ZN3Fmx5Forms17TCommonCustomForm16FreeNotificationEPN6System7TObjectE 000000014001c930     fmx:fmx290.bpl
 0002:00009938       __imp__ZN3Fmx5Forms17TCommonCustomForm17AfterConstructionEv 000000014001c938     fmx:fmx290.bpl
 0002:00009940       __imp__ZN3Fmx5Forms17TCommonCustomForm17BeforeDestructionEv 000000014001c940     fmx:fmx290.bpl
 0002:00009948       __imp__ZN3Fmx5Forms17TCommonCustomForm17ConstrainedResizeERfS2_S2_S2_ 000000014001c948     fmx:fmx290.bpl
 0002:00009950       __imp__ZN3Fmx5Forms17TCommonCustomForm17DispatchDialogKeyEtwN6System3SetINS2_7Classes15TShiftStateItemELS5_0ELS5_10EEE 000000014001c950     fmx:fmx290.bpl
 0002:00009958       __imp__ZN3Fmx5Forms17TCommonCustomForm17StartWindowResizeEv 000000014001c958     fmx:fmx290.bpl
 0002:00009960       __imp__ZN3Fmx5Forms17TCommonCustomForm18GetActionLinkClassEv 000000014001c960     fmx:fmx290.bpl
 0002:00009968       __imp__ZN3Fmx5Forms17TCommonCustomForm19DoParentFormChangedEv 000000014001c968     fmx:fmx290.bpl
 0002:00009970       __imp__ZN3Fmx5Forms17TCommonCustomForm19ScaleChangedHandlerEPN6System7TObjectEPNS2_9Messaging12TMessageBaseE 000000014001c970     fmx:fmx290.bpl
 0002:00009978       __imp__ZN3Fmx5Forms17TCommonCustomForm22DispatchAcceleratorKeyEtwN6System3SetINS2_7Classes15TShiftStateItemELS5_0ELS5_10EEE 000000014001c978     fmx:fmx290.bpl
 0002:00009980       __imp__ZN3Fmx5Forms17TCommonCustomForm28VirtualKeyboardChangeHandlerEPN6System7TObjectEPNS2_9Messaging12TMessageBaseE 000000014001c980     fmx:fmx290.bpl
 0002:00009988       __imp__ZN3Fmx5Forms17TCommonCustomForm3TapERKN6System5Types7TPointFE 000000014001c988     fmx:fmx290.bpl
 0002:00009990       __imp__ZN3Fmx5Forms17TCommonCustomForm5DoTapERKN6System5Types7TPointFE 000000014001c990     fmx:fmx290.bpl
 0002:00009998       __imp__ZN3Fmx5Forms17TCommonCustomForm5KeyUpERtRwN6System3SetINS4_7Classes15TShiftStateItemELS7_0ELS7_10EEE 000000014001c998     fmx:fmx290.bpl
 0002:000099a0       __imp__ZN3Fmx5Forms17TCommonCustomForm6DoHideEv 000000014001c9a0     fmx:fmx290.bpl
 0002:000099a8       __imp__ZN3Fmx5Forms17TCommonCustomForm6DoShowEv 000000014001c9a8     fmx:fmx290.bpl
 0002:000099b0       __imp__ZN3Fmx5Forms17TCommonCustomForm6LoadedEv 000000014001c9b0     fmx:fmx290.bpl
 0002:000099b8       __imp__ZN3Fmx5Forms17TCommonCustomForm6ResizeEv 000000014001c9b8     fmx:fmx290.bpl
 0002:000099c0       __imp__ZN3Fmx5Forms17TCommonCustomForm7CanShowEv 000000014001c9c0     fmx:fmx290.bpl
 0002:000099c8       __imp__ZN3Fmx5Forms17TCommonCustomForm7DoCloseERN6System7Uitypes12TCloseActionE 000000014001c9c8     fmx:fmx290.bpl
 0002:000099d0       __imp__ZN3Fmx5Forms17TCommonCustomForm7DoKeyUpERtRwN6System3SetINS4_7Classes15TShiftStateItemELS7_0ELS7_10EEE 000000014001c9d0     fmx:fmx290.bpl
 0002:000099d8       __imp__ZN3Fmx5Forms17TCommonCustomForm7KeyDownERtRwN6System3SetINS4_7Classes15TShiftStateItemELS7_0ELS7_10EEE 000000014001c9d8     fmx:fmx290.bpl
 0002:000099e0       __imp__ZN3Fmx5Forms17TCommonCustomForm7MouseUpEN6System7Uitypes12TMouseButtonENS2_3SetINS2_7Classes15TShiftStateItemELS7_0ELS7_10EEEffb 000000014001c9e0     fmx:fmx290.bpl
 0002:000099e8       __imp__ZN3Fmx5Forms17TCommonCustomForm7ReleaseEv 000000014001c9e8     fmx:fmx290.bpl
 0002:000099f0       __imp__ZN3Fmx5Forms17TCommonCustomForm8DragDropERKNS_5Types11TDragObjectERKN6System5Types7TPointFE 000000014001c9f0     fmx:fmx290.bpl
 0002:000099f8       __imp__ZN3Fmx5Forms17TCommonCustomForm8DragOverERKNS_5Types11TDragObjectERKN6System5Types7TPointFERNS2_14TDragOperationE 000000014001c9f8     fmx:fmx290.bpl
 0002:00009a00       __imp__ZN3Fmx5Forms17TCommonCustomForm8RecreateEv 000000014001ca00     fmx:fmx290.bpl
 0002:00009a08       __imp__ZN3Fmx5Forms17TCommonCustomForm9CMGestureERNS_5Types17TGestureEventInfoE 000000014001ca08     fmx:fmx290.bpl
 0002:00009a10       __imp__ZN3Fmx5Forms17TCommonCustomForm9DoGestureERKNS_5Types17TGestureEventInfoERb 000000014001ca10     fmx:fmx290.bpl
 0002:00009a18       __imp__ZN3Fmx5Forms17TCommonCustomForm9DoKeyDownERtRwN6System3SetINS4_7Classes15TShiftStateItemELS7_0ELS7_10EEE 000000014001ca18     fmx:fmx290.bpl
 0002:00009a20       __imp__ZN3Fmx5Forms17TCommonCustomForm9DoMouseUpEN6System7Uitypes12TMouseButtonENS2_3SetINS2_7Classes15TShiftStateItemELS7_0ELS7_10EEEff 000000014001ca20     fmx:fmx290.bpl
 0002:00009a28       __imp__ZN3Fmx5Forms17TCommonCustomForm9DragEnterERKNS_5Types11TDragObjectERKN6System5Types7TPointFE 000000014001ca28     fmx:fmx290.bpl
 0002:00009a30       __imp__ZN3Fmx5Forms17TCommonCustomForm9DragLeaveEv 000000014001ca30     fmx:fmx290.bpl
 0002:00009a38       __imp__ZN3Fmx5Forms17TCommonCustomForm9GetBoundsEv 000000014001ca38     fmx:fmx290.bpl
 0002:00009a40       __imp__ZN3Fmx5Forms17TCommonCustomForm9MouseDownEN6System7Uitypes12TMouseButtonENS2_3SetINS2_7Classes15TShiftStateItemELS7_0ELS7_10EEEff 000000014001ca40     fmx:fmx290.bpl
 0002:00009a48       __imp__ZN3Fmx5Forms17TCommonCustomForm9MouseMoveEN6System3SetINS2_7Classes15TShiftStateItemELS5_0ELS5_10EEEff 000000014001ca48     fmx:fmx290.bpl
 0002:00009a50       __imp__ZN3Fmx5Forms17TCommonCustomForm9SetActiveEb 000000014001ca50     fmx:fmx290.bpl
 0002:00009a58       __imp__ZN3Fmx5Forms17TCommonCustomForm9SetBoundsEiiii 000000014001ca58     fmx:fmx290.bpl
 0002:00009a60       __imp__ZN3Fmx5Types10TFmxObject10SearchIntoEv 000000014001ca60     fmx:fmx290.bpl
 0002:00009a68       __imp__ZN3Fmx5Types10TFmxObject11ChangeOrderEv 000000014001ca68     fmx:fmx290.bpl
 0002:00009a70       __imp__ZN3Fmx5Types10TFmxObject13ParentChangedEv 000000014001ca70     fmx:fmx290.bpl
 0002:00009a78       __imp__ZN3Fmx5Types10TFmxObject14ContainsObjectEPS1_ 000000014001ca78     fmx:fmx290.bpl
 0002:00009a80       __imp__ZN3Fmx5Types10TFmxObject14DoActionChangeEPN6System7TObjectE 000000014001ca80     fmx:fmx290.bpl
 0002:00009a88       __imp__ZN3Fmx5Types10TFmxObject14DoInsertObjectEiPS1_ 000000014001ca88     fmx:fmx290.bpl
 0002:00009a90       __imp__ZN3Fmx5Types10TFmxObject14DoRootChangingEN6System15DelphiInterfaceINS0_5IRootEEE 000000014001ca90     fmx:fmx290.bpl
 0002:00009a98       __imp__ZN3Fmx5Types10TFmxObject14InitiateActionEv 000000014001ca98     fmx:fmx290.bpl
 0002:00009aa0       __imp__ZN3Fmx5Types10TFmxObject17AddToResourcePoolEv 000000014001caa0     fmx:fmx290.bpl
 0002:00009aa8       __imp__ZN3Fmx5Types10TFmxObject17FindStyleResourceEN6System13UnicodeStringEb 000000014001caa8     fmx:fmx290.bpl
 0002:00009ab0       __imp__ZN3Fmx5Types10TFmxObject18CreateChildrenListEPN6System8Generics11Collections8TList__1IPS1_EE 000000014001cab0     fmx:fmx290.bpl
 0002:00009ab8       __imp__ZN3Fmx5Types10TFmxObject21DoActionClientChangedEv 000000014001cab8     fmx:fmx290.bpl
 0002:00009ac0       __imp__ZN3Fmx5Types10TFmxObject22RemoveFromResourcePoolEv 000000014001cac0     fmx:fmx290.bpl
 0002:00009ac8       __imp__ZN3Fmx5Types10TFmxObject23SupportsPlatformServiceERK5_GUIDPv 000000014001cac8     fmx:fmx290.bpl
 0002:00009ad0       __imp__ZN3Fmx5Types10TFmxObject4SortEN6System15DelphiInterfaceINS0_21TFmxObjectSortCompareEEE 000000014001cad0     fmx:fmx290.bpl
 0002:00009ad8       __imp__ZN3Fmx5Types10TFmxObject7GetDataEv 000000014001cad8     fmx:fmx290.bpl
 0002:00009ae0       __imp__ZN3Fmx5Types10TFmxObject7IsChildEPS1_ 000000014001cae0     fmx:fmx290.bpl
 0002:00009ae8       __imp__ZN3Fmx5Types10TFmxObject7SetDataERKN6System4Rtti6TValueE 000000014001cae8     fmx:fmx290.bpl
 0002:00009af0       __imp__ZN3Fmx5Types10TFmxObject8ExchangeEPS1_S2_ 000000014001caf0     fmx:fmx290.bpl
 0002:00009af8       __imp__ZN3Fmx5Types10TFmxObject9SetParentEPS1_ 000000014001caf8     fmx:fmx290.bpl
 0002:00009b00       _ZTRN3Fmx5Forms5TFormE     000000014001cb00     fmx:fmx290.bpl
 0002:00009b08       _ZTVN3Fmx5Forms5TFormE     000000014001cb08     fmx:fmx290.bpl
 0002:00009b10       _ZTVN3Fmx8Stdctrls6TLabelE 000000014001cb10     fmx:fmx290.bpl
 0002:00009b18       _ZTVN3Fmx8Stdctrls7TButtonE 000000014001cb18     fmx:fmx290.bpl
 0002:00009b20       __init_record_Fmx_Forms    000000014001cb20     fmx:fmx290.bpl
 0002:00009b28       __init_record_Fmx_Stdctrls 000000014001cb28     fmx:fmx290.bpl
 0002:00009b30       __init_record_Fmx_Types    000000014001cb30     fmx:fmx290.bpl
 0002:00009b40       __imp__set_new_mode        000000014001cb40     libucrt:api-ms-win-crt-heap-l1-1-0.dll
 0002:00009b48       __imp_calloc               000000014001cb48     libucrt:api-ms-win-crt-heap-l1-1-0.dll
 0002:00009b50       __imp_free                 000000014001cb50     libucrt:api-ms-win-crt-heap-l1-1-0.dll
 0002:00009b58       __imp_malloc               000000014001cb58     libucrt:api-ms-win-crt-heap-l1-1-0.dll
 0002:00009b60       __imp_realloc              000000014001cb60     libucrt:api-ms-win-crt-heap-l1-1-0.dll
 0002:00009b70       __imp___C_specific_handler 000000014001cb70     libucrt:api-ms-win-crt-private-l1-1-0.dll
 0002:00009b78       __imp_memcpy               000000014001cb78     libucrt:api-ms-win-crt-private-l1-1-0.dll
 0002:00009b80       __imp_memmove              000000014001cb80     libucrt:api-ms-win-crt-private-l1-1-0.dll
 0002:00009b90       __imp___p___argc           000000014001cb90     libucrt:api-ms-win-crt-runtime-l1-1-0.dll
 0002:00009b98       __imp___p___argv           000000014001cb98     libucrt:api-ms-win-crt-runtime-l1-1-0.dll
 0002:00009ba0       __imp___p___wargv          000000014001cba0     libucrt:api-ms-win-crt-runtime-l1-1-0.dll
 0002:00009ba8       __imp___p__wcmdln          000000014001cba8     libucrt:api-ms-win-crt-runtime-l1-1-0.dll
 0002:00009bb0       __imp__assert              000000014001cbb0     libucrt:api-ms-win-crt-runtime-l1-1-0.dll
 0002:00009bb8       __imp__cexit               000000014001cbb8     libucrt:api-ms-win-crt-runtime-l1-1-0.dll
 0002:00009bc0       __imp__configure_narrow_argv 000000014001cbc0     libucrt:api-ms-win-crt-runtime-l1-1-0.dll
 0002:00009bc8       __imp__configure_wide_argv 000000014001cbc8     libucrt:api-ms-win-crt-runtime-l1-1-0.dll
 0002:00009bd0       __imp__crt_at_quick_exit   000000014001cbd0     libucrt:api-ms-win-crt-runtime-l1-1-0.dll
 0002:00009bd8       __imp__crt_atexit          000000014001cbd8     libucrt:api-ms-win-crt-runtime-l1-1-0.dll
 0002:00009be0       __imp__exit                000000014001cbe0     libucrt:api-ms-win-crt-runtime-l1-1-0.dll
 0002:00009be8       __imp__initialize_narrow_environment 000000014001cbe8     libucrt:api-ms-win-crt-runtime-l1-1-0.dll
 0002:00009bf0       __imp__initialize_wide_environment 000000014001cbf0     libucrt:api-ms-win-crt-runtime-l1-1-0.dll
 0002:00009bf8       __imp__initterm            000000014001cbf8     libucrt:api-ms-win-crt-runtime-l1-1-0.dll
 0002:00009c00       __imp__set_app_type        000000014001cc00     libucrt:api-ms-win-crt-runtime-l1-1-0.dll
 0002:00009c08       __imp__set_invalid_parameter_handler 000000014001cc08     libucrt:api-ms-win-crt-runtime-l1-1-0.dll
 0002:00009c10       __imp_abort                000000014001cc10     libucrt:api-ms-win-crt-runtime-l1-1-0.dll
 0002:00009c18       __imp_exit                 000000014001cc18     libucrt:api-ms-win-crt-runtime-l1-1-0.dll
 0002:00009c20       __imp_signal               000000014001cc20     libucrt:api-ms-win-crt-runtime-l1-1-0.dll
 0002:00009c30       __imp___acrt_iob_func      000000014001cc30     libucrt:api-ms-win-crt-stdio-l1-1-0.dll
 0002:00009c38       __imp___p__commode         000000014001cc38     libucrt:api-ms-win-crt-stdio-l1-1-0.dll
 0002:00009c40       __imp___p__fmode           000000014001cc40     libucrt:api-ms-win-crt-stdio-l1-1-0.dll
 0002:00009c48       __imp___stdio_common_vfprintf 000000014001cc48     libucrt:api-ms-win-crt-stdio-l1-1-0.dll
 0002:00009c50       __imp___stdio_common_vfwprintf 000000014001cc50     libucrt:api-ms-win-crt-stdio-l1-1-0.dll
 0002:00009c58       __imp___stdio_common_vsprintf 000000014001cc58     libucrt:api-ms-win-crt-stdio-l1-1-0.dll
 0002:00009c60       __imp___stdio_common_vswprintf 000000014001cc60     libucrt:api-ms-win-crt-stdio-l1-1-0.dll
 0002:00009c70       __imp__strdup              000000014001cc70     libucrt:api-ms-win-crt-string-l1-1-0.dll
 0002:00009c78       __imp_memset               000000014001cc78     libucrt:api-ms-win-crt-string-l1-1-0.dll
 0002:00009c80       __imp_strlen               000000014001cc80     libucrt:api-ms-win-crt-string-l1-1-0.dll
 0002:00009c88       __imp_strncmp              000000014001cc88     libucrt:api-ms-win-crt-string-l1-1-0.dll
 0002:00009c90       __imp_wcslen               000000014001cc90     libucrt:api-ms-win-crt-string-l1-1-0.dll
 0002:00009ca0       __imp__ZNSt20bad_array_new_lengthC1Ev 000000014001cca0     libc++.dll:libc++.dll
 0002:00009ca8       __imp__ZNSt20bad_array_new_lengthD1Ev 000000014001cca8     libc++.dll:libc++.dll
 0002:00009cb0       __imp__ZNSt3__112__next_primeEy 000000014001ccb0     libc++.dll:libc++.dll
 0002:00009cb8       __imp__ZNSt3__15mutex4lockEv 000000014001ccb8     libc++.dll:libc++.dll
 0002:00009cc0       __imp__ZNSt3__15mutex6unlockEv 000000014001ccc0     libc++.dll:libc++.dll
 0002:00009cc8       __imp__ZSt9terminatev      000000014001ccc8     libc++.dll:libc++.dll
 0002:00009cd0       .refptr._ZTVN10__cxxabiv116__shim_type_infoE 000000014001ccd0     libc++.dll:libc++.dll
 0002:00009cd0       _ZTVN10__cxxabiv116__shim_type_infoE 000000014001ccd0     libc++.dll:libc++.dll
 0002:00009cd8       .refptr._ZTVN10__cxxabiv117__class_type_infoE 000000014001ccd8     libc++.dll:libc++.dll
 0002:00009cd8       _ZTVN10__cxxabiv117__class_type_infoE 000000014001ccd8     libc++.dll:libc++.dll
 0002:00009ce0       _ZTVN10__cxxabiv120__si_class_type_infoE 000000014001cce0     libc++.dll:libc++.dll
 0002:00009ce8       __imp__ZdlPv               000000014001cce8     libc++.dll:libc++.dll
 0002:00009cf0       __imp__ZdlPvSt11align_val_t 000000014001ccf0     libc++.dll:libc++.dll
 0002:00009cf8       __imp__Znwy                000000014001ccf8     libc++.dll:libc++.dll
 0002:00009d00       __imp__ZnwySt11align_val_t 000000014001cd00     libc++.dll:libc++.dll
 0002:00009d08       __imp___cxa_allocate_exception 000000014001cd08     libc++.dll:libc++.dll
 0002:00009d10       __imp___cxa_begin_catch    000000014001cd10     libc++.dll:libc++.dll
 0002:00009d18       __imp___cxa_end_catch      000000014001cd18     libc++.dll:libc++.dll
 0002:00009d20       __imp___cxa_guard_acquire  000000014001cd20     libc++.dll:libc++.dll
 0002:00009d28       __imp___cxa_guard_release  000000014001cd28     libc++.dll:libc++.dll
 0002:00009d30       __imp___cxa_throw          000000014001cd30     libc++.dll:libc++.dll
 0002:00009d38       __imp___delphi_init_eh     000000014001cd38     libc++.dll:libc++.dll
 0002:00009d40       __imp___gxx_personality_seh0 000000014001cd40     libc++.dll:libc++.dll
 0002:00009d50       __imp__Unwind_Resume       000000014001cd50     libunwind.dll:libunwind.dll
 0002:00009d60       __imp_CompareStringW       000000014001cd60     import64:KERNEL32.dll
 0002:00009d68       __imp_DeleteCriticalSection 000000014001cd68     import64:KERNEL32.dll
 0002:00009d70       __imp_EnterCriticalSection 000000014001cd70     import64:KERNEL32.dll
 0002:00009d78       __imp_FindResourceA        000000014001cd78     import64:KERNEL32.dll
 0002:00009d80       __imp_FreeLibrary          000000014001cd80     import64:KERNEL32.dll
 0002:00009d88       __imp_FreeResource         000000014001cd88     import64:KERNEL32.dll
 0002:00009d90       __imp_GetCommandLineW      000000014001cd90     import64:KERNEL32.dll
 0002:00009d98       __imp_GetLastError         000000014001cd98     import64:KERNEL32.dll
 0002:00009da0       __imp_GetModuleHandleW     000000014001cda0     import64:KERNEL32.dll
 0002:00009da8       __imp_GetProcAddress       000000014001cda8     import64:KERNEL32.dll
 0002:00009db0       __imp_GetStartupInfoW      000000014001cdb0     import64:KERNEL32.dll
 0002:00009db8       __imp_InitializeCriticalSection 000000014001cdb8     import64:KERNEL32.dll
 0002:00009dc0       __imp_LeaveCriticalSection 000000014001cdc0     import64:KERNEL32.dll
 0002:00009dc8       __imp_LoadLibraryA         000000014001cdc8     import64:KERNEL32.dll
 0002:00009dd0       __imp_LoadResource         000000014001cdd0     import64:KERNEL32.dll
 0002:00009dd8       __imp_LocalAlloc           000000014001cdd8     import64:KERNEL32.dll
 0002:00009de0       __imp_LocalFree            000000014001cde0     import64:KERNEL32.dll
 0002:00009de8       __imp_LockResource         000000014001cde8     import64:KERNEL32.dll
 0002:00009df0       __imp_MultiByteToWideChar  000000014001cdf0     import64:KERNEL32.dll
 0002:00009df8       __imp_RaiseException       000000014001cdf8     import64:KERNEL32.dll
 0002:00009e00       __imp_SetUnhandledExceptionFilter 000000014001ce00     import64:KERNEL32.dll
 0002:00009e08       __imp_Sleep                000000014001ce08     import64:KERNEL32.dll
 0002:00009e10       __imp_TlsAlloc             000000014001ce10     import64:KERNEL32.dll
 0002:00009e18       __imp_TlsFree              000000014001ce18     import64:KERNEL32.dll
 0002:00009e20       __imp_TlsGetValue          000000014001ce20     import64:KERNEL32.dll
 0002:00009e28       __imp_TlsSetValue          000000014001ce28     import64:KERNEL32.dll
 0002:00009e30       __imp_VirtualProtect       000000014001ce30     import64:KERNEL32.dll
 0002:00009e38       __imp_VirtualQuery         000000014001ce38     import64:KERNEL32.dll
 0002:00009e48       __imp___p__environ         000000014001ce48     libucrt:api-ms-win-crt-environment-l1-1-0.dll
 0002:00009e50       __imp___p__wenviron        000000014001ce50     libucrt:api-ms-win-crt-environment-l1-1-0.dll
 0002:00009e60       __imp___daylight           000000014001ce60     libucrt:api-ms-win-crt-time-l1-1-0.dll
 0002:00009e68       __imp___timezone           000000014001ce68     libucrt:api-ms-win-crt-time-l1-1-0.dll
 0002:00009e70       __imp___tzname             000000014001ce70     libucrt:api-ms-win-crt-time-l1-1-0.dll
 0002:00009e78       __imp__tzset               000000014001ce78     libucrt:api-ms-win-crt-time-l1-1-0.dll
 0002:00009e88       __imp___setusermatherr     000000014001ce88     libucrt:api-ms-win-crt-math-l1-1-0.dll
 0002:00009e90       __imp_ceilf                000000014001ce90     libucrt:api-ms-win-crt-math-l1-1-0.dll
 0004:0000001c       _ZN7Sysinit8TlsIndexE      000000014002501c     sysinit.o
 0004:00000020       _ZN7Sysinit8DataMarkE      0000000140025020     sysinit.o
 0004:00000024       _ZN7Sysinit19CoverageLibraryNameE 0000000140025024     sysinit.o
 0004:000000a8       _ZN7Sysinit8PtrToNilE      00000001400250a8     sysinit.o
 0004:000000b0       _ZN7Sysinit9FSSegBaseE     00000001400250b0     sysinit.o
 0004:000000b8       _ZN7Sysinit9GSSegBaseE     00000001400250b8     sysinit.o
 0004:000000c0       _ZN7Sysinit23UnloadDelayLoadedDLLPtrE 00000001400250c0     sysinit.o
 0004:000000c8       _ZN7Sysinit15DelayLoadHelperE 00000001400250c8     sysinit.o
 0004:000000d0       _ZN7Sysinit16pfnDliNotifyHookE 00000001400250d0     sysinit.o
 0004:000000d8       _ZN7Sysinit17pfnDliFailureHookE 00000001400250d8     sysinit.o
 0004:000000e0       _ZN7Sysinit22HrLoadAllImportsForDllE 00000001400250e0     sysinit.o
 0004:00000150       __imp__onexit              0000000140025150     libucrt:lib64_libucrt_extra_a-ucrtbase_compat.o
 0004:00000158       __imp_at_quick_exit        0000000140025158     libucrt:lib64_libucrt_extra_a-ucrtbase_compat.o
 0004:00000170       __imp_tzname               0000000140025170     libucrt:lib64_libucrt_extra_a-ucrtbase_compat.o
 0004:00000180       __imp_timezone             0000000140025180     libucrt:lib64_libucrt_extra_a-ucrtbase_compat.o
 0004:00000190       __imp_daylight             0000000140025190     libucrt:lib64_libucrt_extra_a-ucrtbase_compat.o
 0004:00000198       __imp___getmainargs        0000000140025198     libucrt:lib64_libucrt_extra_a-ucrtbase_compat.o
 0004:000001a0       __imp___wgetmainargs       00000001400251a0     libucrt:lib64_libucrt_extra_a-ucrtbase_compat.o
 0004:000001a8       __imp__amsg_exit           00000001400251a8     libucrt:lib64_libucrt_extra_a-ucrtbase_compat.o
 0004:000001b0       __imp__get_output_format   00000001400251b0     libucrt:lib64_libucrt_extra_a-ucrtbase_compat.o
 0004:000001b8       __imp_tzset                00000001400251b8     libucrt:lib64_libucrt_extra_a-ucrtbase_compat.o
 0004:000001c0       __imp___ms_fwprintf        00000001400251c0     libucrt:lib64_libucrt_extra_a-ucrtbase_compat.o
 0004:000001d0       __imp___initenv            00000001400251d0     libucrt:lib64_libucrt_extra_a-__initenv.o
 0004:000001d8       __imp___winitenv           00000001400251d8     libucrt:lib64_libucrt_extra_a-__initenv.o
 0004:000001e8       __native_dllmain_reason    00000001400251e8     libmingw32:lib64_libmingw32_a-natstart.o
 0004:000001ec       __native_vcclrit_reason    00000001400251ec     libmingw32:lib64_libmingw32_a-natstart.o
 0004:000001f0       __isGUI                    00000001400251f0     libmingw32:lib64_libmingw32_a-ucrtexewin.o
 0004:000001f4       __globallocalestatus       00000001400251f4     libmingw32:lib64_libmingw32_a-xthdloc.o
 0004:000001f8       _MINGW_INSTALL_DEBUG_MATHERR 00000001400251f8     libmingwex:lib64_libmingwex_a-mingw_matherr.o
 0004:00000200       __imp_fprintf              0000000140025200     libucrt:lib64_libucrt_extra_a-ucrt_fprintf.o
 0004:00000208       _CRT_MT                    0000000140025208     libmingw32:lib64_libmingw32_a-tlsmcrt.o
 0004:00000210       __imp_vfprintf             0000000140025210     libucrt:lib64_libucrt_extra_a-ucrt_vfprintf.o
 0004:00000220       __imp_sprintf              0000000140025220     libucrt:lib64_libucrt_extra_a-ucrt_sprintf.o
 0004:00000228       __imp_vsnprintf            0000000140025228     libucrt:lib64_libucrt_extra_a-ucrt_vsnprintf.o
 0004:00000230       _is_delphi                 0000000140025230     libmingw32:lib64_libmingw32_a-start_delphi.o
 0004:00000238       __isDLL                    0000000140025238     crt2u.o
 0004:00000239       __isVCLPackage             0000000140025239     crt2u.o
 0004:0000023a       .weak.__isGUI.default.WinMainCRTStartup 000000014002523a     crt2u.o
 0004:0000023b       __mingw_module_is_dll      000000014002523b     crt2u.o
 0004:00000264       _ZN7Sysinit11ModuleIsLibE  0000000140025264     sysinit.o
 0004:00000268       _ZN7Sysinit15ModuleIsPackageE 0000000140025268     sysinit.o
 0004:0000026c       _ZN7Sysinit11ModuleIsCppE  000000014002526c     sysinit.o
 0004:00000270       _ZN7Sysinit9HInstanceE     0000000140025270     sysinit.o
 0004:00000288       _ZN7Sysinit7DllProcE       0000000140025288     sysinit.o
 0004:00000290       _ZN7Sysinit19dbkFCallWrapperAddrE 0000000140025290     sysinit.o
 0004:00000298       _ZN7Sysinit19@_pfnDliNotifyHook2E 0000000140025298     sysinit.o
 0004:000002a0       _ZN7Sysinit20@_pfnDliFailureHook2E 00000001400252a0     sysinit.o
 0004:000002c8       Mainpageform               00000001400252c8     MainPage.o
 0004:000002d0       PC1pageform                00000001400252d0     PC1page.o
 0004:000002d8       PC2pageform                00000001400252d8     PC2page.o
 0004:000002e0       PC3pageform                00000001400252e0     PC3page.o
 0004:000002e8       PC4pageform                00000001400252e8     PC4page.o
 0004:00000308       __native_startup_state     0000000140025308     libmingw32:lib64_libmingw32_a-natstart.o
 0004:00000310       __native_startup_lock      0000000140025310     libmingw32:lib64_libmingw32_a-natstart.o
 0004:00000318       _dowildcard                0000000140025318     libmingw32:lib64_libmingw32_a-wildcard.o
 0004:0000031c       _newmode                   000000014002531c     libmingw32:lib64_libmingw32_a-_newmode.o
 0004:00000320       _tls_index                 0000000140025320     libmingw32:lib64_libmingw32_a-tlssup.o
 0004:00000324       __mingw_initltsdrot_force  0000000140025324     libmingw32:lib64_libmingw32_a-tlssup.o
 0004:00000328       __mingw_initltsdyn_force   0000000140025328     libmingw32:lib64_libmingw32_a-tlssup.o
 0004:0000032c       __mingw_initltssuo_force   000000014002532c     libmingw32:lib64_libmingw32_a-tlssup.o
 0004:00000330       _commode                   0000000140025330     libmingw32:lib64_libmingw32_a-xncommod.o
 0004:00000334       __mingw_app_type           0000000140025334     libmingw32:lib64_libmingw32_a-mingw_helpers.o
 0004:00000358       _fmode                     0000000140025358     libmingw32:lib64_libmingw32_a-xtxtmode.o
 0004:00000360       __mingw_oldexcpt_handler   0000000140025360     libmingw32:lib64_libmingw32_a-crt_handler.o
 0004:00000368       _hInstance                 0000000140025368     libmingw32:lib64_libmingw32_a-hinstance.o
 0004:000003e8       ARC_LOG_PROC               00000001400253e8     rtle:syssupp.o
 0004:000003f8       _ZGVZN6System11AnsiStringTILt0EED1EvE13__force_inst1 00000001400253f8     rtle:ustring.o
 0004:00000400       _ZGVZN6System11AnsiStringTILt0EED1EvE13__force_inst2 0000000140025400     rtle:ustring.o
 0004:00000408       _ZZN6System11AnsiStringTILt0EED1EvE13__force_inst1 0000000140025408     rtle:ustring.o
 0004:00000410       _ZZN6System11AnsiStringTILt0EED1EvE13__force_inst2 0000000140025410     rtle:ustring.o
 0007:00000000       __EMBT_INIT_LIST_BEGIN__   0000000140029000     _initd.o
 0007:00000008       __ptr.__si_init_record_Sysinit 0000000140029008     _initd.o
 0007:00000010       __ptr.__init_record_System 0000000140029010     _initd.o
 0007:00000018       __ptr.__init_record_System_Startupcopy 0000000140029018     _initd.o
 0007:00000020       __ptr.__init_record_Fmx_Forms 0000000140029020     _initd.o
 0007:00000028       __ptr.__init_record_System_Classes 0000000140029028     _initd.o
 0007:00000030       __ptr.__init_record_Fmx_Types 0000000140029030     _initd.o
 0007:00000038       __ptr.__init_record_Fmx_Stdctrls 0000000140029038     _initd.o
 0007:00000040       __ptr.__init_record_System_Sysutils 0000000140029040     _initd.o
 0007:00000048       __ptr.__wd_init_record_System_Internal_Strhlpr 0000000140029048     _initd.o
 0007:00000050       __ptr.__init_record_System_Syncobjs 0000000140029050     _initd.o
 0007:00000058       __ptr.__init_record_System_Sysconst 0000000140029058     _initd.o
 0007:00000060       __ptr.__init_record_System_Typinfo 0000000140029060     _initd.o
 0007:00000068       __ptr.__init_record_System_Win_Comobj 0000000140029068     _initd.o
 0007:00000070       __ptr.__init_record_System_Ansistrings 0000000140029070     _initd.o
 0007:00000078       __EMBT_INIT_LIST_END__     0000000140029078     _initd.o
 0009:00000000       __si_init_record_Sysinit   000000014002b000     sysinit.o
 0009:00000058       __wd_init_record_System_Internal_Strhlpr 000000014002b058     rtl:System.Internal.StrHlpr.o
 0009:000000b0       __wd_init_record_System_Internal_Initcpp 000000014002b0b0     rtl:System.Internal.InitCPP.o
 000a:00000000       _tls_start                 000000014002c000     libmingw32:lib64_libmingw32_a-tlssup.o
 000a:00000008       _tls_end                   000000014002c008     libmingw32:lib64_libmingw32_a-tlssup.o
 000a:00000010       _ZN7Sysinit7TlsLastE       000000014002c010     sysinit.o

 entry point at         0001:0000f910

 Static symbols

 0001:00000000       pre_c_init                 0000000140001000     crt2u.o
 0001:000000b0       pre_cpp_init               00000001400010b0     crt2u.o
 0001:0000010c       .l_startw                  000000014000110c     crt2u.o
 0001:00000123       .l_endw                    0000000140001123     crt2u.o
 0001:00000130       __tmainCRTStartup          0000000140001130     crt2u.o
 0001:0000035c       .l_start                   000000014000135c     crt2u.o
 0001:00000373       .l_end                     0000000140001373     crt2u.o
 0001:000003b0       check_managed_app          00000001400013b0     crt2u.o
 0001:00000510       __mingw_invalidParameterHandler 0000000140001510     crt2u.o
 0001:00000540       duplicate_ppstrings        0000000140001540     crt2u.o
 0001:00000a50       .text.delayhlp             0000000140001a50     sysinit.o
 0001:00001540       _ZN7Sysinit18ShutdownDelayHelp2Ev 0000000140002540     sysinit.o
 0001:000018a0       _ZN7Sysinit19InterlockedExchangeERii 00000001400028a0     sysinit.o
 0001:000018b0       _ZN7Sysinit26InterlockedExchangePointerERPvS0_ 00000001400028b0     sysinit.o
 0001:000018c0       _ZN7Sysinit14AllocTlsBufferEi 00000001400028c0     sysinit.o
 0001:000018e0       _ZN7Sysinit10GetTlsSizeEv  00000001400028e0     sysinit.o
 0001:000018f0       _ZN7Sysinit13InitThreadTLSEv 00000001400028f0     sysinit.o
 0001:00001940       _ZN7Sysinit14InitProcessTLSEv 0000000140002940     sysinit.o
 0001:00001980       _ZN7Sysinit13ExitThreadTLSEv 0000000140002980     sysinit.o
 0001:000019d0       _ZN7Sysinit14ExitProcessTLSEv 00000001400029d0     sysinit.o
 0001:00001a00       _ZN7Sysinit6isWineEv       0000000140002a00     sysinit.o
 0001:00001a60       _ZN7Sysinit16InitializeModuleEv 0000000140002a60     sysinit.o
 0001:00001a80       _ZN7Sysinit18UninitializeModuleEv 0000000140002a80     sysinit.o
 0001:00001ac0       _ZN7Sysinit14__dbkDummyProcEv 0000000140002ac0     sysinit.o
 0001:00001ad0       _ZN7Sysinit14__dbkFCallArgsEPvS0_S0_S0_S0_S0_S0_S0_S0_S0_S0_S0_S0_S0_S0_S0_S0_S0_S0_S0_S0_S0_S0_S0_S0_S0_S0_S0_S0_S0_ 0000000140002ad0     sysinit.o
 0001:00001ed0       _ZN7Sysinit19__dbk_fcall_wrapperEv 0000000140002ed0     sysinit.o
 0001:00003290       __dyn_tls_dtor             0000000140004290     libmingw32:lib64_libmingw32_a-tlssup.o
 0001:000034d0       do_pseudo_reloc            00000001400044d0     libmingw32:lib64_libmingw32_a-pseudo-reloc.o
 0001:00003950       restore_modified_sections  0000000140004950     libmingw32:lib64_libmingw32_a-pseudo-reloc.o
 0001:000039f0       __write_memory             00000001400049f0     libmingw32:lib64_libmingw32_a-pseudo-reloc.o
 0001:00003a40       __report_error             0000000140004a40     libmingw32:lib64_libmingw32_a-pseudo-reloc.o
 0001:00003aa0       mark_section_writable      0000000140004aa0     libmingw32:lib64_libmingw32_a-pseudo-reloc.o
 0001:00004570       _ZN6SystemL12UTF32ToUTF16EPKDiPwi 0000000140005570     rtle:ustring.o
 0001:000050f0       _ZL10vsnwprintfPwyPKwPc    00000001400060f0     rtle:ustring.o
 0001:00006bc0       __dtor__ZZN6System11AnsiStringTILt0EED1EvE13__force_inst1 0000000140007bc0     rtle:ustring.o
 0001:00006be0       __dtor__ZZN6System11AnsiStringTILt0EED1EvE13__force_inst2 0000000140007be0     rtle:ustring.o
 0001:0000725a       @@NoAlloc                  000000014000825a     rtle:classcre64.o
 0001:0000726f       @@outerMost                000000014000826f     rtle:classcre64.o
 0001:000075b0       __mingwthr_run_key_dtors   00000001400085b0     libmingw32:lib64_libmingw32_a-tlsthrd.o
 0001:000084a0       __dtor__ZZ18__delphi_type_infoE13type_info_map 00000001400094a0     rtle:syssupp.o
 0001:00008680       _ZL15System_InstCopyPPvS_  0000000140009680     rtle:syssupp.o
 0001:00008800       _ZL17System_InstAddRefPv   0000000140009800     rtle:syssupp.o
 0001:000088d0       _ZL16System_InstClearPPv   00000001400098d0     rtle:syssupp.o
 0001:00008c40       _ZN12_GLOBAL__N_114fake_type_infoC2Ev 0000000140009c40     rtle:syssupp.o
 0001:00008c60       _ZN12_GLOBAL__N_114fake_type_infoD2Ev 0000000140009c60     rtle:syssupp.o
 0001:00008c70       _ZN12_GLOBAL__N_114fake_type_infoD0Ev 0000000140009c70     rtle:syssupp.o
 0001:0000f640       __dtor__ZZN6System11AnsiStringTILt0EED1EvE13__force_inst1 0000000140010640     rtle:dstring.o
 0001:0000f660       __dtor__ZZN6System11AnsiStringTILt0EED1EvE13__force_inst2 0000000140010660     rtle:dstring.o
 0001:0000f920       _ZL11init_delphiv          0000000140010920     libmingw32:lib64_libmingw32_a-start_delphi.o
 0001:0000fa20       _ZL10fini_unitsv           0000000140010a20     libmingw32:lib64_libmingw32_a-start_delphi.o
 0001:0000fa70       _ZL11fini_delphiv          0000000140010a70     libmingw32:lib64_libmingw32_a-start_delphi.o
 0001:0000fa80       _ZL13hook_delphiehv        0000000140010a80     libmingw32:lib64_libmingw32_a-start_delphi.o
 0001:0000fa90       _ZL13hook_delphimmv        0000000140010a90     libmingw32:lib64_libmingw32_a-start_delphi.o
 0001:0000ff60       _ZN6System8Internal7Initcpp23SelectForInitializationEPNS1_20TUnitDescriptorBlockES3_ 0000000140010f60     rtl:System.Internal.InitCPP.o
 0001:0000ff80       _ZN6System8Internal7Initcpp23SelectForInitializationEPPNS1_20TUnitDescriptorBlockES4_ 0000000140010f80     rtl:System.Internal.InitCPP.o
 0001:0000ffb0       _ZN6System8Internal7Initcpp16FinalizeUnitListEPPPNS1_15TUnitDescriptorES5_ 0000000140010fb0     rtl:System.Internal.InitCPP.o
 0001:00010060       _ZL13eh_push_frameP17_EXCEPTION_RECORD 0000000140011060     libmingw32:lib64_libmingw32_a-hook_delphieh.o
 0001:000100d0       _ZL12eh_pop_framev         00000001400110d0     libmingw32:lib64_libmingw32_a-hook_delphieh.o
 0001:00010140       _ZL17eh_get_except_objv    0000000140011140     libmingw32:lib64_libmingw32_a-hook_delphieh.o
 0002:000004bc       _ZTRN7Sysinit6PDWORDE      00000001400134bc     sysinit.o
 0002:000004d8       _ZTRZN7Sysinit17_DelayLoadHelper2ERPvS0_E20TDelayLoadHelperProc 00000001400134d8     sysinit.o
 0002:00000540       _ZTRZN7Sysinit7_GetTlsEvE14PPPointerArray 0000000140013540     sysinit.o
 0002:00000562       _ZN7Sysinit19_debug_str_delayhlpE 0000000140013562     sysinit.o
 0002:00001912       _ZN7Sysinit19_debug_loc_delayhlpE 0000000140014912     sysinit.o
 0002:00001fbb       _ZN7Sysinit22_debug_abbrev_delayhlpE 0000000140014fbb     sysinit.o
 0002:00002332       _ZN7Sysinit20_debug_info_delayhlpE 0000000140015332     sysinit.o
 0002:00004776       _ZN7Sysinit22_debug_ranges_delayhlpE 0000000140017776     sysinit.o
 0002:00004c86       _ZN7Sysinit23_debug_macinfo_delayhlpE 0000000140017c86     sysinit.o
 0002:00004c87       _ZN7Sysinit24_debug_pubnames_delayhlpE 0000000140017c87     sysinit.o
 0002:00004f04       _ZN7Sysinit24_debug_pubtypes_delayhlpE 0000000140017f04     sysinit.o
 0002:00005362       _ZN7Sysinit17_comment_delayhlpE 0000000140018362     sysinit.o
 0002:000053c5       _ZN7Sysinit24_note_delayhlp_GNU-stackE 00000001400183c5     sysinit.o
 0002:000053c5       _ZN7Sysinit20_debug_line_delayhlpE 00000001400183c5     sysinit.o
 0002:00005a70       __imp__ZN6System9IsLibraryE 0000000140018a70     sysinit.o
 0002:00005a78       __imp__ZN6System7CmdLineE  0000000140018a78     sysinit.o
 0002:00005a80       __imp__ZN6System9IsConsoleE 0000000140018a80     sysinit.o
 0002:00005a88       __imp__ZN6System8ExitProcE 0000000140018a88     sysinit.o
 0002:00007d58       _ZTVN12_GLOBAL__N_114fake_type_infoE 000000014001ad58     rtle:syssupp.o
 0002:00007d78       _ZTSN12_GLOBAL__N_114fake_type_infoE 000000014001ad78     rtle:syssupp.o
 0002:00007da0       _ZTIN12_GLOBAL__N_114fake_type_infoE 000000014001ada0     rtle:syssupp.o
 0002:00007db0       _ZNSt3__1L19piecewise_constructE 000000014001adb0     rtle:syssupp.o
 0002:0000823c       _ZTRN6System8Internal7Initcpp5TProcE 000000014001b23c     rtl:System.Internal.InitCPP.o
 0002:000082f0       __xd_a                     000000014001b2f0     libmingw32:lib64_libmingw32_a-tlssup.o
 0002:000082f8       __xd_z                     000000014001b2f8     libmingw32:lib64_libmingw32_a-tlssup.o
 0002:0000e940       $unwind$_ZN7Sysinit19InterlockedExchangeERii 0000000140021940     sysinit.o
 0002:0000e944       $unwind$_ZN7Sysinit26InterlockedExchangePointerERPvS0_ 0000000140021944     sysinit.o
 0002:0000e948       $unwind$_ZN7Sysinit17SetDliNotifyHook2EPFPv15dliNotificationP13DelayLoadInfoE 0000000140021948     sysinit.o
 0002:0000e94c       $unwind$_ZN7Sysinit14DliNotifyHook2Ev 000000014002194c     sysinit.o
 0002:0000e950       $unwind$_ZN7Sysinit18SetDliFailureHook2EPFPv15dliNotificationP13DelayLoadInfoE 0000000140021950     sysinit.o
 0002:0000e954       $unwind$_ZN7Sysinit15DliFailureHook2Ev 0000000140021954     sysinit.o
 0002:0000e958       $unwind$_ZN7Sysinit17_DelayLoadHelper2ERPvS0_ 0000000140021958     sysinit.o
 0002:0000e960       $unwind$_ZN7Sysinit21UnloadDelayLoadedDLL2EPc 0000000140021960     sysinit.o
 0002:0000e964       $unwind$_ZN7Sysinit20LoadAllImportsForDllEPc 0000000140021964     sysinit.o
 0002:0000e968       $unwind$_ZN7Sysinit14AllocTlsBufferEi 0000000140021968     sysinit.o
 0002:0000e970       $unwind$_ZN7Sysinit10GetTlsSizeEv 0000000140021970     sysinit.o
 0002:0000e974       $unwind$_ZN7Sysinit13InitThreadTLSEv 0000000140021974     sysinit.o
 0002:0000e97c       $unwind$_ZN7Sysinit14InitProcessTLSEv 000000014002197c     sysinit.o
 0002:0000e984       $unwind$_ZN7Sysinit13ExitThreadTLSEv 0000000140021984     sysinit.o
 0002:0000e98c       $unwind$_ZN7Sysinit14ExitProcessTLSEv 000000014002198c     sysinit.o
 0002:0000e994       $unwind$_ZN7Sysinit6isWineEv 0000000140021994     sysinit.o
 0002:0000e99c       $unwind$_ZN7Sysinit7_GetTlsEv 000000014002199c     sysinit.o
 0002:0000e9a4       $unwind$_ZN7Sysinit16InitializeModuleEv 00000001400219a4     sysinit.o
 0002:0000e9ac       $unwind$_ZN7Sysinit18UninitializeModuleEv 00000001400219ac     sysinit.o
 0002:0000e9b4       $unwind$_ZN7Sysinit7VclInitEbbyb 00000001400219b4     sysinit.o
 0002:0000e9c4       $unwind$_ZN7Sysinit7VclExitEv 00000001400219c4     sysinit.o
 0002:0000e9cc       $unwind$_ZN7Sysinit14__dbkDummyProcEv 00000001400219cc     sysinit.o
 0002:0000e9d0       $unwind$_ZN7Sysinit14__dbkFCallArgsEPvS0_S0_S0_S0_S0_S0_S0_S0_S0_S0_S0_S0_S0_S0_S0_S0_S0_S0_S0_S0_S0_S0_S0_S0_S0_S0_S0_S0_S0_ 00000001400219d0     sysinit.o
 0002:0000e9d8       $unwind$_ZN7Sysinit19__dbk_fcall_wrapperEv 00000001400219d8     sysinit.o
 0002:0000ea14       $unwind$_ZN7Sysinit8_InitPkgEyiPv 0000000140021a14     sysinit.o
 0002:0000ea20       $unwind$_ZN7Sysinit12_PackageLoadEPN6System16PackageInfoTableE 0000000140021a20     sysinit.o
 0002:0000ea28       $unwind$_ZN7Sysinit14_PackageUnloadEPN6System16PackageInfoTableE 0000000140021a28     sysinit.o
 0002:0000ea30       $unwind$_ZN7Sysinit8_InitLibEPN6System12TInitContextEPNS0_16PackageInfoTableEyjPv 0000000140021a30     sysinit.o
 0002:0000ea40       $unwind$_ZN7Sysinit8_InitExeEPv 0000000140021a40     sysinit.o
 0002:0000ea48       $unwind$delayhlp           0000000140021a48     sysinit.o
 0002:0000eaa8       $unwind$_ZN7Sysinit12FinalizationEv 0000000140021aa8     sysinit.o
 0002:0000eab0       $unwind$_ZN7Sysinit14initializationEv 0000000140021ab0     sysinit.o
 0002:0000eb30       GCC_except_table0          0000000140021b30     Project-2nd-try.o
 0002:0000ec98       GCC_except_table3          0000000140021c98     rtle:ustring.o
 0002:0000ed08       GCC_except_table18         0000000140021d08     rtle:ustring.o
 0002:0000ed24       GCC_except_table21         0000000140021d24     rtle:ustring.o
 0002:0000ed48       GCC_except_table23         0000000140021d48     rtle:ustring.o
 0002:0000ed70       GCC_except_table26         0000000140021d70     rtle:ustring.o
 0002:0000edcc       GCC_except_table35         0000000140021dcc     rtle:ustring.o
 0002:0000edf0       GCC_except_table37         0000000140021df0     rtle:ustring.o
 0002:0000ef70       GCC_except_table83         0000000140021f70     rtle:ustring.o
 0002:0000ef8c       GCC_except_table84         0000000140021f8c     rtle:ustring.o
 0002:0000efa8       GCC_except_table85         0000000140021fa8     rtle:ustring.o
 0002:0000efc4       GCC_except_table86         0000000140021fc4     rtle:ustring.o
 0002:0000f008       GCC_except_table92         0000000140022008     rtle:ustring.o
 0002:0000f024       GCC_except_table93         0000000140022024     rtle:ustring.o
 0002:0000f048       GCC_except_table96         0000000140022048     rtle:ustring.o
 0002:0000f064       GCC_except_table97         0000000140022064     rtle:ustring.o
 0002:0000f080       GCC_except_table98         0000000140022080     rtle:ustring.o
 0002:0000f09c       GCC_except_table99         000000014002209c     rtle:ustring.o
 0002:0000f0b8       GCC_except_table100        00000001400220b8     rtle:ustring.o
 0002:0000f0d4       GCC_except_table101        00000001400220d4     rtle:ustring.o
 0002:0000f0f0       GCC_except_table102        00000001400220f0     rtle:ustring.o
 0002:0000f10c       GCC_except_table103        000000014002210c     rtle:ustring.o
 0002:0000f128       GCC_except_table104        0000000140022128     rtle:ustring.o
 0002:0000f144       GCC_except_table105        0000000140022144     rtle:ustring.o
 0002:0000f160       GCC_except_table106        0000000140022160     rtle:ustring.o
 0002:0000f17c       GCC_except_table107        000000014002217c     rtle:ustring.o
 0002:0000f198       GCC_except_table108        0000000140022198     rtle:ustring.o
 0002:0000f1b4       GCC_except_table109        00000001400221b4     rtle:ustring.o
 0002:0000f1d0       GCC_except_table110        00000001400221d0     rtle:ustring.o
 0002:0000f1ec       GCC_except_table111        00000001400221ec     rtle:ustring.o
 0002:0000f208       GCC_except_table112        0000000140022208     rtle:ustring.o
 0002:0000f26c       GCC_except_table4          000000014002226c     rtle:ustring.o
 0002:0000f28c       GCC_except_table20         000000014002228c     rtle:ustring.o
 0002:0000f2ac       GCC_except_table120        00000001400222ac     rtle:ustring.o
 0002:0000f2cc       GCC_except_table121        00000001400222cc     rtle:ustring.o
 0002:0000f44c       GCC_except_table3          000000014002244c     rtle:syssupp.o
 0002:0000f46c       GCC_except_table7          000000014002246c     rtle:syssupp.o
 0002:0000f590       GCC_except_table5          0000000140022590     rtle:syssupp.o
 0002:0000f5b0       GCC_except_table9          00000001400225b0     rtle:syssupp.o
 0002:0000f5d0       GCC_except_table14         00000001400225d0     rtle:syssupp.o
 0002:0000f5e8       GCC_except_table49         00000001400225e8     rtle:syssupp.o
 0002:0000f608       GCC_except_table51         0000000140022608     rtle:syssupp.o
 0002:0000f628       GCC_except_table58         0000000140022628     rtle:syssupp.o
 0002:0000f648       GCC_except_table74         0000000140022648     rtle:syssupp.o
 0002:0000f668       GCC_except_table75         0000000140022668     rtle:syssupp.o
 0002:0000f688       GCC_except_table90         0000000140022688     rtle:syssupp.o
 0002:0000f6a8       GCC_except_table107        00000001400226a8     rtle:syssupp.o
 0002:0000f6c8       GCC_except_table112        00000001400226c8     rtle:syssupp.o
 0002:0000f6ec       GCC_except_table124        00000001400226ec     rtle:syssupp.o
 0002:0000f710       GCC_except_table140        0000000140022710     rtle:syssupp.o
 0002:0000f730       GCC_except_table172        0000000140022730     rtle:syssupp.o
 0002:0000f750       GCC_except_table186        0000000140022750     rtle:syssupp.o
 0002:0000f770       GCC_except_table213        0000000140022770     rtle:syssupp.o
 0002:0000fecc       $unwind$_ZN6System8Internal7Strhlpr15UnicodeFromAnsiERNS_13UnicodeStringERNS_11AnsiStringTILt65535EEE 0000000140022ecc     rtl:System.Internal.StrHlpr.o
 0002:0000fed4       $unwind$_ZN6System8Internal7Strhlpr16UnicodeFromPCharERNS_13UnicodeStringEPcb 0000000140022ed4     rtl:System.Internal.StrHlpr.o
 0002:0000ff04       $unwind$_ZN6System8Internal7Strhlpr15UnicodeFromUTF8ERNS_13UnicodeStringEPKc 0000000140022f04     rtl:System.Internal.StrHlpr.o
 0002:0000ff0c       $unwind$_ZN6System8Internal7Strhlpr20UnicodeFromPWideCharERNS_13UnicodeStringEPw 0000000140022f0c     rtl:System.Internal.StrHlpr.o
 0002:0000ff14       $unwind$_ZN6System8Internal7Strhlpr13UnicodeAppendERNS_13UnicodeStringES3_ 0000000140022f14     rtl:System.Internal.StrHlpr.o
 0002:0000ff1c       $unwind$_ZN6System8Internal7Strhlpr10UnicodeCatERNS_13UnicodeStringES3_ 0000000140022f1c     rtl:System.Internal.StrHlpr.o
 0002:0000ff24       $unwind$_ZN6System8Internal7Strhlpr13UnicodeDeleteERNS_13UnicodeStringEii 0000000140022f24     rtl:System.Internal.StrHlpr.o
 0002:0000ff2c       $unwind$_ZN6System8Internal7Strhlpr16UnicodeSetLengthERNS_13UnicodeStringEi 0000000140022f2c     rtl:System.Internal.StrHlpr.o
 0002:0000ff34       $unwind$_ZN6System8Internal7Strhlpr10UnicodePosERNS_13UnicodeStringES3_ 0000000140022f34     rtl:System.Internal.StrHlpr.o
 0002:0000ff3c       $unwind$_ZN6System8Internal7Strhlpr11UnicodeCopyERNS_13UnicodeStringEii 0000000140022f3c     rtl:System.Internal.StrHlpr.o
 0002:0000ff44       $unwind$_ZN6System8Internal7Strhlpr13UnicodeInsertERNS_13UnicodeStringES3_i 0000000140022f44     rtl:System.Internal.StrHlpr.o
 0002:0000ff4c       $unwind$_ZN6System8Internal7Strhlpr13UnicodeAssignERNS_13UnicodeStringES3_ 0000000140022f4c     rtl:System.Internal.StrHlpr.o
 0002:0000ff54       $unwind$_ZN6System8Internal7Strhlpr11UnicodeFreeERNS_13UnicodeStringE 0000000140022f54     rtl:System.Internal.StrHlpr.o
 0002:0000ff5c       $unwind$_ZN6System8Internal7Strhlpr12UnicodeEqualERNS_13UnicodeStringES3_ 0000000140022f5c     rtl:System.Internal.StrHlpr.o
 0002:0000ff64       $unwind$_ZN6System8Internal7Strhlpr11UnicodeLessERNS_13UnicodeStringES3_ 0000000140022f64     rtl:System.Internal.StrHlpr.o
 0002:0000ff6c       $unwind$_ZN6System8Internal7Strhlpr14UnicodeGreaterERNS_13UnicodeStringES3_ 0000000140022f6c     rtl:System.Internal.StrHlpr.o
 0002:0000ff74       $unwind$_ZN6System8Internal7Strhlpr10AnsiAppendERNS_11AnsiStringTILt65535EEES4_ 0000000140022f74     rtl:System.Internal.StrHlpr.o
 0002:0000ff7c       $unwind$_ZN6System8Internal7Strhlpr7AnsiCatERNS_11AnsiStringTILt65535EEES4_ 0000000140022f7c     rtl:System.Internal.StrHlpr.o
 0002:0000ff84       $unwind$_ZN6System8Internal7Strhlpr10AnsiDeleteERNS_11AnsiStringTILt65535EEEii 0000000140022f84     rtl:System.Internal.StrHlpr.o
 0002:0000ff8c       $unwind$_ZN6System8Internal7Strhlpr13AnsiSetLengthERNS_11AnsiStringTILt65535EEEi 0000000140022f8c     rtl:System.Internal.StrHlpr.o
 0002:0000ff94       $unwind$_ZN6System8Internal7Strhlpr7AnsiPosERNS_11AnsiStringTILt65535EEES4_ 0000000140022f94     rtl:System.Internal.StrHlpr.o
 0002:0000ff9c       $unwind$_ZN6System8Internal7Strhlpr8AnsiCopyERNS_11AnsiStringTILt65535EEEii 0000000140022f9c     rtl:System.Internal.StrHlpr.o
 0002:0000ffa4       $unwind$_ZN6System8Internal7Strhlpr10AnsiInsertERNS_11AnsiStringTILt65535EEES4_i 0000000140022fa4     rtl:System.Internal.StrHlpr.o
 0002:0000ffac       $unwind$_ZN6System8Internal7Strhlpr9AnsiEqualERNS_11AnsiStringTILt65535EEES4_ 0000000140022fac     rtl:System.Internal.StrHlpr.o
 0002:0000ffb4       $unwind$_ZN6System8Internal7Strhlpr11AnsiGreaterERNS_11AnsiStringTILt65535EEES4_ 0000000140022fb4     rtl:System.Internal.StrHlpr.o
 0002:0000ffbc       $unwind$_ZN6System8Internal7Strhlpr8AnsiLessERNS_11AnsiStringTILt65535EEES4_ 0000000140022fbc     rtl:System.Internal.StrHlpr.o
 0002:0000ffc4       $unwind$_ZN6System8Internal7Strhlpr10AnsiAssignERNS_11AnsiStringTILt65535EEES4_ 0000000140022fc4     rtl:System.Internal.StrHlpr.o
 0002:0000ffcc       $unwind$_ZN6System8Internal7Strhlpr8AnsiFreeERNS_11AnsiStringTILt65535EEE 0000000140022fcc     rtl:System.Internal.StrHlpr.o
 0002:0000ffd4       $unwind$_ZN6System8Internal7Strhlpr10WideAssignERNS_10WideStringES3_ 0000000140022fd4     rtl:System.Internal.StrHlpr.o
 0002:0000ffdc       $unwind$_ZN6System8Internal7Strhlpr8WideFreeERNS_10WideStringE 0000000140022fdc     rtl:System.Internal.StrHlpr.o
 0002:0000ffe4       $unwind$_ZN6System8Internal7Strhlpr12WideFromAnsiERNS_10WideStringERNS_11AnsiStringTILt65535EEE 0000000140022fe4     rtl:System.Internal.StrHlpr.o
 0002:0000ffec       $unwind$_ZN6System8Internal7Strhlpr15WideFromUnicodeERNS_10WideStringERNS_13UnicodeStringE 0000000140022fec     rtl:System.Internal.StrHlpr.o
 0002:0000fff4       $unwind$_ZN6System8Internal7Strhlpr13WideFromPCharERNS_10WideStringEPcb 0000000140022ff4     rtl:System.Internal.StrHlpr.o
 0002:00010024       $unwind$_ZN6System8Internal7Strhlpr9WideEqualERNS_10WideStringES3_ 0000000140023024     rtl:System.Internal.StrHlpr.o
 0002:0001002c       $unwind$_ZN6System8Internal7Strhlpr8WideLessERNS_10WideStringES3_ 000000014002302c     rtl:System.Internal.StrHlpr.o
 0002:00010034       $unwind$_ZN6System8Internal7Strhlpr11WideGreaterERNS_10WideStringES3_ 0000000140023034     rtl:System.Internal.StrHlpr.o
 0002:0001003c       $unwind$_ZN6System8Internal7Strhlpr7WideCatERNS_10WideStringES3_ 000000014002303c     rtl:System.Internal.StrHlpr.o
 0002:00010044       $unwind$_ZN6System8Internal7Strhlpr10WideLengthERNS_10WideStringE 0000000140023044     rtl:System.Internal.StrHlpr.o
 0002:00010048       $unwind$_ZN6System8Internal7Strhlpr7WidePosERNS_10WideStringES3_ 0000000140023048     rtl:System.Internal.StrHlpr.o
 0002:00010050       $unwind$_ZN6System8Internal7Strhlpr13WideSetLengthERNS_10WideStringEi 0000000140023050     rtl:System.Internal.StrHlpr.o
 0002:00010058       $unwind$_ZN6System8Internal7Strhlpr10WideDeleteERNS_10WideStringEii 0000000140023058     rtl:System.Internal.StrHlpr.o
 0002:00010060       $unwind$_ZN6System8Internal7Strhlpr10WideInsertERNS_10WideStringES3_i 0000000140023060     rtl:System.Internal.StrHlpr.o
 0002:00010068       $unwind$_ZN6System8Internal7Strhlpr8WideCopyERNS_10WideStringEii 0000000140023068     rtl:System.Internal.StrHlpr.o
 0002:00010070       $unwind$_ZN6System8Internal7Strhlpr10WideAppendERNS_10WideStringES3_ 0000000140023070     rtl:System.Internal.StrHlpr.o
 0002:00010078       $unwind$_ZN6System8Internal7Strhlpr12WideFromUTF8ERNS_10WideStringEPKc 0000000140023078     rtl:System.Internal.StrHlpr.o
 0002:000100a8       $unwind$_ZN6System8Internal7Strhlpr15UnicodeFromWideERNS_13UnicodeStringERNS_10WideStringE 00000001400230a8     rtl:System.Internal.StrHlpr.o
 0002:000100b0       $unwind$_ZN6System8Internal7Strhlpr12FinalizationEv 00000001400230b0     rtl:System.Internal.StrHlpr.o
 0002:000100b4       $unwind$_ZN6System8Internal7Strhlpr14initializationEv 00000001400230b4     rtl:System.Internal.StrHlpr.o
 0002:000100dc       GCC_except_table3          00000001400230dc     rtle:dstring.o
 0002:00010144       GCC_except_table17         0000000140023144     rtle:dstring.o
 0002:00010178       GCC_except_table20         0000000140023178     rtle:dstring.o
 0002:0001019c       GCC_except_table21         000000014002319c     rtle:dstring.o
 0002:000101c0       GCC_except_table22         00000001400231c0     rtle:dstring.o
 0002:00010220       GCC_except_table32         0000000140023220     rtle:dstring.o
 0002:00010240       GCC_except_table36         0000000140023240     rtle:dstring.o
 0002:00010260       GCC_except_table37         0000000140023260     rtle:dstring.o
 0002:00010278       GCC_except_table38         0000000140023278     rtle:dstring.o
 0002:00010298       GCC_except_table39         0000000140023298     rtle:dstring.o
 0002:000102b8       GCC_except_table40         00000001400232b8     rtle:dstring.o
 0002:000102d8       GCC_except_table41         00000001400232d8     rtle:dstring.o
 0002:0001030c       GCC_except_table45         000000014002330c     rtle:dstring.o
 0002:0001032c       GCC_except_table46         000000014002332c     rtle:dstring.o
 0002:0001034c       GCC_except_table47         000000014002334c     rtle:dstring.o
 0002:0001036c       GCC_except_table48         000000014002336c     rtle:dstring.o
 0002:000103a4       GCC_except_table52         00000001400233a4     rtle:dstring.o
 0002:000103dc       GCC_except_table57         00000001400233dc     rtle:dstring.o
 0002:00010414       GCC_except_table60         0000000140023414     rtle:dstring.o
 0002:00010434       GCC_except_table61         0000000140023434     rtle:dstring.o
 0002:00010454       GCC_except_table62         0000000140023454     rtle:dstring.o
 0002:00010474       GCC_except_table63         0000000140023474     rtle:dstring.o
 0002:00010494       GCC_except_table64         0000000140023494     rtle:dstring.o
 0002:000104c4       GCC_except_table67         00000001400234c4     rtle:dstring.o
 0002:000104e0       GCC_except_table68         00000001400234e0     rtle:dstring.o
 0002:000104fc       GCC_except_table69         00000001400234fc     rtle:dstring.o
 0002:000105a8       GCC_except_table4          00000001400235a8     rtle:dstring.o
 0002:000105c8       GCC_except_table35         00000001400235c8     rtle:dstring.o
 0002:000105e8       GCC_except_table87         00000001400235e8     rtle:dstring.o
 0002:00010608       GCC_except_table88         0000000140023608     rtle:dstring.o
 0002:00010694       $unwind$_ZN6System8Internal7Initcpp23SelectForInitializationEPNS1_20TUnitDescriptorBlockES3_ 0000000140023694     rtl:System.Internal.InitCPP.o
 0002:00010698       $unwind$_ZN6System8Internal7Initcpp23SelectForInitializationEPPNS1_20TUnitDescriptorBlockES4_ 0000000140023698     rtl:System.Internal.InitCPP.o
 0002:0001069c       $unwind$_ZN6System8Internal7Initcpp15InitializeUnitsEPNS1_20TUnitDescriptorBlockES3_ 000000014002369c     rtl:System.Internal.InitCPP.o
 0002:000106a8       $unwind$_ZN6System8Internal7Initcpp13FinalizeUnitsEPNS1_20TUnitDescriptorBlockES3_ 00000001400236a8     rtl:System.Internal.InitCPP.o
 0002:000106b0       $unwind$_ZN6System8Internal7Initcpp15InitializeUnitsEPPNS1_20TUnitDescriptorBlockES4_ 00000001400236b0     rtl:System.Internal.InitCPP.o
 0002:000106bc       $unwind$_ZN6System8Internal7Initcpp13FinalizeUnitsEPPNS1_20TUnitDescriptorBlockES4_ 00000001400236bc     rtl:System.Internal.InitCPP.o
 0002:000106c4       $unwind$_ZN6System8Internal7Initcpp15InitializeUnitsEPNS1_15TUnitDescriptorES3_ 00000001400236c4     rtl:System.Internal.InitCPP.o
 0002:000106cc       $unwind$_ZN6System8Internal7Initcpp13FinalizeUnitsEPNS1_15TUnitDescriptorES3_ 00000001400236cc     rtl:System.Internal.InitCPP.o
 0002:000106d4       $unwind$_ZN6System8Internal7Initcpp15CalculateDegreeEPNS1_20TUnitDescriptorBlockES3_ 00000001400236d4     rtl:System.Internal.InitCPP.o
 0002:000106d8       $unwind$_ZN6System8Internal7Initcpp15CalculateDegreeEPPNS1_20TUnitDescriptorBlockES4_ 00000001400236d8     rtl:System.Internal.InitCPP.o
 0002:000106dc       $unwind$_ZN6System8Internal7Initcpp16FinalizeUnitListEPPPNS1_15TUnitDescriptorES5_ 00000001400236dc     rtl:System.Internal.InitCPP.o
 0002:00010718       $unwind$_ZN6System8Internal7Initcpp18InitializeRootUnitEPNS1_15TUnitDescriptorE 0000000140023718     rtl:System.Internal.InitCPP.o
 0002:000107cc       $unwind$_ZN6System8Internal7Initcpp16FinalizeRootUnitEPNS1_15TUnitDescriptorE 00000001400237cc     rtl:System.Internal.InitCPP.o
 0002:00010808       $unwind$_ZN6System8Internal7Initcpp12FinalizationEv 0000000140023808     rtl:System.Internal.InitCPP.o
 0002:0001080c       $unwind$_ZN6System8Internal7Initcpp14initializationEv 000000014002380c     rtl:System.Internal.InitCPP.o
 0004:00000000       version_string             0000000140025000     crtbegin.o
 0004:000000e8       _ZN7Sysinit6ModuleE        00000001400250e8     sysinit.o
 0004:00000120       _ZN7Sysinit7TlsProcE       0000000140025120     sysinit.o
 0004:00000140       _ZN7Sysinit21_dtors_delayhlp_65535E 0000000140025140     sysinit.o
 0004:00000160       initial_tznames            0000000140025160     libucrt:lib64_libucrt_extra_a-ucrtbase_compat.o
 0004:00000178       initial_timezone           0000000140025178     libucrt:lib64_libucrt_extra_a-ucrtbase_compat.o
 0004:00000188       initial_daylight           0000000140025188     libucrt:lib64_libucrt_extra_a-ucrtbase_compat.o
 0004:000001c8       initial_tzname0            00000001400251c8     libucrt:lib64_libucrt_extra_a-ucrtbase_compat.o
 0004:000001cc       initial_tzname1            00000001400251cc     libucrt:lib64_libucrt_extra_a-ucrtbase_compat.o
 0004:000001e0       __do_global_dtors.p        00000001400251e0     libmingw32:lib64_libmingw32_a-gccmain.o
 0004:00000218       _ZZN6System19CheckSafecallResultElE13__init_comobj 0000000140025218     rtle:syssupp.o
 0004:0000023c       managedapp                 000000014002523c     crt2u.o
 0004:00000240       startinfo                  0000000140025240     crt2u.o
 0004:00000244       argc                       0000000140025244     crt2u.o
 0004:00000248       argv                       0000000140025248     crt2u.o
 0004:00000250       envp                       0000000140025250     crt2u.o
 0004:00000258       argret                     0000000140025258     crt2u.o
 0004:0000025c       has_cctor                  000000014002525c     crt2u.o
 0004:00000260       mainret                    0000000140025260     crt2u.o
 0004:000002a8       _ZN7Sysinit2_1E            00000001400252a8     sysinit.o
 0004:000002b0       _ZN7Sysinit9tlsBufferE     00000001400252b0     sysinit.o
 0004:000002b8       _ZN7Sysinit9UseTlsAPIE     00000001400252b8     sysinit.o
 0004:000002c0       .bss.delayhlp              00000001400252c0     sysinit.o
 0004:000002c0       ..__puiHead                00000001400252c0     sysinit.o
 0004:000002f0       local__initenv             00000001400252f0     libucrt:lib64_libucrt_extra_a-__initenv.o
 0004:000002f8       local__winitenv            00000001400252f8     libucrt:lib64_libucrt_extra_a-__initenv.o
 0004:00000300       initialized                0000000140025300     libmingw32:lib64_libmingw32_a-gccmain.o
 0004:00000338       _pei386_runtime_relocator.was_init 0000000140025338     libmingw32:lib64_libmingw32_a-pseudo-reloc.o
 0004:00000340       the_secs                   0000000140025340     libmingw32:lib64_libmingw32_a-pseudo-reloc.o
 0004:00000348       maxSections                0000000140025348     libmingw32:lib64_libmingw32_a-pseudo-reloc.o
 0004:00000350       stUserMathErr              0000000140025350     libmingw32:lib64_libmingw32_a-usermatherr.o
 0004:00000370       __mingwthr_cs_init         0000000140025370     libmingw32:lib64_libmingw32_a-tlsthrd.o
 0004:00000378       __mingwthr_cs              0000000140025378     libmingw32:lib64_libmingw32_a-tlsthrd.o
 0004:000003a0       key_dtor_list              00000001400253a0     libmingw32:lib64_libmingw32_a-tlsthrd.o
 0004:000003b0       _ZZ18__delphi_type_infoE15type_info_mutex 00000001400253b0     rtle:syssupp.o
 0004:000003b8       _ZZ18__delphi_type_infoE13type_info_map 00000001400253b8     rtle:syssupp.o
 0004:000003e0       _ZGVZ18__delphi_type_infoE13type_info_map 00000001400253e0     rtle:syssupp.o
 0004:000003f0       _ZN6System8Internal7Strhlpr2_1E 00000001400253f0     rtl:System.Internal.StrHlpr.o
 0004:000003f4       _ZN6System8Internal7Initcpp2_1E 00000001400253f4     rtl:System.Internal.InitCPP.o
 0005:0000006c       $pdata$_ZN7Sysinit19InterlockedExchangeERii 000000014002606c     sysinit.o
 0005:00000078       $pdata$_ZN7Sysinit26InterlockedExchangePointerERPvS0_ 0000000140026078     sysinit.o
 0005:00000084       $pdata$_ZN7Sysinit17SetDliNotifyHook2EPFPv15dliNotificationP13DelayLoadInfoE 0000000140026084     sysinit.o
 0005:00000090       $pdata$_ZN7Sysinit14DliNotifyHook2Ev 0000000140026090     sysinit.o
 0005:0000009c       $pdata$_ZN7Sysinit18SetDliFailureHook2EPFPv15dliNotificationP13DelayLoadInfoE 000000014002609c     sysinit.o
 0005:000000a8       $pdata$_ZN7Sysinit15DliFailureHook2Ev 00000001400260a8     sysinit.o
 0005:000000b4       $pdata$_ZN7Sysinit17_DelayLoadHelper2ERPvS0_ 00000001400260b4     sysinit.o
 0005:000000c0       $pdata$_ZN7Sysinit21UnloadDelayLoadedDLL2EPc 00000001400260c0     sysinit.o
 0005:000000cc       $pdata$_ZN7Sysinit20LoadAllImportsForDllEPc 00000001400260cc     sysinit.o
 0005:000000d8       $pdata$_ZN7Sysinit14AllocTlsBufferEi 00000001400260d8     sysinit.o
 0005:000000e4       $pdata$_ZN7Sysinit10GetTlsSizeEv 00000001400260e4     sysinit.o
 0005:000000f0       $pdata$_ZN7Sysinit13InitThreadTLSEv 00000001400260f0     sysinit.o
 0005:000000fc       $pdata$_ZN7Sysinit14InitProcessTLSEv 00000001400260fc     sysinit.o
 0005:00000108       $pdata$_ZN7Sysinit13ExitThreadTLSEv 0000000140026108     sysinit.o
 0005:00000114       $pdata$_ZN7Sysinit14ExitProcessTLSEv 0000000140026114     sysinit.o
 0005:00000120       $pdata$_ZN7Sysinit6isWineEv 0000000140026120     sysinit.o
 0005:0000012c       $pdata$_ZN7Sysinit7_GetTlsEv 000000014002612c     sysinit.o
 0005:00000138       $pdata$_ZN7Sysinit16InitializeModuleEv 0000000140026138     sysinit.o
 0005:00000144       $pdata$_ZN7Sysinit18UninitializeModuleEv 0000000140026144     sysinit.o
 0005:00000150       $pdata$_ZN7Sysinit7VclInitEbbyb 0000000140026150     sysinit.o
 0005:0000015c       $pdata$_ZN7Sysinit7VclExitEv 000000014002615c     sysinit.o
 0005:00000168       $pdata$_ZN7Sysinit14__dbkDummyProcEv 0000000140026168     sysinit.o
 0005:00000174       $pdata$_ZN7Sysinit14__dbkFCallArgsEPvS0_S0_S0_S0_S0_S0_S0_S0_S0_S0_S0_S0_S0_S0_S0_S0_S0_S0_S0_S0_S0_S0_S0_S0_S0_S0_S0_S0_S0_ 0000000140026174     sysinit.o
 0005:00000180       $pdata$_ZN7Sysinit19__dbk_fcall_wrapperEv 0000000140026180     sysinit.o
 0005:00000198       $pdata$_ZN7Sysinit8_InitPkgEyiPv 0000000140026198     sysinit.o
 0005:000001a4       $pdata$_ZN7Sysinit12_PackageLoadEPN6System16PackageInfoTableE 00000001400261a4     sysinit.o
 0005:000001b0       $pdata$_ZN7Sysinit14_PackageUnloadEPN6System16PackageInfoTableE 00000001400261b0     sysinit.o
 0005:000001bc       $pdata$_ZN7Sysinit8_InitLibEPN6System12TInitContextEPNS0_16PackageInfoTableEyjPv 00000001400261bc     sysinit.o
 0005:000001c8       $pdata$_ZN7Sysinit8_InitExeEPv 00000001400261c8     sysinit.o
 0005:000001d4       $pdata$delayhlp            00000001400261d4     sysinit.o
 0005:00000204       $pdata$_ZN7Sysinit12FinalizationEv 0000000140026204     sysinit.o
 0005:00000210       $pdata$_ZN7Sysinit14initializationEv 0000000140026210     sysinit.o
 0005:000014f4       $pdata$_ZN6System8Internal7Strhlpr15UnicodeFromAnsiERNS_13UnicodeStringERNS_11AnsiStringTILt65535EEE 00000001400274f4     rtl:System.Internal.StrHlpr.o
 0005:00001500       $pdata$_ZN6System8Internal7Strhlpr16UnicodeFromPCharERNS_13UnicodeStringEPcb 0000000140027500     rtl:System.Internal.StrHlpr.o
 0005:00001518       $pdata$_ZN6System8Internal7Strhlpr15UnicodeFromUTF8ERNS_13UnicodeStringEPKc 0000000140027518     rtl:System.Internal.StrHlpr.o
 0005:00001524       $pdata$_ZN6System8Internal7Strhlpr20UnicodeFromPWideCharERNS_13UnicodeStringEPw 0000000140027524     rtl:System.Internal.StrHlpr.o
 0005:00001530       $pdata$_ZN6System8Internal7Strhlpr13UnicodeAppendERNS_13UnicodeStringES3_ 0000000140027530     rtl:System.Internal.StrHlpr.o
 0005:0000153c       $pdata$_ZN6System8Internal7Strhlpr10UnicodeCatERNS_13UnicodeStringES3_ 000000014002753c     rtl:System.Internal.StrHlpr.o
 0005:00001548       $pdata$_ZN6System8Internal7Strhlpr13UnicodeDeleteERNS_13UnicodeStringEii 0000000140027548     rtl:System.Internal.StrHlpr.o
 0005:00001554       $pdata$_ZN6System8Internal7Strhlpr16UnicodeSetLengthERNS_13UnicodeStringEi 0000000140027554     rtl:System.Internal.StrHlpr.o
 0005:00001560       $pdata$_ZN6System8Internal7Strhlpr10UnicodePosERNS_13UnicodeStringES3_ 0000000140027560     rtl:System.Internal.StrHlpr.o
 0005:0000156c       $pdata$_ZN6System8Internal7Strhlpr11UnicodeCopyERNS_13UnicodeStringEii 000000014002756c     rtl:System.Internal.StrHlpr.o
 0005:00001578       $pdata$_ZN6System8Internal7Strhlpr13UnicodeInsertERNS_13UnicodeStringES3_i 0000000140027578     rtl:System.Internal.StrHlpr.o
 0005:00001584       $pdata$_ZN6System8Internal7Strhlpr13UnicodeAssignERNS_13UnicodeStringES3_ 0000000140027584     rtl:System.Internal.StrHlpr.o
 0005:00001590       $pdata$_ZN6System8Internal7Strhlpr11UnicodeFreeERNS_13UnicodeStringE 0000000140027590     rtl:System.Internal.StrHlpr.o
 0005:0000159c       $pdata$_ZN6System8Internal7Strhlpr12UnicodeEqualERNS_13UnicodeStringES3_ 000000014002759c     rtl:System.Internal.StrHlpr.o
 0005:000015a8       $pdata$_ZN6System8Internal7Strhlpr11UnicodeLessERNS_13UnicodeStringES3_ 00000001400275a8     rtl:System.Internal.StrHlpr.o
 0005:000015b4       $pdata$_ZN6System8Internal7Strhlpr14UnicodeGreaterERNS_13UnicodeStringES3_ 00000001400275b4     rtl:System.Internal.StrHlpr.o
 0005:000015c0       $pdata$_ZN6System8Internal7Strhlpr10AnsiAppendERNS_11AnsiStringTILt65535EEES4_ 00000001400275c0     rtl:System.Internal.StrHlpr.o
 0005:000015cc       $pdata$_ZN6System8Internal7Strhlpr7AnsiCatERNS_11AnsiStringTILt65535EEES4_ 00000001400275cc     rtl:System.Internal.StrHlpr.o
 0005:000015d8       $pdata$_ZN6System8Internal7Strhlpr10AnsiDeleteERNS_11AnsiStringTILt65535EEEii 00000001400275d8     rtl:System.Internal.StrHlpr.o
 0005:000015e4       $pdata$_ZN6System8Internal7Strhlpr13AnsiSetLengthERNS_11AnsiStringTILt65535EEEi 00000001400275e4     rtl:System.Internal.StrHlpr.o
 0005:000015f0       $pdata$_ZN6System8Internal7Strhlpr7AnsiPosERNS_11AnsiStringTILt65535EEES4_ 00000001400275f0     rtl:System.Internal.StrHlpr.o
 0005:000015fc       $pdata$_ZN6System8Internal7Strhlpr8AnsiCopyERNS_11AnsiStringTILt65535EEEii 00000001400275fc     rtl:System.Internal.StrHlpr.o
 0005:00001608       $pdata$_ZN6System8Internal7Strhlpr10AnsiInsertERNS_11AnsiStringTILt65535EEES4_i 0000000140027608     rtl:System.Internal.StrHlpr.o
 0005:00001614       $pdata$_ZN6System8Internal7Strhlpr9AnsiEqualERNS_11AnsiStringTILt65535EEES4_ 0000000140027614     rtl:System.Internal.StrHlpr.o
 0005:00001620       $pdata$_ZN6System8Internal7Strhlpr11AnsiGreaterERNS_11AnsiStringTILt65535EEES4_ 0000000140027620     rtl:System.Internal.StrHlpr.o
 0005:0000162c       $pdata$_ZN6System8Internal7Strhlpr8AnsiLessERNS_11AnsiStringTILt65535EEES4_ 000000014002762c     rtl:System.Internal.StrHlpr.o
 0005:00001638       $pdata$_ZN6System8Internal7Strhlpr10AnsiAssignERNS_11AnsiStringTILt65535EEES4_ 0000000140027638     rtl:System.Internal.StrHlpr.o
 0005:00001644       $pdata$_ZN6System8Internal7Strhlpr8AnsiFreeERNS_11AnsiStringTILt65535EEE 0000000140027644     rtl:System.Internal.StrHlpr.o
 0005:00001650       $pdata$_ZN6System8Internal7Strhlpr10WideAssignERNS_10WideStringES3_ 0000000140027650     rtl:System.Internal.StrHlpr.o
 0005:0000165c       $pdata$_ZN6System8Internal7Strhlpr8WideFreeERNS_10WideStringE 000000014002765c     rtl:System.Internal.StrHlpr.o
 0005:00001668       $pdata$_ZN6System8Internal7Strhlpr12WideFromAnsiERNS_10WideStringERNS_11AnsiStringTILt65535EEE 0000000140027668     rtl:System.Internal.StrHlpr.o
 0005:00001674       $pdata$_ZN6System8Internal7Strhlpr15WideFromUnicodeERNS_10WideStringERNS_13UnicodeStringE 0000000140027674     rtl:System.Internal.StrHlpr.o
 0005:00001680       $pdata$_ZN6System8Internal7Strhlpr13WideFromPCharERNS_10WideStringEPcb 0000000140027680     rtl:System.Internal.StrHlpr.o
 0005:00001698       $pdata$_ZN6System8Internal7Strhlpr9WideEqualERNS_10WideStringES3_ 0000000140027698     rtl:System.Internal.StrHlpr.o
 0005:000016a4       $pdata$_ZN6System8Internal7Strhlpr8WideLessERNS_10WideStringES3_ 00000001400276a4     rtl:System.Internal.StrHlpr.o
 0005:000016b0       $pdata$_ZN6System8Internal7Strhlpr11WideGreaterERNS_10WideStringES3_ 00000001400276b0     rtl:System.Internal.StrHlpr.o
 0005:000016bc       $pdata$_ZN6System8Internal7Strhlpr7WideCatERNS_10WideStringES3_ 00000001400276bc     rtl:System.Internal.StrHlpr.o
 0005:000016c8       $pdata$_ZN6System8Internal7Strhlpr10WideLengthERNS_10WideStringE 00000001400276c8     rtl:System.Internal.StrHlpr.o
 0005:000016d4       $pdata$_ZN6System8Internal7Strhlpr7WidePosERNS_10WideStringES3_ 00000001400276d4     rtl:System.Internal.StrHlpr.o
 0005:000016e0       $pdata$_ZN6System8Internal7Strhlpr13WideSetLengthERNS_10WideStringEi 00000001400276e0     rtl:System.Internal.StrHlpr.o
 0005:000016ec       $pdata$_ZN6System8Internal7Strhlpr10WideDeleteERNS_10WideStringEii 00000001400276ec     rtl:System.Internal.StrHlpr.o
 0005:000016f8       $pdata$_ZN6System8Internal7Strhlpr10WideInsertERNS_10WideStringES3_i 00000001400276f8     rtl:System.Internal.StrHlpr.o
 0005:00001704       $pdata$_ZN6System8Internal7Strhlpr8WideCopyERNS_10WideStringEii 0000000140027704     rtl:System.Internal.StrHlpr.o
 0005:00001710       $pdata$_ZN6System8Internal7Strhlpr10WideAppendERNS_10WideStringES3_ 0000000140027710     rtl:System.Internal.StrHlpr.o
 0005:0000171c       $pdata$_ZN6System8Internal7Strhlpr12WideFromUTF8ERNS_10WideStringEPKc 000000014002771c     rtl:System.Internal.StrHlpr.o
 0005:00001734       $pdata$_ZN6System8Internal7Strhlpr15UnicodeFromWideERNS_13UnicodeStringERNS_10WideStringE 0000000140027734     rtl:System.Internal.StrHlpr.o
 0005:00001740       $pdata$_ZN6System8Internal7Strhlpr12FinalizationEv 0000000140027740     rtl:System.Internal.StrHlpr.o
 0005:0000174c       $pdata$_ZN6System8Internal7Strhlpr14initializationEv 000000014002774c     rtl:System.Internal.StrHlpr.o
 0005:00001ba8       $pdata$_ZN6System8Internal7Initcpp23SelectForInitializationEPNS1_20TUnitDescriptorBlockES3_ 0000000140027ba8     rtl:System.Internal.InitCPP.o
 0005:00001bb4       $pdata$_ZN6System8Internal7Initcpp23SelectForInitializationEPPNS1_20TUnitDescriptorBlockES4_ 0000000140027bb4     rtl:System.Internal.InitCPP.o
 0005:00001bc0       $pdata$_ZN6System8Internal7Initcpp15InitializeUnitsEPNS1_20TUnitDescriptorBlockES3_ 0000000140027bc0     rtl:System.Internal.InitCPP.o
 0005:00001bcc       $pdata$_ZN6System8Internal7Initcpp13FinalizeUnitsEPNS1_20TUnitDescriptorBlockES3_ 0000000140027bcc     rtl:System.Internal.InitCPP.o
 0005:00001bd8       $pdata$_ZN6System8Internal7Initcpp15InitializeUnitsEPPNS1_20TUnitDescriptorBlockES4_ 0000000140027bd8     rtl:System.Internal.InitCPP.o
 0005:00001be4       $pdata$_ZN6System8Internal7Initcpp13FinalizeUnitsEPPNS1_20TUnitDescriptorBlockES4_ 0000000140027be4     rtl:System.Internal.InitCPP.o
 0005:00001bf0       $pdata$_ZN6System8Internal7Initcpp15InitializeUnitsEPNS1_15TUnitDescriptorES3_ 0000000140027bf0     rtl:System.Internal.InitCPP.o
 0005:00001bfc       $pdata$_ZN6System8Internal7Initcpp13FinalizeUnitsEPNS1_15TUnitDescriptorES3_ 0000000140027bfc     rtl:System.Internal.InitCPP.o
 0005:00001c08       $pdata$_ZN6System8Internal7Initcpp15CalculateDegreeEPNS1_20TUnitDescriptorBlockES3_ 0000000140027c08     rtl:System.Internal.InitCPP.o
 0005:00001c14       $pdata$_ZN6System8Internal7Initcpp15CalculateDegreeEPPNS1_20TUnitDescriptorBlockES4_ 0000000140027c14     rtl:System.Internal.InitCPP.o
 0005:00001c20       $pdata$_ZN6System8Internal7Initcpp16FinalizeUnitListEPPPNS1_15TUnitDescriptorES5_ 0000000140027c20     rtl:System.Internal.InitCPP.o
 0005:00001c38       $pdata$_ZN6System8Internal7Initcpp18InitializeRootUnitEPNS1_15TUnitDescriptorE 0000000140027c38     rtl:System.Internal.InitCPP.o
 0005:00001c74       $pdata$_ZN6System8Internal7Initcpp16FinalizeRootUnitEPNS1_15TUnitDescriptorE 0000000140027c74     rtl:System.Internal.InitCPP.o
 0005:00001c8c       $pdata$_ZN6System8Internal7Initcpp12FinalizationEv 0000000140027c8c     rtl:System.Internal.InitCPP.o
 0005:00001c98       $pdata$_ZN6System8Internal7Initcpp14initializationEv 0000000140027c98     rtl:System.Internal.InitCPP.o
 000b:00000560       $R000000                   000000014002d560     internal .obj file created from .res files
 000b:00000ab8       $R000001                   000000014002dab8     internal .obj file created from .res files
 000b:00001608       $R000002                   000000014002e608     internal .obj file created from .res files
 000b:00001670       $R000003                   000000014002e670     internal .obj file created from .res files
 000b:000016b8       $R000004                   000000014002e6b8     internal .obj file created from .res files
 000b:00002208       $R000005                   000000014002f208     internal .obj file created from .res files
 000b:00002d58       $R000006                   000000014002fd58     internal .obj file created from .res files
 000b:000038b0       $R000007                   00000001400308b0     internal .obj file created from .res files
 000b:00003ad8       $R000008                   0000000140030ad8     internal .obj file created from .res files
 000b:00005100       $R000009                   0000000140032100     internal .obj file created from .res files
 000b:00005fa8       $R00000A                   0000000140032fa8     internal .obj file created from .res files
 000b:00006850       $R00000B                   0000000140033850     internal .obj file created from .res files
 000b:00006db8       $R00000C                   0000000140033db8     internal .obj file created from .res files
 000b:0000d278       $R00000D                   000000014003a278     internal .obj file created from .res files
 000b:0001daa0       $R00000E                   000000014004aaa0     internal .obj file created from .res files
 000b:00021cc8       $R00000F                   000000014004ecc8     internal .obj file created from .res files
 000b:00022650       $R000010                   000000014004f650     internal .obj file created from .res files
 000b:00022ab8       $R000011                   000000014004fab8     internal .obj file created from .res files
 000b:00022b40       $R000012                   000000014004fb40     internal .obj file created from .res files
 000b:00023250       $R000013                   0000000140050250     internal .obj file created from .res files
