 Project2

 Timestamp is 674905e8 (Thu Nov 28 19:08:08 2024)

 Preferred load address is 0000000140000000

 Start         Length     Name                   Class
 0001:00000000 000024c4H .text                   CODE
 0001:000024d0 00000075H .text$_ZN3Vcl5Forms5TFormC3EPN6System7Classes10TComponentE CODE
 0001:00002550 00000017H .text$_ZNK6System13UnicodeString7IsEmptyEv CODE
 0001:00002570 0000004cH .text$_ZN16TAddComputerFormD0Ev CODE
 0001:000025c0 0000007fH .text$_ZN3Vcl5Forms5TFormC3EPN6System7Classes10TComponentEi CODE
 0001:00002640 00000091H .text$_ZN3Vcl5Forms5TFormC3EPN6System7Classes10TComponentEii CODE
 0001:000026e0 0000004cH .text$_ZN3Vcl5Forms5TFormD0Ev CODE
 0001:00002730 00000b29H .text                   CODE
 0001:00003260 00000044H .text$_ZNSt3__1lsINS_11char_traitsIcEEEERNS_13basic_ostreamIcT_EES6_PKc CODE
 0001:000032b0 00000049H .text$_ZNSt3__1lsIcNS_11char_traitsIcEENS_9allocatorIcEEEERNS_13basic_ostreamIT_T0_EES9_RKNS_12basic_stringIS6_S7_T1_EE CODE
 0001:00003300 0000035fH .text$_ZNSt3__1rsIcNS_11char_traitsIcEENS_9allocatorIcEEEERNS_13basic_istreamIT_T0_EES9_RNS_12basic_stringIS6_S7_T1_EE CODE
 0001:00003660 00000019H .text$_ZNSt3__16vectorI9ComponentNS_9allocatorIS1_EEEC1B6v15007Ev CODE
 0001:00003680 00000019H .text$_ZNSt3__16vectorI9ComponentNS_9allocatorIS1_EEED1B6v15007Ev CODE
 0001:000036a0 0000001fH .text$_ZNKSt3__16vectorI9ComponentNS_9allocatorIS1_EEE4sizeB6v15007Ev CODE
 0001:000036c0 00000025H .text$_ZNKSt3__16vectorI9ComponentNS_9allocatorIS1_EEE5beginB6v15007Ev CODE
 0001:000036f0 00000026H .text$_ZNKSt3__16vectorI9ComponentNS_9allocatorIS1_EEE3endB6v15007Ev CODE
 0001:00003720 00000029H .text$_ZNSt3__1neB6v15007IPK9ComponentEEbRKNS_11__wrap_iterIT_EES8_ CODE
 0001:00003750 0000000eH .text$_ZNKSt3__111__wrap_iterIPK9ComponentEdeB6v15007Ev CODE
 0001:00003760 00000015H .text$_ZNSt3__111__wrap_iterIPK9ComponentEppB6v15007Ev CODE
 0001:00003780 0000001dH .text$_ZNSt3__113basic_istreamIcNS_11char_traitsIcEEErsB6v15007EPFRS3_S4_E CODE
 0001:000037a0 00000267H .text$_ZNSt3__12wsIcNS_11char_traitsIcEEEERNS_13basic_istreamIT_T0_EES7_ CODE
 0001:00003a10 00000050H .text$_ZNSt3__17getlineB6v15007IcNS_11char_traitsIcEENS_9allocatorIcEEEERNS_13basic_istreamIT_T0_EES9_RNS_12basic_stringIS6_S7_T1_EE CODE
 0001:00003a60 00000053H .text$_ZNSt3__16vectorI9ComponentNS_9allocatorIS1_EEE5clearB6v15007Ev CODE
 0001:00003ac0 00000023H .text$_ZNSt3__112basic_stringIcNS_11char_traitsIcEENS_9allocatorIcEEEC1B6v15007IDnEEPKc CODE
 0001:00003af0 00000060H .text$_ZNSt3__16vectorI9ComponentNS_9allocatorIS1_EEE9push_backB6v15007ERKS1_ CODE
 0001:00003b50 00000019H .text$_ZN9ComponentD1Ev CODE
 0001:00003b70 00000025H .text$_ZNSt3__16vectorI9ComponentNS_9allocatorIS1_EEE5beginB6v15007Ev CODE
 0001:00003ba0 00000026H .text$_ZNSt3__16vectorI9ComponentNS_9allocatorIS1_EEE3endB6v15007Ev CODE
 0001:00003bd0 00000029H .text$_ZNSt3__1neB6v15007IP9ComponentEEbRKNS_11__wrap_iterIT_EES7_ CODE
 0001:00003c00 0000000eH .text$_ZNKSt3__111__wrap_iterIP9ComponentEdeB6v15007Ev CODE
 0001:00003c10 00000015H .text$_ZNSt3__111__wrap_iterIP9ComponentEppB6v15007Ev CODE
 0001:00003c30 0000003fH .text$_ZNSt3__1eqB6v15007IPK9ComponentEEbRKNS_11__wrap_iterIT_EES8_ CODE
 0001:00003c70 0000000eH .text$_ZNKSt3__111__wrap_iterIPK9ComponentE4baseB6v15007Ev CODE
 0001:00003c80 00000019H .text$_ZN9ComponentD2Ev CODE
 0001:00003ca0 0000003fH .text$_ZNSt3__1eqB6v15007IP9ComponentEEbRKNS_11__wrap_iterIT_EES7_ CODE
 0001:00003ce0 0000000eH .text$_ZNKSt3__111__wrap_iterIP9ComponentE4baseB6v15007Ev CODE
 0001:00003cf0 00000266H .text$_ZNSt3__124__put_character_sequenceIcNS_11char_traitsIcEEEERNS_13basic_ostreamIT_T0_EES7_PKS4_y CODE
 0001:00003f60 00000019H .text$_ZNSt3__111char_traitsIcE6lengthEPKc CODE
 0001:00003f80 00000023H .text$_ZNSt3__113basic_ostreamIcNS_11char_traitsIcEEE6sentryC1ERS3_ CODE
 0001:00003fb0 00000012H .text$_ZNKSt3__113basic_ostreamIcNS_11char_traitsIcEEE6sentrycvbB6v15007Ev CODE
 0001:00003fd0 000002acH .text$_ZNSt3__116__pad_and_outputIcNS_11char_traitsIcEEEENS_19ostreambuf_iteratorIT_T0_EES6_PKS4_S8_S8_RNS_8ios_baseES4_ CODE
 0001:00004280 00000023H .text$_ZNSt3__119ostreambuf_iteratorIcNS_11char_traitsIcEEEC1B6v15007ERNS_13basic_ostreamIcS2_EE CODE
 0001:000042b0 0000000eH .text$_ZNKSt3__18ios_base5flagsB6v15007Ev CODE
 0001:000042c0 00000066H .text$_ZNKSt3__19basic_iosIcNS_11char_traitsIcEEE4fillB6v15007Ev CODE
 0001:00004330 00000017H .text$_ZNKSt3__119ostreambuf_iteratorIcNS_11char_traitsIcEEE6failedB6v15007Ev CODE
 0001:00004350 00000021H .text$_ZNSt3__19basic_iosIcNS_11char_traitsIcEEE8setstateB6v15007Ej CODE
 0001:00004380 00000019H .text$_ZNSt3__113basic_ostreamIcNS_11char_traitsIcEEE6sentryD1Ev CODE
 0001:000043a0 0000000eH .text$__clang_call_terminate CODE
 0001:000043b0 00000083H .text$_ZNSt3__113basic_ostreamIcNS_11char_traitsIcEEE6sentryC2ERS3_ CODE
 0001:00004440 0000001dH .text$_ZNKSt3__19basic_iosIcNS_11char_traitsIcEEE4goodB6v15007Ev CODE
 0001:00004460 00000012H .text$_ZNKSt3__19basic_iosIcNS_11char_traitsIcEEE3tieB6v15007Ev CODE
 0001:00004480 00000017H .text$_ZNKSt3__18ios_base4goodB6v15007Ev CODE
 0001:000044a0 0000000fH .text$_ZNKSt3__18ios_base5widthB6v15007Ev CODE
 0001:000044b0 0000002eH .text$_ZNSt3__115basic_streambufIcNS_11char_traitsIcEEE5sputnB6v15007EPKcx CODE
 0001:000044e0 0000002dH .text$_ZNSt3__112basic_stringIcNS_11char_traitsIcEENS_9allocatorIcEEEC1B6v15007Eyc CODE
 0001:00004510 00000021H .text$_ZNSt3__112basic_stringIcNS_11char_traitsIcEENS_9allocatorIcEEE4dataB6v15007Ev CODE
 0001:00004540 0000002dH .text$_ZNSt3__18ios_base5widthB6v15007Ex CODE
 0001:00004570 00000050H .text$_ZNSt3__112basic_stringIcNS_11char_traitsIcEENS_9allocatorIcEEEC2B6v15007Eyc CODE
 0001:000045c0 0000002dH .text$_ZNSt3__117__compressed_pairINS_12basic_stringIcNS_11char_traitsIcEENS_9allocatorIcEEE5__repES5_EC1B6v15007INS_18__default_init_tagESA_EEOT_OT0_ CODE
 0001:000045f0 00000007H .text$_ZNSt3__119__debug_db_insert_cB6v15007INS_12basic_stringIcNS_11char_traitsIcEENS_9allocatorIcEEEEEEvPT_ CODE
 0001:00004600 0000003aH .text$_ZNSt3__117__compressed_pairINS_12basic_stringIcNS_11char_traitsIcEENS_9allocatorIcEEE5__repES5_EC2B6v15007INS_18__default_init_tagESA_EEOT_OT0_ CODE
 0001:00004640 00000011H .text$_ZNSt3__122__compressed_pair_elemINS_12basic_stringIcNS_11char_traitsIcEENS_9allocatorIcEEE5__repELi0ELb0EEC2B6v15007ENS_18__default_init_tagE CODE
 0001:00004660 0000001dH .text$_ZNSt3__122__compressed_pair_elemINS_9allocatorIcEELi1ELb1EEC2B6v15007ENS_18__default_init_tagE CODE
 0001:00004680 00000019H .text$_ZNSt3__19allocatorIcEC2B6v15007Ev CODE
 0001:000046a0 00000007H .text$_ZNSt3__116__non_trivial_ifILb1ENS_9allocatorIcEEEC2B6v15007Ev CODE
 0001:000046b0 0000000bH .text$_ZNSt3__112__to_addressB6v15007IcEEPT_S2_ CODE
 0001:000046c0 00000052H .text$_ZNSt3__112basic_stringIcNS_11char_traitsIcEENS_9allocatorIcEEE13__get_pointerB6v15007Ev CODE
 0001:00004720 00000026H .text$_ZNKSt3__112basic_stringIcNS_11char_traitsIcEENS_9allocatorIcEEE9__is_longB6v15007Ev CODE
 0001:00004750 0000001cH .text$_ZNSt3__112basic_stringIcNS_11char_traitsIcEENS_9allocatorIcEEE18__get_long_pointerB6v15007Ev CODE
 0001:00004770 00000025H .text$_ZNSt3__112basic_stringIcNS_11char_traitsIcEENS_9allocatorIcEEE19__get_short_pointerB6v15007Ev CODE
 0001:000047a0 00000019H .text$_ZNKSt3__117__compressed_pairINS_12basic_stringIcNS_11char_traitsIcEENS_9allocatorIcEEE5__repES5_E5firstB6v15007Ev CODE
 0001:000047c0 0000000bH .text$_ZNKSt3__122__compressed_pair_elemINS_12basic_stringIcNS_11char_traitsIcEENS_9allocatorIcEEE5__repELi0ELb0EE5__getB6v15007Ev CODE
 0001:000047d0 00000019H .text$_ZNSt3__117__compressed_pairINS_12basic_stringIcNS_11char_traitsIcEENS_9allocatorIcEEE5__repES5_E5firstB6v15007Ev CODE
 0001:000047f0 0000000bH .text$_ZNSt3__122__compressed_pair_elemINS_12basic_stringIcNS_11char_traitsIcEENS_9allocatorIcEEE5__repELi0ELb0EE5__getB6v15007Ev CODE
 0001:00004800 0000000bH .text$_ZNSt3__114pointer_traitsIPcE10pointer_toB6v15007ERc CODE
 0001:00004810 00000051H .text$_ZNSt3__119ostreambuf_iteratorIcNS_11char_traitsIcEEEC2B6v15007ERNS_13basic_ostreamIcS2_EE CODE
 0001:00004870 00000019H .text$_ZNKSt3__19basic_iosIcNS_11char_traitsIcEEE5rdbufB6v15007Ev CODE
 0001:00004890 0000000fH .text$_ZNKSt3__18ios_base5rdbufB6v15007Ev CODE
 0001:000048a0 00000019H .text$_ZNSt3__111char_traitsIcE11eq_int_typeEii CODE
 0001:000048c0 00000006H .text$_ZNSt3__111char_traitsIcE3eofEv CODE
 0001:000048d0 00000082H .text$_ZNKSt3__19basic_iosIcNS_11char_traitsIcEEE5widenB6v15007Ec CODE
 0001:00004960 00000020H .text$_ZNSt3__19use_facetB6v15007INS_5ctypeIcEEEERKT_RKNS_6localeE CODE
 0001:00004980 00000022H .text$_ZNKSt3__15ctypeIcE5widenB6v15007Ec CODE
 0001:000049b0 00000024H .text$_ZNSt3__18ios_base8setstateB6v15007Ej CODE
 0001:000049e0 00000149H .text$_ZNSt3__113basic_ostreamIcNS_11char_traitsIcEEE6sentryD2Ev CODE
 0001:00004b30 0000001aH .text$_ZNSt3__115basic_streambufIcNS_11char_traitsIcEEE7pubsyncB6v15007Ev CODE
 0001:00004b50 00000021H .text$_ZNKSt3__112basic_stringIcNS_11char_traitsIcEENS_9allocatorIcEEE4dataB6v15007Ev CODE
 0001:00004b80 00000052H .text$_ZNKSt3__112basic_stringIcNS_11char_traitsIcEENS_9allocatorIcEEE4sizeB6v15007Ev CODE
 0001:00004be0 0000000bH .text$_ZNSt3__112__to_addressB6v15007IKcEEPT_S3_ CODE
 0001:00004bf0 00000052H .text$_ZNKSt3__112basic_stringIcNS_11char_traitsIcEENS_9allocatorIcEEE13__get_pointerB6v15007Ev CODE
 0001:00004c50 0000001cH .text$_ZNKSt3__112basic_stringIcNS_11char_traitsIcEENS_9allocatorIcEEE18__get_long_pointerB6v15007Ev CODE
 0001:00004c70 00000025H .text$_ZNKSt3__112basic_stringIcNS_11char_traitsIcEENS_9allocatorIcEEE19__get_short_pointerB6v15007Ev CODE
 0001:00004ca0 0000000bH .text$_ZNSt3__114pointer_traitsIPKcE10pointer_toB6v15007ERS1_ CODE
 0001:00004cb0 0000001cH .text$_ZNKSt3__112basic_stringIcNS_11char_traitsIcEENS_9allocatorIcEEE15__get_long_sizeB6v15007Ev CODE
 0001:00004cd0 00000020H .text$_ZNKSt3__112basic_stringIcNS_11char_traitsIcEENS_9allocatorIcEEE16__get_short_sizeB6v15007Ev CODE
 0001:00004cf0 00000035H .text$_ZNSt3__113basic_istreamIcNS_11char_traitsIcEEE6sentryC1ERS3_b CODE
 0001:00004d30 00000012H .text$_ZNKSt3__113basic_istreamIcNS_11char_traitsIcEEE6sentrycvbB6v15007Ev CODE
 0001:00004d50 0000009cH .text$_ZNSt3__112basic_stringIcNS_11char_traitsIcEENS_9allocatorIcEEE5clearB6v15007Ev CODE
 0001:00004df0 000000a0H .text$_ZNKSt3__112basic_stringIcNS_11char_traitsIcEENS_9allocatorIcEEE8max_sizeB6v15007Ev CODE
 0001:00004e90 0000000fH .text$_ZNSt3__114numeric_limitsIxE3maxB6v15007Ev CODE
 0001:00004ea0 00000052H .text$_ZNSt3__115basic_streambufIcNS_11char_traitsIcEEE5sgetcB6v15007Ev CODE
 0001:00004f00 0000000bH .text$_ZNSt3__111char_traitsIcE12to_char_typeEi CODE
 0001:00004f10 00000071H .text$_ZNKSt3__15ctypeIcE2isB6v15007Etc CODE
 0001:00004f90 0000005dH .text$_ZNSt3__115basic_streambufIcNS_11char_traitsIcEEE6sbumpcB6v15007Ev CODE
 0001:00004ff0 0000004aH .text$_ZNSt3__18ios_base18__setstate_nothrowB6v15007Ej CODE
 0001:00005040 00000019H .text$_ZNKSt3__19basic_iosIcNS_11char_traitsIcEEE10exceptionsB6v15007Ev CODE
 0001:00005060 0000020bH .text$_ZNSt3__113basic_istreamIcNS_11char_traitsIcEEE6sentryC2ERS3_b CODE
 0001:00005270 00000023H .text$_ZNSt3__119istreambuf_iteratorIcNS_11char_traitsIcEEEC1B6v15007ERNS_13basic_istreamIcS2_EE CODE
 0001:000052a0 00000019H .text$_ZNSt3__119istreambuf_iteratorIcNS_11char_traitsIcEEEC1B6v15007Ev CODE
 0001:000052c0 00000029H .text$_ZNSt3__1neB6v15007IcNS_11char_traitsIcEEEEbRKNS_19istreambuf_iteratorIT_T0_EES8_ CODE
 0001:000052f0 0000001cH .text$_ZNKSt3__119istreambuf_iteratorIcNS_11char_traitsIcEEEdeB6v15007Ev CODE
 0001:00005310 00000025H .text$_ZNSt3__119istreambuf_iteratorIcNS_11char_traitsIcEEEppB6v15007Ev CODE
 0001:00005340 00000027H .text$_ZNSt3__1eqB6v15007IcNS_11char_traitsIcEEEEbRKNS_19istreambuf_iteratorIT_T0_EES8_ CODE
 0001:00005370 00000051H .text$_ZNSt3__119istreambuf_iteratorIcNS_11char_traitsIcEEEC2B6v15007ERNS_13basic_istreamIcS2_EE CODE
 0001:000053d0 00000012H .text$_ZNSt3__119istreambuf_iteratorIcNS_11char_traitsIcEEEC2B6v15007Ev CODE
 0001:000053f0 00000046H .text$_ZNKSt3__119istreambuf_iteratorIcNS_11char_traitsIcEEE5equalB6v15007ERKS3_ CODE
 0001:00005440 0000006dH .text$_ZNKSt3__119istreambuf_iteratorIcNS_11char_traitsIcEEE14__test_for_eofB6v15007Ev CODE
 0001:000054b0 00000007H .text$_ZNSt3__125__debug_db_invalidate_allB6v15007INS_12basic_stringIcNS_11char_traitsIcEENS_9allocatorIcEEEEEEvPT_ CODE
 0001:000054c0 0000001fH .text$_ZNSt3__111char_traitsIcE6assignERcRKc CODE
 0001:000054e0 00000030H .text$_ZNSt3__112basic_stringIcNS_11char_traitsIcEENS_9allocatorIcEEE15__set_long_sizeB6v15007Ey CODE
 0001:00005510 00000056H .text$_ZNSt3__112basic_stringIcNS_11char_traitsIcEENS_9allocatorIcEEE16__set_short_sizeB6v15007Ey CODE
 0001:00005570 00000019H .text$_ZNSt3__116allocator_traitsINS_9allocatorIcEEE8max_sizeB6v15007IS2_vEEyRKS2_ CODE
 0001:00005590 00000019H .text$_ZNKSt3__112basic_stringIcNS_11char_traitsIcEENS_9allocatorIcEEE7__allocB6v15007Ev CODE
 0001:000055b0 0000000fH .text$_ZNSt3__114numeric_limitsIyE3maxB6v15007Ev CODE
 0001:000055c0 0000000eH .text$_ZNKSt3__19allocatorIcE8max_sizeB6v15007Ev CODE
 0001:000055d0 00000019H .text$_ZNKSt3__117__compressed_pairINS_12basic_stringIcNS_11char_traitsIcEENS_9allocatorIcEEE5__repES5_E6secondB6v15007Ev CODE
 0001:000055f0 0000000bH .text$_ZNKSt3__122__compressed_pair_elemINS_9allocatorIcEELi1ELb1EE5__getB6v15007Ev CODE
 0001:00005600 00000008H .text$_ZNSt3__123__libcpp_numeric_limitsIyLb1EE3maxB6v15007Ev CODE
 0001:00005610 0000000bH .text$_ZNSt3__123__libcpp_numeric_limitsIxLb1EE3maxB6v15007Ev CODE
 0001:00005620 0000000cH .text$_ZNSt3__111char_traitsIcE11to_int_typeEc CODE
 0001:00005630 0000000eH .text$_ZNKSt3__18ios_base10exceptionsB6v15007Ev CODE
 0001:00005640 00000060H .text$_ZNSt3__16vectorI9ComponentNS_9allocatorIS1_EEEC2B6v15007Ev CODE
 0001:000056a0 0000002dH .text$_ZNSt3__117__compressed_pairIP9ComponentNS_9allocatorIS1_EEEC1B6v15007IDnNS_18__default_init_tagEEEOT_OT0_ CODE
 0001:000056d0 00000007H .text$_ZNSt3__119__debug_db_insert_cB6v15007INS_6vectorI9ComponentNS_9allocatorIS2_EEEEEEvPT_ CODE
 0001:000056e0 0000003bH .text$_ZNSt3__117__compressed_pairIP9ComponentNS_9allocatorIS1_EEEC2B6v15007IDnNS_18__default_init_tagEEEOT_OT0_ CODE
 0001:00005720 0000001eH .text$_ZNSt3__122__compressed_pair_elemIP9ComponentLi0ELb0EEC2B6v15007IDnvEEOT_ CODE
 0001:00005740 0000001dH .text$_ZNSt3__122__compressed_pair_elemINS_9allocatorI9ComponentEELi1ELb1EEC2B6v15007ENS_18__default_init_tagE CODE
 0001:00005760 00000019H .text$_ZNSt3__19allocatorI9ComponentEC2B6v15007Ev CODE
 0001:00005780 00000007H .text$_ZNSt3__116__non_trivial_ifILb1ENS_9allocatorI9ComponentEEEC2B6v15007Ev CODE
 0001:00005790 0000003aH .text$_ZNSt3__16vectorI9ComponentNS_9allocatorIS1_EEED2B6v15007Ev CODE
 0001:000057d0 00000023H .text$_ZNSt3__16vectorI9ComponentNS_9allocatorIS1_EEE16__destroy_vectorC1ERS4_ CODE
 0001:00005800 0000008cH .text$_ZNSt3__16vectorI9ComponentNS_9allocatorIS1_EEE16__destroy_vectorclB6v15007Ev CODE
 0001:00005890 0000001eH .text$_ZNSt3__16vectorI9ComponentNS_9allocatorIS1_EEE16__destroy_vectorC2ERS4_ CODE
 0001:000058b0 000000c3H .text$_ZNKSt3__16vectorI9ComponentNS_9allocatorIS1_EEE17__annotate_deleteB6v15007Ev CODE
 0001:00005980 00000007H .text$_ZNSt3__118__debug_db_erase_cB6v15007INS_6vectorI9ComponentNS_9allocatorIS2_EEEEEEvPT_ CODE
 0001:00005990 0000001cH .text$_ZNSt3__16vectorI9ComponentNS_9allocatorIS1_EEE7__clearB6v15007Ev CODE
 0001:000059b0 0000002dH .text$_ZNSt3__116allocator_traitsINS_9allocatorI9ComponentEEE10deallocateB6v15007ERS3_PS2_y CODE
 0001:000059e0 0000001dH .text$_ZNSt3__16vectorI9ComponentNS_9allocatorIS1_EEE7__allocB6v15007Ev CODE
 0001:00005a00 00000035H .text$_ZNKSt3__16vectorI9ComponentNS_9allocatorIS1_EEE8capacityB6v15007Ev CODE
 0001:00005a40 00000021H .text$_ZNKSt3__16vectorI9ComponentNS_9allocatorIS1_EEE31__annotate_contiguous_containerB6v15007EPKvS6_S6_S6_ CODE
 0001:00005a70 0000001cH .text$_ZNKSt3__16vectorI9ComponentNS_9allocatorIS1_EEE4dataB6v15007Ev CODE
 0001:00005a90 0000000bH .text$_ZNSt3__112__to_addressB6v15007I9ComponentEEPT_S3_ CODE
 0001:00005aa0 00000086H .text$_ZNSt3__16vectorI9ComponentNS_9allocatorIS1_EEE22__base_destruct_at_endB6v15007EPS1_ CODE
 0001:00005b30 00000023H .text$_ZNSt3__116allocator_traitsINS_9allocatorI9ComponentEEE7destroyB6v15007IS2_vEEvRS3_PT_ CODE
 0001:00005b60 0000001eH .text$_ZNSt3__19allocatorI9ComponentE7destroyB6v15007EPS1_ CODE
 0001:00005b80 00000043H .text$_ZNSt3__19allocatorI9ComponentE10deallocateB6v15007EPS1_y CODE
 0001:00005bd0 00000062H .text$_ZNSt3__119__libcpp_deallocateB6v15007EPvyy CODE
 0001:00005c40 00000014H .text$_ZNSt3__124__is_overaligned_for_newB6v15007Ey CODE
 0001:00005c60 00000028H .text$_ZNSt3__127__do_deallocate_handle_sizeB6v15007IJSt11align_val_tEEEvPvyDpT_ CODE
 0001:00005c90 0000001eH .text$_ZNSt3__127__do_deallocate_handle_sizeB6v15007IJEEEvPvyDpT_ CODE
 0001:00005cb0 00000023H .text$_ZNSt3__124__libcpp_operator_deleteB6v15007IJPvSt11align_val_tEEEvDpT_ CODE
 0001:00005ce0 00000019H .text$_ZNSt3__124__libcpp_operator_deleteB6v15007IJPvEEEvDpT_ CODE
 0001:00005d00 00000019H .text$_ZNSt3__117__compressed_pairIP9ComponentNS_9allocatorIS1_EEE6secondB6v15007Ev CODE
 0001:00005d20 0000000bH .text$_ZNSt3__122__compressed_pair_elemINS_9allocatorI9ComponentEELi1ELb1EE5__getB6v15007Ev CODE
 0001:00005d30 0000001dH .text$_ZNKSt3__16vectorI9ComponentNS_9allocatorIS1_EEE9__end_capB6v15007Ev CODE
 0001:00005d50 00000019H .text$_ZNKSt3__117__compressed_pairIP9ComponentNS_9allocatorIS1_EEE5firstB6v15007Ev CODE
 0001:00005d70 0000000bH .text$_ZNKSt3__122__compressed_pair_elemIP9ComponentLi0ELb0EE5__getB6v15007Ev CODE
 0001:00005d80 0000002dH .text$_ZNSt3__111__wrap_iterIPK9ComponentEC1B6v15007EPKvS3_ CODE
 0001:00005db0 00000023H .text$_ZNSt3__111__wrap_iterIPK9ComponentEC2B6v15007EPKvS3_ CODE
 0001:00005de0 0000025aH .text$_ZNSt3__17getlineIcNS_11char_traitsIcEENS_9allocatorIcEEEERNS_13basic_istreamIT_T0_EES9_RNS_12basic_stringIS6_S7_T1_EES6_ CODE
 0001:00006040 0000001fH .text$_ZNSt3__111char_traitsIcE2eqEcc CODE
 0001:00006060 000000b3H .text$_ZNKSt3__16vectorI9ComponentNS_9allocatorIS1_EEE17__annotate_shrinkB6v15007Ey CODE
 0001:00006120 00000007H .text$_ZNSt3__125__debug_db_invalidate_allB6v15007INS_6vectorI9ComponentNS_9allocatorIS2_EEEEEEvPT_ CODE
 0001:00006130 0000005dH .text$_ZNSt3__112basic_stringIcNS_11char_traitsIcEENS_9allocatorIcEEEC2B6v15007IDnEEPKc CODE
 0001:00006190 0000001dH .text$_ZNSt3__16vectorI9ComponentNS_9allocatorIS1_EEE9__end_capB6v15007Ev CODE
 0001:000061b0 00000099H .text$_ZNSt3__16vectorI9ComponentNS_9allocatorIS1_EEE22__construct_one_at_endB6v15007IJRKS1_EEEvDpOT_ CODE
 0001:00006250 000000eeH .text$_ZNSt3__16vectorI9ComponentNS_9allocatorIS1_EEE21__push_back_slow_pathIRKS1_EEvOT_ CODE
 0001:00006340 00000019H .text$_ZNSt3__117__compressed_pairIP9ComponentNS_9allocatorIS1_EEE5firstB6v15007Ev CODE
 0001:00006360 0000000bH .text$_ZNSt3__122__compressed_pair_elemIP9ComponentLi0ELb0EE5__getB6v15007Ev CODE
 0001:00006370 0000002dH .text$_ZNSt3__16vectorI9ComponentNS_9allocatorIS1_EEE21_ConstructTransactionC1ERS4_y CODE
 0001:000063a0 0000002dH .text$_ZNSt3__116allocator_traitsINS_9allocatorI9ComponentEEE9constructB6v15007IS2_JRKS2_EvEEvRS3_PT_DpOT0_ CODE
 0001:000063d0 00000019H .text$_ZNSt3__16vectorI9ComponentNS_9allocatorIS1_EEE21_ConstructTransactionD1Ev CODE
 0001:000063f0 00000046H .text$_ZNSt3__16vectorI9ComponentNS_9allocatorIS1_EEE21_ConstructTransactionC2ERS4_y CODE
 0001:00006440 00000028H .text$_ZNSt3__19allocatorI9ComponentE9constructB6v15007IS1_JRKS1_EEEvPT_DpOT0_ CODE
 0001:00006470 00000023H .text$_ZN9ComponentC1ERKS_ CODE
 0001:000064a0 00000049H .text$_ZN9ComponentC2ERKS_ CODE
 0001:000064f0 00000016H .text$_ZNSt3__16vectorI9ComponentNS_9allocatorIS1_EEE21_ConstructTransactionD2Ev CODE
 0001:00006510 000000a0H .text$_ZNKSt3__16vectorI9ComponentNS_9allocatorIS1_EEE11__recommendB6v15007Ey CODE
 0001:000065b0 00000037H .text$_ZNSt3__114__split_bufferI9ComponentRNS_9allocatorIS1_EEEC1EyyS4_ CODE
 0001:000065f0 0000014cH .text$_ZNSt3__16vectorI9ComponentNS_9allocatorIS1_EEE26__swap_out_circular_bufferERNS_14__split_bufferIS1_RS3_EE CODE
 0001:00006740 00000019H .text$_ZNSt3__114__split_bufferI9ComponentRNS_9allocatorIS1_EEED1Ev CODE
 0001:00006760 00000059H .text$_ZNKSt3__16vectorI9ComponentNS_9allocatorIS1_EEE8max_sizeEv CODE
 0001:000067c0 00000016H .text$_ZNKSt3__16vectorI9ComponentNS_9allocatorIS1_EEE20__throw_length_errorB6v15007Ev CODE
 0001:000067e0 00000028H .text$_ZNSt3__13maxB6v15007IyEERKT_S3_S3_ CODE
 0001:00006810 00000028H .text$_ZNSt3__13minB6v15007IyEERKT_S3_S3_ CODE
 0001:00006840 00000019H .text$_ZNSt3__116allocator_traitsINS_9allocatorI9ComponentEEE8max_sizeB6v15007IS3_vEEyRKS3_ CODE
 0001:00006860 0000001dH .text$_ZNKSt3__16vectorI9ComponentNS_9allocatorIS1_EEE7__allocB6v15007Ev CODE
 0001:00006880 00000057H .text$_ZNSt3__13minB6v15007IyNS_6__lessIyyEEEERKT_S5_S5_T0_ CODE
 0001:000068e0 0000002eH .text$_ZNKSt3__16__lessIyyEclB6v15007ERKyS3_ CODE
 0001:00006910 00000011H .text$_ZNKSt3__19allocatorI9ComponentE8max_sizeB6v15007Ev CODE
 0001:00006930 00000019H .text$_ZNKSt3__117__compressed_pairIP9ComponentNS_9allocatorIS1_EEE6secondB6v15007Ev CODE
 0001:00006950 0000000bH .text$_ZNKSt3__122__compressed_pair_elemINS_9allocatorI9ComponentEELi1ELb1EE5__getB6v15007Ev CODE
 0001:00006960 00000070H .text$_ZNSt3__120__throw_length_errorB6v15007EPKc CODE
 0001:000069d0 00000023H .text$_ZNSt12length_errorC1B6v15007EPKc CODE
 0001:00006a00 0000003aH .text$_ZNSt12length_errorC2B6v15007EPKc CODE
 0001:00006a40 00000057H .text$_ZNSt3__13maxB6v15007IyNS_6__lessIyyEEEERKT_S5_S5_T0_ CODE
 0001:00006aa0 000000caH .text$_ZNSt3__114__split_bufferI9ComponentRNS_9allocatorIS1_EEEC2EyyS4_ CODE
 0001:00006b70 0000002dH .text$_ZNSt3__117__compressed_pairIP9ComponentRNS_9allocatorIS1_EEEC1B6v15007IDnS5_EEOT_OT0_ CODE
 0001:00006ba0 0000004dH .text$_ZNSt3__119__allocate_at_leastB6v15007INS_9allocatorI9ComponentEEEENS_19__allocation_resultINS_16allocator_traitsIT_E7pointerEEERS6_y CODE
 0001:00006bf0 0000001dH .text$_ZNSt3__114__split_bufferI9ComponentRNS_9allocatorIS1_EEE7__allocB6v15007Ev CODE
 0001:00006c10 0000001dH .text$_ZNSt3__114__split_bufferI9ComponentRNS_9allocatorIS1_EEE9__end_capB6v15007Ev CODE
 0001:00006c30 00000040H .text$_ZNSt3__117__compressed_pairIP9ComponentRNS_9allocatorIS1_EEEC2B6v15007IDnS5_EEOT_OT0_ CODE
 0001:00006c70 0000001eH .text$_ZNSt3__122__compressed_pair_elemIRNS_9allocatorI9ComponentEELi1ELb0EEC2B6v15007IS4_vEEOT_ CODE
 0001:00006c90 0000004eH .text$_ZNSt3__19allocatorI9ComponentE8allocateB6v15007Ey CODE
 0001:00006ce0 00000034H .text$_ZSt28__throw_bad_array_new_lengthB6v15007v CODE
 0001:00006d20 00000061H .text$_ZNSt3__117__libcpp_allocateB6v15007Eyy CODE
 0001:00006d90 00000023H .text$_ZNSt3__121__libcpp_operator_newB6v15007IJySt11align_val_tEEEPvDpT_ CODE
 0001:00006dc0 00000019H .text$_ZNSt3__121__libcpp_operator_newB6v15007IJyEEEPvDpT_ CODE
 0001:00006de0 0000001dH .text$_ZNSt3__117__compressed_pairIP9ComponentRNS_9allocatorIS1_EEE6secondB6v15007Ev CODE
 0001:00006e00 0000000eH .text$_ZNSt3__122__compressed_pair_elemIRNS_9allocatorI9ComponentEELi1ELb0EE5__getB6v15007Ev CODE
 0001:00006e10 00000019H .text$_ZNSt3__117__compressed_pairIP9ComponentRNS_9allocatorIS1_EEE5firstB6v15007Ev CODE
 0001:00006e30 000001a8H .text$_ZNSt3__142__uninitialized_allocator_move_if_noexceptB6v15007INS_9allocatorI9ComponentEENS_16reverse_iteratorIPS2_EES6_S6_EET2_RT_T0_T1_S7_ CODE
 0001:00006fe0 00000023H .text$_ZNSt3__116reverse_iteratorIP9ComponentEC1B6v15007ES2_ CODE
 0001:00007010 0000000fH .text$_ZNKSt3__116reverse_iteratorIP9ComponentE4baseB6v15007Ev CODE
 0001:00007020 0000003bH .text$_ZNSt3__14swapB6v15007IP9ComponentEENS_9enable_ifIXaasr21is_move_constructibleIT_EE5valuesr18is_move_assignableIS4_EE5valueEvE4typeERS4_S7_ CODE
 0001:00007060 000000b3H .text$_ZNKSt3__16vectorI9ComponentNS_9allocatorIS1_EEE14__annotate_newB6v15007Ey CODE
 0001:00007120 0000003fH .text$_ZNSt3__1neB6v15007IP9ComponentS2_EEbRKNS_16reverse_iteratorIT_EERKNS3_IT0_EE CODE
 0001:00007160 0000002dH .text$_ZNSt3__116allocator_traitsINS_9allocatorI9ComponentEEE9constructB6v15007IS2_JS2_EvEEvRS3_PT_DpOT0_ CODE
 0001:00007190 00000019H .text$_ZNSt3__112__to_addressB6v15007INS_16reverse_iteratorIP9ComponentEEvEENS_5decayIDTclsr19__to_address_helperIT_EE6__callcl7declvalIRKS6_EEEEE4typeES8_ CODE
 0001:000071b0 00000027H .text$_ZNKSt3__116reverse_iteratorIP9ComponentEdeB6v15007Ev CODE
 0001:000071e0 00000017H .text$_ZNSt3__116reverse_iteratorIP9ComponentEppB6v15007Ev CODE
 0001:00007200 00000037H .text$_ZNSt3__129_AllocatorDestroyRangeReverseINS_9allocatorI9ComponentEENS_16reverse_iteratorIPS2_EEEC1B6v15007ERS3_RS6_S9_ CODE
 0001:00007240 0000008eH .text$_ZNKSt3__129_AllocatorDestroyRangeReverseINS_9allocatorI9ComponentEENS_16reverse_iteratorIPS2_EEEclB6v15007Ev CODE
 0001:000072d0 00000028H .text$_ZNSt3__19allocatorI9ComponentE9constructB6v15007IS1_JS1_EEEvPT_DpOT0_ CODE
 0001:00007300 00000023H .text$_ZN9ComponentC1EOS_ CODE
 0001:00007330 00000049H .text$_ZN9ComponentC2EOS_ CODE
 0001:00007380 00000023H .text$_ZNSt3__112basic_stringIcNS_11char_traitsIcEENS_9allocatorIcEEEC1B6v15007EOS5_ CODE
 0001:000073b0 00000082H .text$_ZNSt3__112basic_stringIcNS_11char_traitsIcEENS_9allocatorIcEEEC2B6v15007EOS5_ CODE
 0001:00007440 00000019H .text$_ZNSt3__112basic_stringIcNS_11char_traitsIcEENS_9allocatorIcEEE14__default_initB6v15007Ev CODE
 0001:00007460 00000012H .text$_ZNSt3__115__debug_db_swapB6v15007INS_12basic_stringIcNS_11char_traitsIcEENS_9allocatorIcEEEEEEvPT_S8_ CODE
 0001:00007480 0000004eH .text$_ZNSt3__112basic_stringIcNS_11char_traitsIcEENS_9allocatorIcEEE6__zeroB6v15007Ev CODE
 0001:000074d0 00000036H .text$_ZNSt3__119__to_address_helperINS_16reverse_iteratorIP9ComponentEEvE6__callB6v15007ERKS4_ CODE
 0001:00007510 00000019H .text$_ZNKSt3__116reverse_iteratorIP9ComponentEptB6v15007Ev CODE
 0001:00007530 0000003aH .text$_ZNSt3__129_AllocatorDestroyRangeReverseINS_9allocatorI9ComponentEENS_16reverse_iteratorIPS2_EEEC2B6v15007ERS3_RS6_S9_ CODE
 0001:00007570 00000064H .text$_ZNSt3__119__allocator_destroyB6v15007INS_9allocatorI9ComponentEENS_16reverse_iteratorINS4_IPS2_EEEES7_EEvRT_T0_T1_ CODE
 0001:000075e0 00000019H .text$_ZNSt3__116reverse_iteratorINS0_IP9ComponentEEEC1B6v15007ES3_ CODE
 0001:00007600 00000045H .text$_ZNSt3__1neB6v15007INS_16reverse_iteratorIP9ComponentEES4_EEbRKNS1_IT_EERKNS1_IT0_EE CODE
 0001:00007650 00000019H .text$_ZNSt3__112__to_addressB6v15007INS_16reverse_iteratorINS1_IP9ComponentEEEEvEENS_5decayIDTclsr19__to_address_helperIT_EE6__callcl7declvalIRKS7_EEEEE4typeES9_ CODE
 0001:00007670 00000026H .text$_ZNSt3__116reverse_iteratorINS0_IP9ComponentEEEppB6v15007Ev CODE
 0001:000076a0 00000028H .text$_ZNKSt3__116reverse_iteratorINS0_IP9ComponentEEE4baseB6v15007Ev CODE
 0001:000076d0 00000036H .text$_ZNSt3__119__to_address_helperINS_16reverse_iteratorINS1_IP9ComponentEEEEvE6__callB6v15007ERKS5_ CODE
 0001:00007710 00000019H .text$_ZNKSt3__116reverse_iteratorINS0_IP9ComponentEEEptB6v15007Ev CODE
 0001:00007730 00000038H .text$_ZNKSt3__116reverse_iteratorINS0_IP9ComponentEEEdeB6v15007Ev CODE
 0001:00007770 00000017H .text$_ZNSt3__116reverse_iteratorIP9ComponentEmmB6v15007Ev CODE
 0001:00007790 00000029H .text$_ZNSt3__116reverse_iteratorINS0_IP9ComponentEEEC2B6v15007ES3_ CODE
 0001:000077c0 00000026H .text$_ZNSt3__116reverse_iteratorIP9ComponentEC2B6v15007ES2_ CODE
 0001:000077f0 00000075H .text$_ZNSt3__114__split_bufferI9ComponentRNS_9allocatorIS1_EEED2Ev CODE
 0001:00007870 0000001dH .text$_ZNSt3__114__split_bufferI9ComponentRNS_9allocatorIS1_EEE5clearB6v15007Ev CODE
 0001:00007890 00000035H .text$_ZNKSt3__114__split_bufferI9ComponentRNS_9allocatorIS1_EEE8capacityB6v15007Ev CODE
 0001:000078d0 00000028H .text$_ZNSt3__114__split_bufferI9ComponentRNS_9allocatorIS1_EEE17__destruct_at_endB6v15007EPS1_ CODE
 0001:00007900 0000007eH .text$_ZNSt3__114__split_bufferI9ComponentRNS_9allocatorIS1_EEE17__destruct_at_endB6v15007EPS1_NS_17integral_constantIbLb0EEE CODE
 0001:00007980 0000001dH .text$_ZNKSt3__114__split_bufferI9ComponentRNS_9allocatorIS1_EEE9__end_capB6v15007Ev CODE
 0001:000079a0 00000019H .text$_ZNKSt3__117__compressed_pairIP9ComponentRNS_9allocatorIS1_EEE5firstB6v15007Ev CODE
 0001:000079c0 0000002dH .text$_ZNSt3__111__wrap_iterIP9ComponentEC1B6v15007EPKvS2_ CODE
 0001:000079f0 00000023H .text$_ZNSt3__111__wrap_iterIP9ComponentEC2B6v15007EPKvS2_ CODE
 0001:00007a20 00000b96H .text                   CODE
 0001:000085c0 00000019H .text$_ZNKSt3__112basic_stringIcNS_11char_traitsIcEENS_9allocatorIcEEE5c_strB6v15007Ev CODE
 0001:000085e0 00000022H .text$_ZNSt3__16vectorI9ComponentNS_9allocatorIS1_EEEixB6v15007Ey CODE
 0001:00008610 00000044H .text$_ZN6System11AnsiStringTILt0EEC1ERKNS_13UnicodeStringE CODE
 0001:00008660 00000043H .text$_ZNK6System11AnsiStringTILt0EE5c_strEv CODE
 0001:000086b0 00000019H .text$_ZN6System11AnsiStringTILt0EED1Ev CODE
 0001:000086d0 0000004cH .text$_ZN11TDetailFormD0Ev CODE
 0001:00008720 00000047H .text$_ZN6System11AnsiStringTILt0EEC2ERKNS_13UnicodeStringE CODE
 0001:00008770 000000e9H .text$_ZN6System11AnsiStringTILt0EED2Ev CODE
 0001:00008860 00000030H .text$_ZN6System11AnsiStringTILt0EEC1Ev CODE
 0001:00008890 00000023H .text$_ZN6System11AnsiStringTILt0EEC1ERKS1_ CODE
 0001:000088c0 00000030H .text$_ZN6System11AnsiStringTILt0EEC2Ev CODE
 0001:000088f0 00000012H .text$_ZN6System14AnsiStringBaseC2Ev CODE
 0001:00008910 00000023H .text$_ZN6System11AnsiStringTILt0EEC2ERKS1_ CODE
 0001:00008940 00002486H .text                   CODE
 0001:0000add0 00000019H .text$_ZNSt3__16vectorI8ComputerNS_9allocatorIS1_EEEC1B6v15007Ev CODE
 0001:0000adf0 00000019H .text$_ZNSt3__16vectorI8ComputerNS_9allocatorIS1_EEED1B6v15007Ev CODE
 0001:0000ae10 0000001fH .text$_ZNKSt3__16vectorI8ComputerNS_9allocatorIS1_EEE4sizeB6v15007Ev CODE
 0001:0000ae30 00000022H .text$_ZNSt3__16vectorI8ComputerNS_9allocatorIS1_EEEixB6v15007Ey CODE
 0001:0000ae60 00000167H .text$_ZNSt3__114basic_ifstreamIcNS_11char_traitsIcEEEC1EPKcj CODE
 0001:0000afd0 0000001fH .text$_ZNKSt3__19basic_iosIcNS_11char_traitsIcEEEcvbB6v15007Ev CODE
 0001:0000aff0 00000060H .text$_ZNSt3__16vectorI8ComputerNS_9allocatorIS1_EEE9push_backB6v15007ERKS1_ CODE
 0001:0000b050 00000019H .text$_ZN8ComputerD1Ev  CODE
 0001:0000b070 00000042H .text$_ZNSt3__114basic_ifstreamIcNS_11char_traitsIcEEE5closeEv CODE
 0001:0000b0c0 0000004aH .text$_ZNSt3__1plB6v15007IcNS_11char_traitsIcEENS_9allocatorIcEEEENS_12basic_stringIT_T0_T1_EEPKS6_OS9_ CODE
 0001:0000b110 00000167H .text$_ZNSt3__114basic_ofstreamIcNS_11char_traitsIcEEEC1EPKcj CODE
 0001:0000b280 00000025H .text$_ZNSt3__16vectorI8ComputerNS_9allocatorIS1_EEE5beginB6v15007Ev CODE
 0001:0000b2b0 00000026H .text$_ZNSt3__16vectorI8ComputerNS_9allocatorIS1_EEE3endB6v15007Ev CODE
 0001:0000b2e0 00000029H .text$_ZNSt3__1neB6v15007IP8ComputerEEbRKNS_11__wrap_iterIT_EES7_ CODE
 0001:0000b310 0000000eH .text$_ZNKSt3__111__wrap_iterIP8ComputerEdeB6v15007Ev CODE
 0001:0000b320 00000015H .text$_ZNSt3__111__wrap_iterIP8ComputerEppB6v15007Ev CODE
 0001:0000b340 00000042H .text$_ZNSt3__114basic_ofstreamIcNS_11char_traitsIcEEE5closeEv CODE
 0001:0000b390 00000036H .text$_ZNSt3__114basic_ofstreamIcNS_11char_traitsIcEEED1Ev CODE
 0001:0000b3d0 00000036H .text$_ZNSt3__114basic_ifstreamIcNS_11char_traitsIcEEED1Ev CODE
 0001:0000b410 00000030H .text$_ZN6System3SetINS_7Uitypes10TMsgDlgBtnELS2_0ELS2_11EEC1Ev CODE
 0001:0000b440 00000078H .text$_ZN6System3SetINS_7Uitypes10TMsgDlgBtnELS2_0ELS2_11EElsES2_ CODE
 0001:0000b4c0 000000a4H .text$_ZNSt3__16vectorI8ComputerNS_9allocatorIS1_EEE5eraseB6v15007ENS_11__wrap_iterIPKS1_EE CODE
 0001:0000b570 00000034H .text$_ZNKSt3__111__wrap_iterIP8ComputerEplB6v15007Ex CODE
 0001:0000b5b0 0000002dH .text$_ZNSt3__111__wrap_iterIPK8ComputerEC1B6v15007IPS1_EERKNS0_IT_EEPNS_9enable_ifIXsr14is_convertibleIS7_S3_EE5valueEvE4typeE CODE
 0001:0000b5e0 0000005dH .text$_ZN9THomeFormD0Ev CODE
 0001:0000b640 0000003aH .text$_ZN8ComputerD2Ev  CODE
 0001:0000b680 0000003fH .text$_ZNSt3__1eqB6v15007IP8ComputerEEbRKNS_11__wrap_iterIT_EES7_ CODE
 0001:0000b6c0 0000000eH .text$_ZNKSt3__111__wrap_iterIP8ComputerE4baseB6v15007Ev CODE
 0001:0000b6d0 00000059H .text$_ZNSt3__114basic_ofstreamIcNS_11char_traitsIcEEED2Ev CODE
 0001:0000b730 00000019H .text$_ZTv0_n24_NSt3__114basic_ofstreamIcNS_11char_traitsIcEEED1Ev CODE
 0001:0000b750 00000028H .text$_ZNSt3__114basic_ofstreamIcNS_11char_traitsIcEEED0Ev CODE
 0001:0000b780 00000019H .text$_ZTv0_n24_NSt3__114basic_ofstreamIcNS_11char_traitsIcEEED0Ev CODE
 0001:0000b7a0 00000019H .text$_ZNSt3__113basic_filebufIcNS_11char_traitsIcEEED1Ev CODE
 0001:0000b7c0 000000deH .text$_ZNSt3__113basic_filebufIcNS_11char_traitsIcEEED2Ev CODE
 0001:0000b8a0 00000112H .text$_ZNSt3__113basic_filebufIcNS_11char_traitsIcEEE5closeEv CODE
 0001:0000b9c0 00000028H .text$_ZNSt3__113basic_filebufIcNS_11char_traitsIcEEED0Ev CODE
 0001:0000b9f0 000001c9H .text$_ZNSt3__113basic_filebufIcNS_11char_traitsIcEEE5imbueERKNS_6localeE CODE
 0001:0000bbc0 00000202H .text$_ZNSt3__113basic_filebufIcNS_11char_traitsIcEEE6setbufEPcx CODE
 0001:0000bdd0 000001e4H .text$_ZNSt3__113basic_filebufIcNS_11char_traitsIcEEE7seekoffExNS_8ios_base7seekdirEj CODE
 0001:0000bfc0 000000efH .text$_ZNSt3__113basic_filebufIcNS_11char_traitsIcEEE7seekposENS_4fposI9_MbstatetEEj CODE
 0001:0000c0b0 0000043aH .text$_ZNSt3__113basic_filebufIcNS_11char_traitsIcEEE4syncEv CODE
 0001:0000c4f0 0000069bH .text$_ZNSt3__113basic_filebufIcNS_11char_traitsIcEEE9underflowEv CODE
 0001:0000cb90 00000129H .text$_ZNSt3__113basic_filebufIcNS_11char_traitsIcEEE9pbackfailEi CODE
 0001:0000ccc0 000004c9H .text$_ZNSt3__113basic_filebufIcNS_11char_traitsIcEEE8overflowEi CODE
 0001:0000d190 0000002dH .text$_ZNSt3__110unique_ptrI6_iobufPFiPS1_EEC1B6v15007ILb1EvEES2_NS_16__dependent_typeINS_27__unique_ptr_deleter_sfinaeIS4_EEXT_EE20__good_rval_ref_typeE CODE
 0001:0000d1c0 0000003bH .text$_ZNSt3__110unique_ptrI6_iobufPFiPS1_EE7releaseB6v15007Ev CODE
 0001:0000d200 00000019H .text$_ZNSt3__110unique_ptrI6_iobufPFiPS1_EED1B6v15007Ev CODE
 0001:0000d220 0000003aH .text$_ZNSt3__110unique_ptrI6_iobufPFiPS1_EEC2B6v15007ILb1EvEES2_NS_16__dependent_typeINS_27__unique_ptr_deleter_sfinaeIS4_EEXT_EE20__good_rval_ref_typeE CODE
 0001:0000d260 0000002dH .text$_ZNSt3__117__compressed_pairIP6_iobufPFiS2_EEC1B6v15007IRS2_S4_EEOT_OT0_ CODE
 0001:0000d290 00000040H .text$_ZNSt3__117__compressed_pairIP6_iobufPFiS2_EEC2B6v15007IRS2_S4_EEOT_OT0_ CODE
 0001:0000d2d0 00000021H .text$_ZNSt3__122__compressed_pair_elemIP6_iobufLi0ELb0EEC2B6v15007IRS2_vEEOT_ CODE
 0001:0000d300 00000021H .text$_ZNSt3__122__compressed_pair_elemIPFiP6_iobufELi1ELb0EEC2B6v15007IS4_vEEOT_ CODE
 0001:0000d330 00000019H .text$_ZNSt3__117__compressed_pairIP6_iobufPFiS2_EE5firstB6v15007Ev CODE
 0001:0000d350 0000000bH .text$_ZNSt3__122__compressed_pair_elemIP6_iobufLi0ELb0EE5__getB6v15007Ev CODE
 0001:0000d360 0000001dH .text$_ZNSt3__110unique_ptrI6_iobufPFiPS1_EED2B6v15007Ev CODE
 0001:0000d380 00000079H .text$_ZNSt3__110unique_ptrI6_iobufPFiPS1_EE5resetB6v15007ES2_ CODE
 0001:0000d400 0000001dH .text$_ZNSt3__117__compressed_pairIP6_iobufPFiS2_EE6secondB6v15007Ev CODE
 0001:0000d420 0000000bH .text$_ZNSt3__122__compressed_pair_elemIPFiP6_iobufELi1ELb0EE5__getB6v15007Ev CODE
 0001:0000d430 00000020H .text$_ZNSt3__19use_facetB6v15007INS_7codecvtIcc9_MbstatetEEEERKT_RKNS_6localeE CODE
 0001:0000d450 0000001eH .text$_ZNKSt3__17codecvtIcc9_MbstatetE13always_noconvB6v15007Ev CODE
 0001:0000d470 0000003bH .text$_ZNSt3__115basic_streambufIcNS_11char_traitsIcEEE4setgB6v15007EPcS4_S4_ CODE
 0001:0000d4b0 00000031H .text$_ZNSt3__115basic_streambufIcNS_11char_traitsIcEEE4setpB6v15007EPcS4_ CODE
 0001:0000d4f0 00000028H .text$_ZNSt3__13maxB6v15007IxEERKT_S3_S3_ CODE
 0001:0000d520 00000057H .text$_ZNSt3__13maxB6v15007IxNS_6__lessIxxEEEERKT_S5_S5_T0_ CODE
 0001:0000d580 0000002eH .text$_ZNKSt3__16__lessIxxEclB6v15007ERKxS3_ CODE
 0001:0000d5b0 00000034H .text$_ZNSt3__116__throw_bad_castB6v15007Ev CODE
 0001:0000d5f0 0000001aH .text$_ZNKSt3__17codecvtIcc9_MbstatetE8encodingB6v15007Ev CODE
 0001:0000d610 00000023H .text$_ZNSt3__14fposI9_MbstatetEC1B6v15007Ex CODE
 0001:0000d640 0000001eH .text$_ZNSt3__14fposI9_MbstatetE5stateB6v15007ES1_ CODE
 0001:0000d660 00000038H .text$_ZNSt3__14fposI9_MbstatetEC2B6v15007Ex CODE
 0001:0000d6a0 0000000fH .text$_ZNKSt3__14fposI9_MbstatetEcvxB6v15007Ev CODE
 0001:0000d6b0 0000001eH .text$_ZNKSt3__14fposI9_MbstatetE5stateB6v15007Ev CODE
 0001:0000d6d0 0000000fH .text$_ZNKSt3__115basic_streambufIcNS_11char_traitsIcEEE4pptrB6v15007Ev CODE
 0001:0000d6e0 0000000fH .text$_ZNKSt3__115basic_streambufIcNS_11char_traitsIcEEE5pbaseB6v15007Ev CODE
 0001:0000d6f0 00000047H .text$_ZNKSt3__17codecvtIcc9_MbstatetE7unshiftB6v15007ERS1_PcS4_RS4_ CODE
 0001:0000d740 0000000fH .text$_ZNKSt3__115basic_streambufIcNS_11char_traitsIcEEE5egptrB6v15007Ev CODE
 0001:0000d750 0000000fH .text$_ZNKSt3__115basic_streambufIcNS_11char_traitsIcEEE4gptrB6v15007Ev CODE
 0001:0000d760 00000047H .text$_ZNKSt3__17codecvtIcc9_MbstatetE6lengthB6v15007ERS1_PKcS5_y CODE
 0001:0000d7b0 0000000fH .text$_ZNKSt3__115basic_streambufIcNS_11char_traitsIcEEE5ebackB6v15007Ev CODE
 0001:0000d7c0 000000b6H .text$_ZNSt3__113basic_filebufIcNS_11char_traitsIcEEE11__read_modeEv CODE
 0001:0000d880 00000090H .text$_ZNKSt3__17codecvtIcc9_MbstatetE2inB6v15007ERS1_PKcS5_RS5_PcS7_RS7_ CODE
 0001:0000d910 00000029H .text$_ZNSt3__115basic_streambufIcNS_11char_traitsIcEEE5gbumpB6v15007Ei CODE
 0001:0000d940 0000004fH .text$_ZNSt3__111char_traitsIcE7not_eofEi CODE
 0001:0000d990 000000c6H .text$_ZNSt3__113basic_filebufIcNS_11char_traitsIcEEE12__write_modeEv CODE
 0001:0000da60 0000000fH .text$_ZNKSt3__115basic_streambufIcNS_11char_traitsIcEEE5epptrB6v15007Ev CODE
 0001:0000da70 00000029H .text$_ZNSt3__115basic_streambufIcNS_11char_traitsIcEEE5pbumpB6v15007Ei CODE
 0001:0000daa0 00000090H .text$_ZNKSt3__17codecvtIcc9_MbstatetE3outB6v15007ERS1_PKcS5_RS5_PcS7_RS7_ CODE
 0001:0000db30 00000023H .text$_ZNSt3__115basic_streambufIcNS_11char_traitsIcEEE7__pbumpB6v15007Ex CODE
 0001:0000db60 00000059H .text$_ZNSt3__114basic_ifstreamIcNS_11char_traitsIcEEED2Ev CODE
 0001:0000dbc0 00000019H .text$_ZTv0_n24_NSt3__114basic_ifstreamIcNS_11char_traitsIcEEED1Ev CODE
 0001:0000dbe0 00000028H .text$_ZNSt3__114basic_ifstreamIcNS_11char_traitsIcEEED0Ev CODE
 0001:0000dc10 00000019H .text$_ZTv0_n24_NSt3__114basic_ifstreamIcNS_11char_traitsIcEEED0Ev CODE
 0001:0000dc30 00000025H .text$_ZNSt3__111__wrap_iterIP8ComputerEpLB6v15007Ex CODE
 0001:0000dc60 00000037H .text$_ZNSt3__111__wrap_iterIPK8ComputerEC2B6v15007IPS1_EERKNS0_IT_EEPNS_9enable_ifIXsr14is_convertibleIS7_S3_EE5valueEvE4typeE CODE
 0001:0000dca0 00000060H .text$_ZNSt3__16vectorI8ComputerNS_9allocatorIS1_EEEC2B6v15007Ev CODE
 0001:0000dd00 0000002dH .text$_ZNSt3__117__compressed_pairIP8ComputerNS_9allocatorIS1_EEEC1B6v15007IDnNS_18__default_init_tagEEEOT_OT0_ CODE
 0001:0000dd30 00000007H .text$_ZNSt3__119__debug_db_insert_cB6v15007INS_6vectorI8ComputerNS_9allocatorIS2_EEEEEEvPT_ CODE
 0001:0000dd40 0000003bH .text$_ZNSt3__117__compressed_pairIP8ComputerNS_9allocatorIS1_EEEC2B6v15007IDnNS_18__default_init_tagEEEOT_OT0_ CODE
 0001:0000dd80 0000001eH .text$_ZNSt3__122__compressed_pair_elemIP8ComputerLi0ELb0EEC2B6v15007IDnvEEOT_ CODE
 0001:0000dda0 0000001dH .text$_ZNSt3__122__compressed_pair_elemINS_9allocatorI8ComputerEELi1ELb1EEC2B6v15007ENS_18__default_init_tagE CODE
 0001:0000ddc0 00000019H .text$_ZNSt3__19allocatorI8ComputerEC2B6v15007Ev CODE
 0001:0000dde0 00000007H .text$_ZNSt3__116__non_trivial_ifILb1ENS_9allocatorI8ComputerEEEC2B6v15007Ev CODE
 0001:0000ddf0 0000003aH .text$_ZNSt3__16vectorI8ComputerNS_9allocatorIS1_EEED2B6v15007Ev CODE
 0001:0000de30 00000023H .text$_ZNSt3__16vectorI8ComputerNS_9allocatorIS1_EEE16__destroy_vectorC1ERS4_ CODE
 0001:0000de60 0000008cH .text$_ZNSt3__16vectorI8ComputerNS_9allocatorIS1_EEE16__destroy_vectorclB6v15007Ev CODE
 0001:0000def0 0000001eH .text$_ZNSt3__16vectorI8ComputerNS_9allocatorIS1_EEE16__destroy_vectorC2ERS4_ CODE
 0001:0000df10 000000c3H .text$_ZNKSt3__16vectorI8ComputerNS_9allocatorIS1_EEE17__annotate_deleteB6v15007Ev CODE
 0001:0000dfe0 00000007H .text$_ZNSt3__118__debug_db_erase_cB6v15007INS_6vectorI8ComputerNS_9allocatorIS2_EEEEEEvPT_ CODE
 0001:0000dff0 0000001cH .text$_ZNSt3__16vectorI8ComputerNS_9allocatorIS1_EEE7__clearB6v15007Ev CODE
 0001:0000e010 0000002dH .text$_ZNSt3__116allocator_traitsINS_9allocatorI8ComputerEEE10deallocateB6v15007ERS3_PS2_y CODE
 0001:0000e040 0000001dH .text$_ZNSt3__16vectorI8ComputerNS_9allocatorIS1_EEE7__allocB6v15007Ev CODE
 0001:0000e060 00000035H .text$_ZNKSt3__16vectorI8ComputerNS_9allocatorIS1_EEE8capacityB6v15007Ev CODE
 0001:0000e0a0 00000021H .text$_ZNKSt3__16vectorI8ComputerNS_9allocatorIS1_EEE31__annotate_contiguous_containerB6v15007EPKvS6_S6_S6_ CODE
 0001:0000e0d0 0000001cH .text$_ZNKSt3__16vectorI8ComputerNS_9allocatorIS1_EEE4dataB6v15007Ev CODE
 0001:0000e0f0 0000000bH .text$_ZNSt3__112__to_addressB6v15007I8ComputerEEPT_S3_ CODE
 0001:0000e100 00000086H .text$_ZNSt3__16vectorI8ComputerNS_9allocatorIS1_EEE22__base_destruct_at_endB6v15007EPS1_ CODE
 0001:0000e190 00000023H .text$_ZNSt3__116allocator_traitsINS_9allocatorI8ComputerEEE7destroyB6v15007IS2_vEEvRS3_PT_ CODE
 0001:0000e1c0 0000001eH .text$_ZNSt3__19allocatorI8ComputerE7destroyB6v15007EPS1_ CODE
 0001:0000e1e0 0000003fH .text$_ZNSt3__19allocatorI8ComputerE10deallocateB6v15007EPS1_y CODE
 0001:0000e220 00000019H .text$_ZNSt3__117__compressed_pairIP8ComputerNS_9allocatorIS1_EEE6secondB6v15007Ev CODE
 0001:0000e240 0000000bH .text$_ZNSt3__122__compressed_pair_elemINS_9allocatorI8ComputerEELi1ELb1EE5__getB6v15007Ev CODE
 0001:0000e250 0000001dH .text$_ZNKSt3__16vectorI8ComputerNS_9allocatorIS1_EEE9__end_capB6v15007Ev CODE
 0001:0000e270 00000019H .text$_ZNKSt3__117__compressed_pairIP8ComputerNS_9allocatorIS1_EEE5firstB6v15007Ev CODE
 0001:0000e290 0000000bH .text$_ZNKSt3__122__compressed_pair_elemIP8ComputerLi0ELb0EE5__getB6v15007Ev CODE
 0001:0000e2a0 00000030H .text$_ZNSt3__19basic_iosIcNS_11char_traitsIcEEEC2B6v15007Ev CODE
 0001:0000e2d0 00000051H .text$_ZNSt3__113basic_istreamIcNS_11char_traitsIcEEEC2B6v15007EPNS_15basic_streambufIcS2_EE CODE
 0001:0000e330 00000019H .text$_ZNSt3__113basic_filebufIcNS_11char_traitsIcEEEC1Ev CODE
 0001:0000e350 00000104H .text$_ZNSt3__113basic_filebufIcNS_11char_traitsIcEEE4openEPKcj CODE
 0001:0000e460 00000019H .text$_ZNSt3__18ios_baseC2B6v15007Ev CODE
 0001:0000e480 00000049H .text$_ZNSt3__19basic_iosIcNS_11char_traitsIcEEE4initB6v15007EPNS_15basic_streambufIcS2_EE CODE
 0001:0000e4d0 000001afH .text$_ZNSt3__113basic_filebufIcNS_11char_traitsIcEEEC2Ev CODE
 0001:0000e680 0000003aH .text$_ZNSt3__19has_facetB6v15007INS_7codecvtIcc9_MbstatetEEEEbRKNS_6localeE CODE
 0001:0000e6c0 0000002eH .text$_ZNKSt3__115basic_streambufIcNS_11char_traitsIcEEE6getlocB6v15007Ev CODE
 0001:0000e6f0 00000204H .text$_ZNSt3__113basic_filebufIcNS_11char_traitsIcEEE15__make_mdstringEj CODE
 0001:0000e900 0000001dH .text$_ZNKSt3__19basic_iosIcNS_11char_traitsIcEEE4failB6v15007Ev CODE
 0001:0000e920 0000001cH .text$_ZNKSt3__18ios_base4failB6v15007Ev CODE
 0001:0000e940 0000001dH .text$_ZNSt3__16vectorI8ComputerNS_9allocatorIS1_EEE9__end_capB6v15007Ev CODE
 0001:0000e960 00000099H .text$_ZNSt3__16vectorI8ComputerNS_9allocatorIS1_EEE22__construct_one_at_endB6v15007IJRKS1_EEEvDpOT_ CODE
 0001:0000ea00 000000eeH .text$_ZNSt3__16vectorI8ComputerNS_9allocatorIS1_EEE21__push_back_slow_pathIRKS1_EEvOT_ CODE
 0001:0000eaf0 00000019H .text$_ZNSt3__117__compressed_pairIP8ComputerNS_9allocatorIS1_EEE5firstB6v15007Ev CODE
 0001:0000eb10 0000000bH .text$_ZNSt3__122__compressed_pair_elemIP8ComputerLi0ELb0EE5__getB6v15007Ev CODE
 0001:0000eb20 0000002dH .text$_ZNSt3__16vectorI8ComputerNS_9allocatorIS1_EEE21_ConstructTransactionC1ERS4_y CODE
 0001:0000eb50 0000002dH .text$_ZNSt3__116allocator_traitsINS_9allocatorI8ComputerEEE9constructB6v15007IS2_JRKS2_EvEEvRS3_PT_DpOT0_ CODE
 0001:0000eb80 00000019H .text$_ZNSt3__16vectorI8ComputerNS_9allocatorIS1_EEE21_ConstructTransactionD1Ev CODE
 0001:0000eba0 00000046H .text$_ZNSt3__16vectorI8ComputerNS_9allocatorIS1_EEE21_ConstructTransactionC2ERS4_y CODE
 0001:0000ebf0 00000028H .text$_ZNSt3__19allocatorI8ComputerE9constructB6v15007IS1_JRKS1_EEEvPT_DpOT0_ CODE
 0001:0000ec20 00000023H .text$_ZN8ComputerC1ERKS_ CODE
 0001:0000ec50 000000deH .text$_ZN8ComputerC2ERKS_ CODE
 0001:0000ed30 00000023H .text$_ZNSt3__16vectorI9ComponentNS_9allocatorIS1_EEEC1ERKS4_ CODE
 0001:0000ed60 00000132H .text$_ZNSt3__16vectorI9ComponentNS_9allocatorIS1_EEEC2ERKS4_ CODE
 0001:0000eea0 00000011H .text$_ZNSt3__116allocator_traitsINS_9allocatorI9ComponentEEE37select_on_container_copy_constructionB6v15007IS3_vvEES3_RKS3_ CODE
 0001:0000eec0 0000002dH .text$_ZNSt3__117__compressed_pairIP9ComponentNS_9allocatorIS1_EEEC1B6v15007IDnS4_EEOT_OT0_ CODE
 0001:0000eef0 00000034H .text$_ZNSt3__118__make_transactionB6v15007INS_6vectorI9ComponentNS_9allocatorIS2_EEE16__destroy_vectorEEENS_13__transactionIT_EES8_ CODE
 0001:0000ef30 000000a6H .text$_ZNSt3__16vectorI9ComponentNS_9allocatorIS1_EEE11__vallocateB6v15007Ey CODE
 0001:0000efe0 00000099H .text$_ZNSt3__16vectorI9ComponentNS_9allocatorIS1_EEE18__construct_at_endIPS1_EENS_9enable_ifIXsr27__is_cpp17_forward_iteratorIT_EE5valueEvE4typeES8_S8_y CODE
 0001:0000f080 0000000fH .text$_ZNSt3__113__transactionINS_6vectorI9ComponentNS_9allocatorIS2_EEE16__destroy_vectorEE10__completeB6v15007Ev CODE
 0001:0000f090 00000019H .text$_ZNSt3__113__transactionINS_6vectorI9ComponentNS_9allocatorIS2_EEE16__destroy_vectorEED1B6v15007Ev CODE
 0001:0000f0b0 0000003cH .text$_ZNSt3__117__compressed_pairIP9ComponentNS_9allocatorIS1_EEEC2B6v15007IDnS4_EEOT_OT0_ CODE
 0001:0000f0f0 00000012H .text$_ZNSt3__122__compressed_pair_elemINS_9allocatorI9ComponentEELi1ELb1EEC2B6v15007IS3_vEEOT_ CODE
 0001:0000f110 00000023H .text$_ZNSt3__113__transactionINS_6vectorI9ComponentNS_9allocatorIS2_EEE16__destroy_vectorEEC1B6v15007ES6_ CODE
 0001:0000f140 00000022H .text$_ZNSt3__113__transactionINS_6vectorI9ComponentNS_9allocatorIS2_EEE16__destroy_vectorEEC2B6v15007ES6_ CODE
 0001:0000f170 0000010cH .text$_ZNSt3__130__uninitialized_allocator_copyB6v15007INS_9allocatorI9ComponentEEPS2_S4_S4_EET2_RT_T0_T1_S5_ CODE
 0001:0000f280 0000002dH .text$_ZNSt3__116allocator_traitsINS_9allocatorI9ComponentEEE9constructB6v15007IS2_JRS2_EvEEvRS3_PT_DpOT0_ CODE
 0001:0000f2b0 00000037H .text$_ZNSt3__129_AllocatorDestroyRangeReverseINS_9allocatorI9ComponentEEPS2_EC1B6v15007ERS3_RS4_S7_ CODE
 0001:0000f2f0 0000005cH .text$_ZNKSt3__129_AllocatorDestroyRangeReverseINS_9allocatorI9ComponentEEPS2_EclB6v15007Ev CODE
 0001:0000f350 00000028H .text$_ZNSt3__19allocatorI9ComponentE9constructB6v15007IS1_JRS1_EEEvPT_DpOT0_ CODE
 0001:0000f380 0000003aH .text$_ZNSt3__129_AllocatorDestroyRangeReverseINS_9allocatorI9ComponentEEPS2_EC2B6v15007ERS3_RS4_S7_ CODE
 0001:0000f3c0 00000064H .text$_ZNSt3__119__allocator_destroyB6v15007INS_9allocatorI9ComponentEENS_16reverse_iteratorIPS2_EES6_EEvRT_T0_T1_ CODE
 0001:0000f430 0000003fH .text$_ZNSt3__113__transactionINS_6vectorI9ComponentNS_9allocatorIS2_EEE16__destroy_vectorEED2B6v15007Ev CODE
 0001:0000f470 00000016H .text$_ZNSt3__16vectorI8ComputerNS_9allocatorIS1_EEE21_ConstructTransactionD2Ev CODE
 0001:0000f490 000000a0H .text$_ZNKSt3__16vectorI8ComputerNS_9allocatorIS1_EEE11__recommendB6v15007Ey CODE
 0001:0000f530 00000037H .text$_ZNSt3__114__split_bufferI8ComputerRNS_9allocatorIS1_EEEC1EyyS4_ CODE
 0001:0000f570 0000014cH .text$_ZNSt3__16vectorI8ComputerNS_9allocatorIS1_EEE26__swap_out_circular_bufferERNS_14__split_bufferIS1_RS3_EE CODE
 0001:0000f6c0 00000019H .text$_ZNSt3__114__split_bufferI8ComputerRNS_9allocatorIS1_EEED1Ev CODE
 0001:0000f6e0 00000059H .text$_ZNKSt3__16vectorI8ComputerNS_9allocatorIS1_EEE8max_sizeEv CODE
 0001:0000f740 00000016H .text$_ZNKSt3__16vectorI8ComputerNS_9allocatorIS1_EEE20__throw_length_errorB6v15007Ev CODE
 0001:0000f760 00000019H .text$_ZNSt3__116allocator_traitsINS_9allocatorI8ComputerEEE8max_sizeB6v15007IS3_vEEyRKS3_ CODE
 0001:0000f780 0000001dH .text$_ZNKSt3__16vectorI8ComputerNS_9allocatorIS1_EEE7__allocB6v15007Ev CODE
 0001:0000f7a0 00000011H .text$_ZNKSt3__19allocatorI8ComputerE8max_sizeB6v15007Ev CODE
 0001:0000f7c0 00000019H .text$_ZNKSt3__117__compressed_pairIP8ComputerNS_9allocatorIS1_EEE6secondB6v15007Ev CODE
 0001:0000f7e0 0000000bH .text$_ZNKSt3__122__compressed_pair_elemINS_9allocatorI8ComputerEELi1ELb1EE5__getB6v15007Ev CODE
 0001:0000f7f0 000000caH .text$_ZNSt3__114__split_bufferI8ComputerRNS_9allocatorIS1_EEEC2EyyS4_ CODE
 0001:0000f8c0 0000002dH .text$_ZNSt3__117__compressed_pairIP8ComputerRNS_9allocatorIS1_EEEC1B6v15007IDnS5_EEOT_OT0_ CODE
 0001:0000f8f0 0000004dH .text$_ZNSt3__119__allocate_at_leastB6v15007INS_9allocatorI8ComputerEEEENS_19__allocation_resultINS_16allocator_traitsIT_E7pointerEEERS6_y CODE
 0001:0000f940 0000001dH .text$_ZNSt3__114__split_bufferI8ComputerRNS_9allocatorIS1_EEE7__allocB6v15007Ev CODE
 0001:0000f960 0000001dH .text$_ZNSt3__114__split_bufferI8ComputerRNS_9allocatorIS1_EEE9__end_capB6v15007Ev CODE
 0001:0000f980 00000040H .text$_ZNSt3__117__compressed_pairIP8ComputerRNS_9allocatorIS1_EEEC2B6v15007IDnS5_EEOT_OT0_ CODE
 0001:0000f9c0 0000001eH .text$_ZNSt3__122__compressed_pair_elemIRNS_9allocatorI8ComputerEELi1ELb0EEC2B6v15007IS4_vEEOT_ CODE
 0001:0000f9e0 0000004eH .text$_ZNSt3__19allocatorI8ComputerE8allocateB6v15007Ey CODE
 0001:0000fa30 0000001dH .text$_ZNSt3__117__compressed_pairIP8ComputerRNS_9allocatorIS1_EEE6secondB6v15007Ev CODE
 0001:0000fa50 0000000eH .text$_ZNSt3__122__compressed_pair_elemIRNS_9allocatorI8ComputerEELi1ELb0EE5__getB6v15007Ev CODE
 0001:0000fa60 00000019H .text$_ZNSt3__117__compressed_pairIP8ComputerRNS_9allocatorIS1_EEE5firstB6v15007Ev CODE
 0001:0000fa80 000001a8H .text$_ZNSt3__142__uninitialized_allocator_move_if_noexceptB6v15007INS_9allocatorI8ComputerEENS_16reverse_iteratorIPS2_EES6_S6_EET2_RT_T0_T1_S7_ CODE
 0001:0000fc30 00000023H .text$_ZNSt3__116reverse_iteratorIP8ComputerEC1B6v15007ES2_ CODE
 0001:0000fc60 0000000fH .text$_ZNKSt3__116reverse_iteratorIP8ComputerE4baseB6v15007Ev CODE
 0001:0000fc70 0000003bH .text$_ZNSt3__14swapB6v15007IP8ComputerEENS_9enable_ifIXaasr21is_move_constructibleIT_EE5valuesr18is_move_assignableIS4_EE5valueEvE4typeERS4_S7_ CODE
 0001:0000fcb0 000000b3H .text$_ZNKSt3__16vectorI8ComputerNS_9allocatorIS1_EEE14__annotate_newB6v15007Ey CODE
 0001:0000fd70 00000007H .text$_ZNSt3__125__debug_db_invalidate_allB6v15007INS_6vectorI8ComputerNS_9allocatorIS2_EEEEEEvPT_ CODE
 0001:0000fd80 0000003fH .text$_ZNSt3__1neB6v15007IP8ComputerS2_EEbRKNS_16reverse_iteratorIT_EERKNS3_IT0_EE CODE
 0001:0000fdc0 0000002dH .text$_ZNSt3__116allocator_traitsINS_9allocatorI8ComputerEEE9constructB6v15007IS2_JS2_EvEEvRS3_PT_DpOT0_ CODE
 0001:0000fdf0 00000019H .text$_ZNSt3__112__to_addressB6v15007INS_16reverse_iteratorIP8ComputerEEvEENS_5decayIDTclsr19__to_address_helperIT_EE6__callcl7declvalIRKS6_EEEEE4typeES8_ CODE
 0001:0000fe10 00000027H .text$_ZNKSt3__116reverse_iteratorIP8ComputerEdeB6v15007Ev CODE
 0001:0000fe40 00000017H .text$_ZNSt3__116reverse_iteratorIP8ComputerEppB6v15007Ev CODE
 0001:0000fe60 00000037H .text$_ZNSt3__129_AllocatorDestroyRangeReverseINS_9allocatorI8ComputerEENS_16reverse_iteratorIPS2_EEEC1B6v15007ERS3_RS6_S9_ CODE
 0001:0000fea0 0000008eH .text$_ZNKSt3__129_AllocatorDestroyRangeReverseINS_9allocatorI8ComputerEENS_16reverse_iteratorIPS2_EEEclB6v15007Ev CODE
 0001:0000ff30 00000028H .text$_ZNSt3__19allocatorI8ComputerE9constructB6v15007IS1_JS1_EEEvPT_DpOT0_ CODE
 0001:0000ff60 00000023H .text$_ZN8ComputerC1EOS_ CODE
 0001:0000ff90 0000007fH .text$_ZN8ComputerC2EOS_ CODE
 0001:00010010 00000023H .text$_ZNSt3__16vectorI9ComponentNS_9allocatorIS1_EEEC1B6v15007EOS4_ CODE
 0001:00010040 000000f1H .text$_ZNSt3__16vectorI9ComponentNS_9allocatorIS1_EEEC2B6v15007EOS4_ CODE
 0001:00010140 00000012H .text$_ZNSt3__115__debug_db_swapB6v15007INS_6vectorI9ComponentNS_9allocatorIS2_EEEEEEvPT_S7_ CODE
 0001:00010160 00000036H .text$_ZNSt3__119__to_address_helperINS_16reverse_iteratorIP8ComputerEEvE6__callB6v15007ERKS4_ CODE
 0001:000101a0 00000019H .text$_ZNKSt3__116reverse_iteratorIP8ComputerEptB6v15007Ev CODE
 0001:000101c0 0000003aH .text$_ZNSt3__129_AllocatorDestroyRangeReverseINS_9allocatorI8ComputerEENS_16reverse_iteratorIPS2_EEEC2B6v15007ERS3_RS6_S9_ CODE
 0001:00010200 00000064H .text$_ZNSt3__119__allocator_destroyB6v15007INS_9allocatorI8ComputerEENS_16reverse_iteratorINS4_IPS2_EEEES7_EEvRT_T0_T1_ CODE
 0001:00010270 00000019H .text$_ZNSt3__116reverse_iteratorINS0_IP8ComputerEEEC1B6v15007ES3_ CODE
 0001:00010290 00000045H .text$_ZNSt3__1neB6v15007INS_16reverse_iteratorIP8ComputerEES4_EEbRKNS1_IT_EERKNS1_IT0_EE CODE
 0001:000102e0 00000019H .text$_ZNSt3__112__to_addressB6v15007INS_16reverse_iteratorINS1_IP8ComputerEEEEvEENS_5decayIDTclsr19__to_address_helperIT_EE6__callcl7declvalIRKS7_EEEEE4typeES9_ CODE
 0001:00010300 00000026H .text$_ZNSt3__116reverse_iteratorINS0_IP8ComputerEEEppB6v15007Ev CODE
 0001:00010330 00000028H .text$_ZNKSt3__116reverse_iteratorINS0_IP8ComputerEEE4baseB6v15007Ev CODE
 0001:00010360 00000036H .text$_ZNSt3__119__to_address_helperINS_16reverse_iteratorINS1_IP8ComputerEEEEvE6__callB6v15007ERKS5_ CODE
 0001:000103a0 00000019H .text$_ZNKSt3__116reverse_iteratorINS0_IP8ComputerEEEptB6v15007Ev CODE
 0001:000103c0 00000038H .text$_ZNKSt3__116reverse_iteratorINS0_IP8ComputerEEEdeB6v15007Ev CODE
 0001:00010400 00000017H .text$_ZNSt3__116reverse_iteratorIP8ComputerEmmB6v15007Ev CODE
 0001:00010420 00000029H .text$_ZNSt3__116reverse_iteratorINS0_IP8ComputerEEEC2B6v15007ES3_ CODE
 0001:00010450 00000026H .text$_ZNSt3__116reverse_iteratorIP8ComputerEC2B6v15007ES2_ CODE
 0001:00010480 00000075H .text$_ZNSt3__114__split_bufferI8ComputerRNS_9allocatorIS1_EEED2Ev CODE
 0001:00010500 0000001dH .text$_ZNSt3__114__split_bufferI8ComputerRNS_9allocatorIS1_EEE5clearB6v15007Ev CODE
 0001:00010520 00000035H .text$_ZNKSt3__114__split_bufferI8ComputerRNS_9allocatorIS1_EEE8capacityB6v15007Ev CODE
 0001:00010560 00000028H .text$_ZNSt3__114__split_bufferI8ComputerRNS_9allocatorIS1_EEE17__destruct_at_endB6v15007EPS1_ CODE
 0001:00010590 0000007eH .text$_ZNSt3__114__split_bufferI8ComputerRNS_9allocatorIS1_EEE17__destruct_at_endB6v15007EPS1_NS_17integral_constantIbLb0EEE CODE
 0001:00010610 0000001dH .text$_ZNKSt3__114__split_bufferI8ComputerRNS_9allocatorIS1_EEE9__end_capB6v15007Ev CODE
 0001:00010630 00000019H .text$_ZNKSt3__117__compressed_pairIP8ComputerRNS_9allocatorIS1_EEE5firstB6v15007Ev CODE
 0001:00010650 00000049H .text$_ZNSt3__113basic_ostreamIcNS_11char_traitsIcEEEC2B6v15007EPNS_15basic_streambufIcS2_EE CODE
 0001:000106a0 0000002dH .text$_ZNSt3__111__wrap_iterIP8ComputerEC1B6v15007EPKvS2_ CODE
 0001:000106d0 00000023H .text$_ZNSt3__111__wrap_iterIP8ComputerEC2B6v15007EPKvS2_ CODE
 0001:00010700 00000021H .text$_ZN6System3SetINS_7Uitypes10TMsgDlgBtnELS2_0ELS2_11EEC2Ev CODE
 0001:00010730 00000041H .text$_ZNSt3__1miB6v15007IPK8ComputerS3_EEDTmicldtfp_4baseEcldtfp0_4baseEERKNS_11__wrap_iterIT_EERKNS5_IT0_EE CODE
 0001:00010780 00000022H .text$_ZNKSt3__16vectorI8ComputerNS_9allocatorIS1_EEE6cbeginB6v15007Ev CODE
 0001:000107b0 00000063H .text$_ZNSt3__16vectorI8ComputerNS_9allocatorIS1_EEE17__destruct_at_endB6v15007EPS1_ CODE
 0001:00010820 00000036H .text$_ZNSt3__14moveB6v15007IP8ComputerS2_EET0_T_S4_S3_ CODE
 0001:00010860 00000012H .text$_ZNSt3__16vectorI8ComputerNS_9allocatorIS1_EEE27__invalidate_iterators_pastB6v15007EPS1_ CODE
 0001:00010880 0000000eH .text$_ZNKSt3__111__wrap_iterIPK8ComputerE4baseB6v15007Ev CODE
 0001:00010890 00000025H .text$_ZNKSt3__16vectorI8ComputerNS_9allocatorIS1_EEE5beginB6v15007Ev CODE
 0001:000108c0 0000002dH .text$_ZNSt3__111__wrap_iterIPK8ComputerEC1B6v15007EPKvS3_ CODE
 0001:000108f0 00000023H .text$_ZNSt3__111__wrap_iterIPK8ComputerEC2B6v15007EPKvS3_ CODE
 0001:00010920 000000b3H .text$_ZNKSt3__16vectorI8ComputerNS_9allocatorIS1_EEE17__annotate_shrinkB6v15007Ey CODE
 0001:000109e0 000000b3H .text$_ZNSt3__16__moveB6v15007INS_17_ClassicAlgPolicyEP8ComputerS3_S3_EENS_9enable_ifIXaaaasr21is_copy_constructibleIT0_EE5valuesr21is_copy_constructibleIT1_EE5valuesr21is_copy_constructibleIT2_EE5valueENS_4pairIS5_S7_EEE4typeES5_S6_S7_ CODE
 0001:00010aa0 0000008bH .text$_ZNSt3__111__move_implB6v15007INS_17_ClassicAlgPolicyEP8ComputerS3_S3_EENS_4pairIT0_T2_EES5_T1_S6_ CODE
 0001:00010b30 00000019H .text$_ZNSt3__113__unwrap_iterB6v15007IP8ComputerNS_18__unwrap_iter_implIS2_Lb1EEELi0EEEDTclsrT0_8__unwrapclsr3stdE7declvalIT_EEEES6_ CODE
 0001:00010b50 00000034H .text$_ZNSt3__19make_pairB6v15007IP8ComputerS2_EENS_4pairINS_18__unwrap_ref_decayIT_E4typeENS4_IT0_E4typeEEEOS5_OS8_ CODE
 0001:00010b90 0000003aH .text$_ZNSt3__113__rewrap_iterB6v15007IP8ComputerS2_NS_18__unwrap_iter_implIS2_Lb1EEEEET_S5_T0_ CODE
 0001:00010bd0 0000001bH .text$_ZNSt3__18_IterOpsINS_17_ClassicAlgPolicyEE11__iter_moveB6v15007IRP8ComputerEENS_9enable_ifIXsr12is_referenceIDTdeclsr3stdE7declvalIRT_EEEEE5valueEDTclsr3stdE4movedeclsr3stdE7declvalIS9_EEEEE4typeEOS8_ CODE
 0001:00010bf0 0000007fH .text$_ZN8ComputeraSEOS_ CODE
 0001:00010c70 00000001H .text$_ZNSt3__18_IterOpsINS_17_ClassicAlgPolicyEE25__validate_iter_referenceB6v15007IRP8ComputerEEvv CODE
 0001:00010c80 00000031H .text$_ZNSt3__16vectorI9ComponentNS_9allocatorIS1_EEEaSB6v15007EOS4_ CODE
 0001:00010cc0 00000031H .text$_ZNSt3__112basic_stringIcNS_11char_traitsIcEENS_9allocatorIcEEEaSB6v15007EOS5_ CODE
 0001:00010d00 000000b1H .text$_ZNSt3__16vectorI9ComponentNS_9allocatorIS1_EEE13__move_assignERS4_NS_17integral_constantIbLb1EEE CODE
 0001:00010dc0 00000087H .text$_ZNSt3__16vectorI9ComponentNS_9allocatorIS1_EEE13__vdeallocateEv CODE
 0001:00010e50 00000028H .text$_ZNSt3__16vectorI9ComponentNS_9allocatorIS1_EEE19__move_assign_allocB6v15007ERS4_ CODE
 0001:00010e80 00000037H .text$_ZNSt3__16vectorI9ComponentNS_9allocatorIS1_EEE19__move_assign_allocB6v15007ERS4_NS_17integral_constantIbLb1EEE CODE
 0001:00010ec0 000000dcH .text$_ZNSt3__112basic_stringIcNS_11char_traitsIcEENS_9allocatorIcEEE13__move_assignB6v15007ERS5_NS_17integral_constantIbLb1EEE CODE
 0001:00010fa0 0000002dH .text$_ZNSt3__116allocator_traitsINS_9allocatorIcEEE10deallocateB6v15007ERS2_Pcy CODE
 0001:00010fd0 00000019H .text$_ZNSt3__112basic_stringIcNS_11char_traitsIcEENS_9allocatorIcEEE7__allocB6v15007Ev CODE
 0001:00010ff0 00000023H .text$_ZNKSt3__112basic_stringIcNS_11char_traitsIcEENS_9allocatorIcEEE14__get_long_capB6v15007Ev CODE
 0001:00011020 00000028H .text$_ZNSt3__112basic_stringIcNS_11char_traitsIcEENS_9allocatorIcEEE19__move_assign_allocB6v15007ERS5_ CODE
 0001:00011050 0000003bH .text$_ZNSt3__19allocatorIcE10deallocateB6v15007EPcy CODE
 0001:00011090 00000019H .text$_ZNSt3__117__compressed_pairINS_12basic_stringIcNS_11char_traitsIcEENS_9allocatorIcEEE5__repES5_E6secondB6v15007Ev CODE
 0001:000110b0 0000000bH .text$_ZNSt3__122__compressed_pair_elemINS_9allocatorIcEELi1ELb1EE5__getB6v15007Ev CODE
 0001:000110c0 00000037H .text$_ZNSt3__112basic_stringIcNS_11char_traitsIcEENS_9allocatorIcEEE19__move_assign_allocB6v15007ERS5_NS_17integral_constantIbLb1EEE CODE
 0001:00011100 00000019H .text$_ZNSt3__118__unwrap_iter_implIP8ComputerLb1EE8__unwrapB6v15007ES2_ CODE
 0001:00011120 0000002dH .text$_ZNSt3__14pairIP8ComputerS2_EC1B6v15007IS2_S2_LPv0EEEOT_OT0_ CODE
 0001:00011150 00000032H .text$_ZNSt3__14pairIP8ComputerS2_EC2B6v15007IS2_S2_LPv0EEEOT_OT0_ CODE
 0001:00011190 00000055H .text$_ZNSt3__118__unwrap_iter_implIP8ComputerLb1EE8__rewrapB6v15007ES2_S2_ CODE
 0001:000111f0 00000326H .text                   CODE
 0001:00011520 00000023H .text$_ZN6System7Classes15TComponentClassC1EPNS_10TMetaClassE CODE
 0001:00011550 00000023H .text$_ZN6System7Classes15TComponentClassC2EPNS_10TMetaClassE CODE
 0001:00011580 0000001eH .text$_ZN6System15DelphiMetaClassINS_7Classes15TComponentClassEEC2EPNS_10TMetaClassE CODE
 0001:000115a0 00003ca6H .text                   CODE
 0001:00015250 000000d2H .text$_ZN6System8Sysutils11ERangeErrorC3ENS_13UnicodeStringE CODE
 0001:00015330 0000004cH .text$_ZN6System8Sysutils11ERangeErrorD0Ev CODE
 0001:00015380 0000005bH .text$_ZN6System8_CharLenIwEEiPKT_ CODE
 0001:000153e0 0000005bH .text$_ZN6System8_CharLenIDsEEiPKT_ CODE
 0001:00015440 00000023H .text$_ZN6System14AnsiStringBaseC2ILt0EEEONS_11AnsiStringTIXT_EEE CODE
 0001:00015470 0000002aH .text$_ZN6System13UnicodeStringC2ILt0EEERKNS_11AnsiStringTIXT_EEE CODE
 0001:000154a0 0000004dH .text$_ZNK6System14AnsiStringBase8CodePageEv CODE
 0001:000154f0 0000003aH .text$_ZNK6System14AnsiStringBaseixEi CODE
 0001:00015530 000000d2H .text$_ZN6System8Sysutils9EIntErrorC3ENS_13UnicodeStringE CODE
 0001:00015610 000000d2H .text$_ZN6System8Sysutils9EExternalC3ENS_13UnicodeStringE CODE
 0001:000156f0 0000004cH .text$_ZN6System8Sysutils9EIntErrorD0Ev CODE
 0001:00015740 0000004cH .text$_ZN6System8Sysutils9EExternalD0Ev CODE
 0001:00015790 00000f18H .text                   CODE
 0001:000166b0 0000000bH .text$_ZN6System15DelphiInterfaceINS_10IInterfaceEEadEv CODE
 0001:000166c0 0000004dH .text$_ZN6System15DelphiInterfaceINS_10IInterfaceEED2Ev CODE
 0001:00016710 00000029H .text$_ZNSt3__110lock_guardINS_5mutexEEC2B6v15007ERS1_ CODE
 0001:00016740 00000035H .text$_ZNSt3__113unordered_mapIPN6System7Typinfo9TTypeInfoEPSt9type_infoNS_4hashIS4_EENS_8equal_toIS4_EENS_9allocatorINS_4pairIKS4_S6_EEEEEC2B6v15007Ev CODE
 0001:00016780 00000019H .text$_ZNSt3__113unordered_mapIPN6System7Typinfo9TTypeInfoEPSt9type_infoNS_4hashIS4_EENS_8equal_toIS4_EENS_9allocatorINS_4pairIKS4_S6_EEEEED2B6v15007Ev CODE
 0001:000167a0 00000084H .text$_ZNSt3__113unordered_mapIPN6System7Typinfo9TTypeInfoEPSt9type_infoNS_4hashIS4_EENS_8equal_toIS4_EENS_9allocatorINS_4pairIKS4_S6_EEEEEixERSD_ CODE
 0001:00016830 0000004aH .text$_ZN6System11AnsiStringTILt65001EEC2ERKNS_13UnicodeStringE CODE
 0001:00016880 00000098H .text$_ZNK6System11AnsiStringTILt65001EEplERKS1_ CODE
 0001:00016920 0000004aH .text$_ZN6System11AnsiStringTILt65001EEC2EPKc CODE
 0001:00016970 00000030H .text$_ZN6System11AnsiStringTILt65001EEC2Ev CODE
 0001:000169a0 0000002cH .text$_ZN6System11AnsiStringTILt65001EEaSERKS1_ CODE
 0001:000169d0 00000019H .text$_ZN6System11AnsiStringTILt65001EED2Ev CODE
 0001:000169f0 00000030H .text$_ZN10__cxxabiv117__class_type_infoC2Ev CODE
 0001:00016a20 00000043H .text$_ZNK6System11AnsiStringTILt65001EE5c_strEv CODE
 0001:00016a70 0000001cH .text$_ZNSt3__110lock_guardINS_5mutexEED2B6v15007Ev CODE
 0001:00016a90 00000030H .text$_ZN10__cxxabiv116__shim_type_infoC2Ev CODE
 0001:00016ac0 00000083H .text$_ZNSt3__112__hash_tableINS_17__hash_value_typeIPN6System7Typinfo9TTypeInfoEPSt9type_infoEENS_22__unordered_map_hasherIS5_S8_NS_4hashIS5_EENS_8equal_toIS5_EELb1EEENS_21__unordered_map_equalIS5_S8_SD_SB_Lb1EEENS_9allocatorIS8_EEEC2Ev CODE
 0001:00016b50 00000007H .text$_ZNSt3__119__debug_db_insert_cB6v15007INS_13unordered_mapIPN6System7Typinfo9TTypeInfoEPSt9type_infoNS_4hashIS5_EENS_8equal_toIS5_EENS_9allocatorINS_4pairIKS5_S7_EEEEEEEEvPT_ CODE
 0001:00016b60 00000030H .text$_ZNSt3__110unique_ptrIA_PNS_16__hash_node_baseIPNS_11__hash_nodeINS_17__hash_value_typeIPN6System7Typinfo9TTypeInfoEPSt9type_infoEEPvEEEENS_25__bucket_list_deallocatorINS_9allocatorISF_EEEEEC2B6v15007ILb1EvEEv CODE
 0001:00016b90 00000030H .text$_ZNSt3__117__compressed_pairINS_16__hash_node_baseIPNS_11__hash_nodeINS_17__hash_value_typeIPN6System7Typinfo9TTypeInfoEPSt9type_infoEEPvEEEENS_9allocatorISC_EEEC2B6v15007ILb1EvEEv CODE
 0001:00016bc0 0000003bH .text$_ZNSt3__117__compressed_pairIyNS_22__unordered_map_hasherIPN6System7Typinfo9TTypeInfoENS_17__hash_value_typeIS5_PSt9type_infoEENS_4hashIS5_EENS_8equal_toIS5_EELb1EEEEC2B6v15007IiNS_18__default_init_tagEEEOT_OT0_ CODE
 0001:00016c00 0000003bH .text$_ZNSt3__117__compressed_pairIfNS_21__unordered_map_equalIPN6System7Typinfo9TTypeInfoENS_17__hash_value_typeIS5_PSt9type_infoEENS_8equal_toIS5_EENS_4hashIS5_EELb1EEEEC2B6v15007IfNS_18__default_init_tagEEEOT_OT0_ CODE
 0001:00016c40 0000003eH .text$_ZNSt3__117__compressed_pairIPPNS_16__hash_node_baseIPNS_11__hash_nodeINS_17__hash_value_typeIPN6System7Typinfo9TTypeInfoEPSt9type_infoEEPvEEEENS_25__bucket_list_deallocatorINS_9allocatorISF_EEEEEC2B6v15007INS_16__value_init_tagESN_EEOT_OT0_ CODE
 0001:00016c80 0000001cH .text$_ZNSt3__122__compressed_pair_elemIPPNS_16__hash_node_baseIPNS_11__hash_nodeINS_17__hash_value_typeIPN6System7Typinfo9TTypeInfoEPSt9type_infoEEPvEEEELi0ELb0EEC2B6v15007ENS_16__value_init_tagE CODE
 0001:00016ca0 0000001dH .text$_ZNSt3__122__compressed_pair_elemINS_25__bucket_list_deallocatorINS_9allocatorIPNS_16__hash_node_baseIPNS_11__hash_nodeINS_17__hash_value_typeIPN6System7Typinfo9TTypeInfoEPSt9type_infoEEPvEEEEEEEELi1ELb0EEC2B6v15007ENS_16__value_init_tagE CODE
 0001:00016cc0 00000038H .text$_ZNSt3__125__bucket_list_deallocatorINS_9allocatorIPNS_16__hash_node_baseIPNS_11__hash_nodeINS_17__hash_value_typeIPN6System7Typinfo9TTypeInfoEPSt9type_infoEEPvEEEEEEEC2B6v15007Ev CODE
 0001:00016d00 0000003bH .text$_ZNSt3__117__compressed_pairIyNS_9allocatorIPNS_16__hash_node_baseIPNS_11__hash_nodeINS_17__hash_value_typeIPN6System7Typinfo9TTypeInfoEPSt9type_infoEEPvEEEEEEEC2B6v15007IiNS_18__default_init_tagEEEOT_OT0_ CODE
 0001:00016d40 00000021H .text$_ZNSt3__122__compressed_pair_elemIyLi0ELb0EEC2B6v15007IivEEOT_ CODE
 0001:00016d70 0000001dH .text$_ZNSt3__122__compressed_pair_elemINS_9allocatorIPNS_16__hash_node_baseIPNS_11__hash_nodeINS_17__hash_value_typeIPN6System7Typinfo9TTypeInfoEPSt9type_infoEEPvEEEEEELi1ELb1EEC2B6v15007ENS_18__default_init_tagE CODE
 0001:00016d90 00000019H .text$_ZNSt3__19allocatorIPNS_16__hash_node_baseIPNS_11__hash_nodeINS_17__hash_value_typeIPN6System7Typinfo9TTypeInfoEPSt9type_infoEEPvEEEEEC2B6v15007Ev CODE
 0001:00016db0 00000007H .text$_ZNSt3__116__non_trivial_ifILb1ENS_9allocatorIPNS_16__hash_node_baseIPNS_11__hash_nodeINS_17__hash_value_typeIPN6System7Typinfo9TTypeInfoEPSt9type_infoEEPvEEEEEEEC2B6v15007Ev CODE
 0001:00016dc0 0000001dH .text$_ZNSt3__122__compressed_pair_elemINS_16__hash_node_baseIPNS_11__hash_nodeINS_17__hash_value_typeIPN6System7Typinfo9TTypeInfoEPSt9type_infoEEPvEEEELi0ELb0EEC2B6v15007ENS_16__value_init_tagE CODE
 0001:00016de0 0000001dH .text$_ZNSt3__122__compressed_pair_elemINS_9allocatorINS_11__hash_nodeINS_17__hash_value_typeIPN6System7Typinfo9TTypeInfoEPSt9type_infoEEPvEEEELi1ELb1EEC2B6v15007ENS_16__value_init_tagE CODE
 0001:00016e00 00000012H .text$_ZNSt3__116__hash_node_baseIPNS_11__hash_nodeINS_17__hash_value_typeIPN6System7Typinfo9TTypeInfoEPSt9type_infoEEPvEEEC2B6v15007Ev CODE
 0001:00016e20 00000019H .text$_ZNSt3__19allocatorINS_11__hash_nodeINS_17__hash_value_typeIPN6System7Typinfo9TTypeInfoEPSt9type_infoEEPvEEEC2B6v15007Ev CODE
 0001:00016e40 00000007H .text$_ZNSt3__116__non_trivial_ifILb1ENS_9allocatorINS_11__hash_nodeINS_17__hash_value_typeIPN6System7Typinfo9TTypeInfoEPSt9type_infoEEPvEEEEEC2B6v15007Ev CODE
 0001:00016e50 0000001dH .text$_ZNSt3__122__compressed_pair_elemINS_22__unordered_map_hasherIPN6System7Typinfo9TTypeInfoENS_17__hash_value_typeIS5_PSt9type_infoEENS_4hashIS5_EENS_8equal_toIS5_EELb1EEELi1ELb1EEC2B6v15007ENS_18__default_init_tagE CODE
 0001:00016e70 00000007H .text$_ZNSt3__122__unordered_map_hasherIPN6System7Typinfo9TTypeInfoENS_17__hash_value_typeIS4_PSt9type_infoEENS_4hashIS4_EENS_8equal_toIS4_EELb1EEC2B6v15007Ev CODE
 0001:00016e80 00000023H .text$_ZNSt3__122__compressed_pair_elemIfLi0ELb0EEC2B6v15007IfvEEOT_ CODE
 0001:00016eb0 0000001dH .text$_ZNSt3__122__compressed_pair_elemINS_21__unordered_map_equalIPN6System7Typinfo9TTypeInfoENS_17__hash_value_typeIS5_PSt9type_infoEENS_8equal_toIS5_EENS_4hashIS5_EELb1EEELi1ELb1EEC2B6v15007ENS_18__default_init_tagE CODE
 0001:00016ed0 00000007H .text$_ZNSt3__121__unordered_map_equalIPN6System7Typinfo9TTypeInfoENS_17__hash_value_typeIS4_PSt9type_infoEENS_8equal_toIS4_EENS_4hashIS4_EELb1EEC2B6v15007Ev CODE
 0001:00016ee0 00000051H .text$_ZNSt3__112__hash_tableINS_17__hash_value_typeIPN6System7Typinfo9TTypeInfoEPSt9type_infoEENS_22__unordered_map_hasherIS5_S8_NS_4hashIS5_EENS_8equal_toIS5_EELb1EEENS_21__unordered_map_equalIS5_S8_SD_SB_Lb1EEENS_9allocatorIS8_EEED2Ev CODE
 0001:00016f40 000000adH .text$_ZNSt3__112__hash_tableINS_17__hash_value_typeIPN6System7Typinfo9TTypeInfoEPSt9type_infoEENS_22__unordered_map_hasherIS5_S8_NS_4hashIS5_EENS_8equal_toIS5_EELb1EEENS_21__unordered_map_equalIS5_S8_SD_SB_Lb1EEENS_9allocatorIS8_EEE17__deallocate_nodeEPNS_16__hash_node_baseIPNS_11__hash_nodeIS8_PvEEEE CODE
 0001:00016ff0 00000019H .text$_ZNSt3__117__compressed_pairINS_16__hash_node_baseIPNS_11__hash_nodeINS_17__hash_value_typeIPN6System7Typinfo9TTypeInfoEPSt9type_infoEEPvEEEENS_9allocatorISC_EEE5firstB6v15007Ev CODE
 0001:00017010 00000007H .text$_ZNSt3__118__debug_db_erase_cB6v15007INS_12__hash_tableINS_17__hash_value_typeIPN6System7Typinfo9TTypeInfoEPSt9type_infoEENS_22__unordered_map_hasherIS6_S9_NS_4hashIS6_EENS_8equal_toIS6_EELb1EEENS_21__unordered_map_equalIS6_S9_SE_SC_Lb1EEENS_9allocatorIS9_EEEEEEvPT_ CODE
 0001:00017020 0000001dH .text$_ZNSt3__110unique_ptrIA_PNS_16__hash_node_baseIPNS_11__hash_nodeINS_17__hash_value_typeIPN6System7Typinfo9TTypeInfoEPSt9type_infoEEPvEEEENS_25__bucket_list_deallocatorINS_9allocatorISF_EEEEED2B6v15007Ev CODE
 0001:00017040 0000001dH .text$_ZNSt3__112__hash_tableINS_17__hash_value_typeIPN6System7Typinfo9TTypeInfoEPSt9type_infoEENS_22__unordered_map_hasherIS5_S8_NS_4hashIS5_EENS_8equal_toIS5_EELb1EEENS_21__unordered_map_equalIS5_S8_SD_SB_Lb1EEENS_9allocatorIS8_EEE12__node_allocB6v15007Ev CODE
 0001:00017060 00000019H .text$_ZNSt3__116__hash_node_baseIPNS_11__hash_nodeINS_17__hash_value_typeIPN6System7Typinfo9TTypeInfoEPSt9type_infoEEPvEEE8__upcastB6v15007Ev CODE
 0001:00017080 00000012H .text$_ZNSt3__116allocator_traitsINS_9allocatorINS_11__hash_nodeINS_17__hash_value_typeIPN6System7Typinfo9TTypeInfoEPSt9type_infoEEPvEEEEE7destroyB6v15007INS_4pairIKS7_S9_EEvvEEvRSD_PT_ CODE
 0001:000170a0 00000019H .text$_ZNSt3__122__hash_key_value_typesINS_17__hash_value_typeIPN6System7Typinfo9TTypeInfoEPSt9type_infoEEE9__get_ptrB6v15007ERS8_ CODE
 0001:000170c0 0000002dH .text$_ZNSt3__116allocator_traitsINS_9allocatorINS_11__hash_nodeINS_17__hash_value_typeIPN6System7Typinfo9TTypeInfoEPSt9type_infoEEPvEEEEE10deallocateB6v15007ERSD_PSC_y CODE
 0001:000170f0 00000019H .text$_ZNSt3__117__compressed_pairINS_16__hash_node_baseIPNS_11__hash_nodeINS_17__hash_value_typeIPN6System7Typinfo9TTypeInfoEPSt9type_infoEEPvEEEENS_9allocatorISC_EEE6secondB6v15007Ev CODE
 0001:00017110 0000000bH .text$_ZNSt3__122__compressed_pair_elemINS_9allocatorINS_11__hash_nodeINS_17__hash_value_typeIPN6System7Typinfo9TTypeInfoEPSt9type_infoEEPvEEEELi1ELb1EE5__getB6v15007Ev CODE
 0001:00017120 0000000bH .text$_ZNSt3__114pointer_traitsIPNS_16__hash_node_baseIPNS_11__hash_nodeINS_17__hash_value_typeIPN6System7Typinfo9TTypeInfoEPSt9type_infoEEPvEEEEE10pointer_toB6v15007ERSE_ CODE
 0001:00017130 00000019H .text$_ZNSt3__117__hash_value_typeIPN6System7Typinfo9TTypeInfoEPSt9type_infoE11__get_valueB6v15007Ev CODE
 0001:00017150 00000019H .text$_ZNSt3__17launderB6v15007INS_4pairIKPN6System7Typinfo9TTypeInfoEPSt9type_infoEEEEPT_SB_ CODE
 0001:00017170 0000000bH .text$_ZNSt3__19__launderB6v15007INS_4pairIKPN6System7Typinfo9TTypeInfoEPSt9type_infoEEEEPT_SB_ CODE
 0001:00017180 0000003fH .text$_ZNSt3__19allocatorINS_11__hash_nodeINS_17__hash_value_typeIPN6System7Typinfo9TTypeInfoEPSt9type_infoEEPvEEE10deallocateB6v15007EPSB_y CODE
 0001:000171c0 0000000bH .text$_ZNSt3__122__compressed_pair_elemINS_16__hash_node_baseIPNS_11__hash_nodeINS_17__hash_value_typeIPN6System7Typinfo9TTypeInfoEPSt9type_infoEEPvEEEELi0ELb0EE5__getB6v15007Ev CODE
 0001:000171d0 0000005fH .text$_ZNSt3__110unique_ptrIA_PNS_16__hash_node_baseIPNS_11__hash_nodeINS_17__hash_value_typeIPN6System7Typinfo9TTypeInfoEPSt9type_infoEEPvEEEENS_25__bucket_list_deallocatorINS_9allocatorISF_EEEEE5resetB6v15007EDn CODE
 0001:00017230 00000019H .text$_ZNSt3__117__compressed_pairIPPNS_16__hash_node_baseIPNS_11__hash_nodeINS_17__hash_value_typeIPN6System7Typinfo9TTypeInfoEPSt9type_infoEEPvEEEENS_25__bucket_list_deallocatorINS_9allocatorISF_EEEEE5firstB6v15007Ev CODE
 0001:00017250 0000001dH .text$_ZNSt3__117__compressed_pairIPPNS_16__hash_node_baseIPNS_11__hash_nodeINS_17__hash_value_typeIPN6System7Typinfo9TTypeInfoEPSt9type_infoEEPvEEEENS_25__bucket_list_deallocatorINS_9allocatorISF_EEEEE6secondB6v15007Ev CODE
 0001:00017270 0000004eH .text$_ZNSt3__125__bucket_list_deallocatorINS_9allocatorIPNS_16__hash_node_baseIPNS_11__hash_nodeINS_17__hash_value_typeIPN6System7Typinfo9TTypeInfoEPSt9type_infoEEPvEEEEEEEclB6v15007EPSG_ CODE
 0001:000172c0 0000000bH .text$_ZNSt3__122__compressed_pair_elemIPPNS_16__hash_node_baseIPNS_11__hash_nodeINS_17__hash_value_typeIPN6System7Typinfo9TTypeInfoEPSt9type_infoEEPvEEEELi0ELb0EE5__getB6v15007Ev CODE
 0001:000172d0 0000000bH .text$_ZNSt3__122__compressed_pair_elemINS_25__bucket_list_deallocatorINS_9allocatorIPNS_16__hash_node_baseIPNS_11__hash_nodeINS_17__hash_value_typeIPN6System7Typinfo9TTypeInfoEPSt9type_infoEEPvEEEEEEEELi1ELb0EE5__getB6v15007Ev CODE
 0001:000172e0 0000002dH .text$_ZNSt3__116allocator_traitsINS_9allocatorIPNS_16__hash_node_baseIPNS_11__hash_nodeINS_17__hash_value_typeIPN6System7Typinfo9TTypeInfoEPSt9type_infoEEPvEEEEEEE10deallocateB6v15007ERSH_PSG_y CODE
 0001:00017310 00000019H .text$_ZNSt3__125__bucket_list_deallocatorINS_9allocatorIPNS_16__hash_node_baseIPNS_11__hash_nodeINS_17__hash_value_typeIPN6System7Typinfo9TTypeInfoEPSt9type_infoEEPvEEEEEEE7__allocB6v15007Ev CODE
 0001:00017330 00000019H .text$_ZNSt3__125__bucket_list_deallocatorINS_9allocatorIPNS_16__hash_node_baseIPNS_11__hash_nodeINS_17__hash_value_typeIPN6System7Typinfo9TTypeInfoEPSt9type_infoEEPvEEEEEEE4sizeB6v15007Ev CODE
 0001:00017350 0000003fH .text$_ZNSt3__19allocatorIPNS_16__hash_node_baseIPNS_11__hash_nodeINS_17__hash_value_typeIPN6System7Typinfo9TTypeInfoEPSt9type_infoEEPvEEEEE10deallocateB6v15007EPSF_y CODE
 0001:00017390 00000019H .text$_ZNSt3__117__compressed_pairIyNS_9allocatorIPNS_16__hash_node_baseIPNS_11__hash_nodeINS_17__hash_value_typeIPN6System7Typinfo9TTypeInfoEPSt9type_infoEEPvEEEEEEE6secondB6v15007Ev CODE
 0001:000173b0 0000000bH .text$_ZNSt3__122__compressed_pair_elemINS_9allocatorIPNS_16__hash_node_baseIPNS_11__hash_nodeINS_17__hash_value_typeIPN6System7Typinfo9TTypeInfoEPSt9type_infoEEPvEEEEEELi1ELb1EE5__getB6v15007Ev CODE
 0001:000173c0 00000019H .text$_ZNSt3__117__compressed_pairIyNS_9allocatorIPNS_16__hash_node_baseIPNS_11__hash_nodeINS_17__hash_value_typeIPN6System7Typinfo9TTypeInfoEPSt9type_infoEEPvEEEEEEE5firstB6v15007Ev CODE
 0001:000173e0 0000000bH .text$_ZNSt3__122__compressed_pair_elemIyLi0ELb0EE5__getB6v15007Ev CODE
 0001:000173f0 0000076cH .text$_ZNSt3__112__hash_tableINS_17__hash_value_typeIPN6System7Typinfo9TTypeInfoEPSt9type_infoEENS_22__unordered_map_hasherIS5_S8_NS_4hashIS5_EENS_8equal_toIS5_EELb1EEENS_21__unordered_map_equalIS5_S8_SD_SB_Lb1EEENS_9allocatorIS8_EEE25__emplace_unique_key_argsIS5_JRKNS_21piecewise_construct_tENS_5tupleIJRKS5_EEENSO_IJEEEEEENS_4pairINS_15__hash_iteratorIPNS_11__hash_nodeIS8_PvEEEEbEERKT_DpOT0_ CODE
 0001:00017b60 00000022H .text$_ZNSt3__116forward_as_tupleB6v15007IJRKPN6System7Typinfo9TTypeInfoEEEENS_5tupleIJDpOT_EEESA_ CODE
 0001:00017b90 00000006H .text$_ZNSt3__116forward_as_tupleB6v15007IJEEENS_5tupleIJDpOT_EEES4_ CODE
 0001:00017ba0 00000028H .text$_ZNKSt3__115__hash_iteratorIPNS_11__hash_nodeINS_17__hash_value_typeIPN6System7Typinfo9TTypeInfoEPSt9type_infoEEPvEEEptB6v15007Ev CODE
 0001:00017bd0 0000001dH .text$_ZNSt3__112__hash_tableINS_17__hash_value_typeIPN6System7Typinfo9TTypeInfoEPSt9type_infoEENS_22__unordered_map_hasherIS5_S8_NS_4hashIS5_EENS_8equal_toIS5_EELb1EEENS_21__unordered_map_equalIS5_S8_SD_SB_Lb1EEENS_9allocatorIS8_EEE13hash_functionB6v15007Ev CODE
 0001:00017bf0 00000026H .text$_ZNKSt3__122__unordered_map_hasherIPN6System7Typinfo9TTypeInfoENS_17__hash_value_typeIS4_PSt9type_infoEENS_4hashIS4_EENS_8equal_toIS4_EELb1EEclB6v15007ERKS4_ CODE
 0001:00017c20 00000021H .text$_ZNKSt3__112__hash_tableINS_17__hash_value_typeIPN6System7Typinfo9TTypeInfoEPSt9type_infoEENS_22__unordered_map_hasherIS5_S8_NS_4hashIS5_EENS_8equal_toIS5_EELb1EEENS_21__unordered_map_equalIS5_S8_SD_SB_Lb1EEENS_9allocatorIS8_EEE12bucket_countB6v15007Ev CODE
 0001:00017c50 00000087H .text$_ZNSt3__116__constrain_hashB6v15007Eyy CODE
 0001:00017ce0 0000002cH .text$_ZNKSt3__110unique_ptrIA_PNS_16__hash_node_baseIPNS_11__hash_nodeINS_17__hash_value_typeIPN6System7Typinfo9TTypeInfoEPSt9type_infoEEPvEEEENS_25__bucket_list_deallocatorINS_9allocatorISF_EEEEEixB6v15007Ey CODE
 0001:00017d10 0000000fH .text$_ZNKSt3__116__hash_node_baseIPNS_11__hash_nodeINS_17__hash_value_typeIPN6System7Typinfo9TTypeInfoEPSt9type_infoEEPvEEE6__hashB6v15007Ev CODE
 0001:00017d20 0000001dH .text$_ZNSt3__112__hash_tableINS_17__hash_value_typeIPN6System7Typinfo9TTypeInfoEPSt9type_infoEENS_22__unordered_map_hasherIS5_S8_NS_4hashIS5_EENS_8equal_toIS5_EELb1EEENS_21__unordered_map_equalIS5_S8_SD_SB_Lb1EEENS_9allocatorIS8_EEE6key_eqB6v15007Ev CODE
 0001:00017d40 00000043H .text$_ZNKSt3__121__unordered_map_equalIPN6System7Typinfo9TTypeInfoENS_17__hash_value_typeIS4_PSt9type_infoEENS_8equal_toIS4_EENS_4hashIS4_EELb1EEclB6v15007ERKS8_RKS4_ CODE
 0001:00017d90 000001a9H .text$_ZNSt3__112__hash_tableINS_17__hash_value_typeIPN6System7Typinfo9TTypeInfoEPSt9type_infoEENS_22__unordered_map_hasherIS5_S8_NS_4hashIS5_EENS_8equal_toIS5_EELb1EEENS_21__unordered_map_equalIS5_S8_SD_SB_Lb1EEENS_9allocatorIS8_EEE21__construct_node_hashIRKNS_21piecewise_construct_tEJNS_5tupleIJRKS5_EEENSO_IJEEEEEENS_10unique_ptrINS_11__hash_nodeIS8_PvEENS_22__hash_node_destructorINSH_ISW_EEEEEEyOT_DpOT0_ CODE
 0001:00017f40 0000001dH .text$_ZNSt3__112__hash_tableINS_17__hash_value_typeIPN6System7Typinfo9TTypeInfoEPSt9type_infoEENS_22__unordered_map_hasherIS5_S8_NS_4hashIS5_EENS_8equal_toIS5_EELb1EEENS_21__unordered_map_equalIS5_S8_SD_SB_Lb1EEENS_9allocatorIS8_EEE4sizeB6v15007Ev CODE
 0001:00017f60 0000001dH .text$_ZNSt3__112__hash_tableINS_17__hash_value_typeIPN6System7Typinfo9TTypeInfoEPSt9type_infoEENS_22__unordered_map_hasherIS5_S8_NS_4hashIS5_EENS_8equal_toIS5_EELb1EEENS_21__unordered_map_equalIS5_S8_SD_SB_Lb1EEENS_9allocatorIS8_EEE15max_load_factorB6v15007Ev CODE
 0001:00017f80 00000023H .text$_ZNSt3__112__hash_tableINS_17__hash_value_typeIPN6System7Typinfo9TTypeInfoEPSt9type_infoEENS_22__unordered_map_hasherIS5_S8_NS_4hashIS5_EENS_8equal_toIS5_EELb1EEENS_21__unordered_map_equalIS5_S8_SD_SB_Lb1EEENS_9allocatorIS8_EEE15__rehash_uniqueB6v15007Ey CODE
 0001:00017fb0 00000047H .text$_ZNSt3__116__is_hash_power2B6v15007Ey CODE
 0001:00018000 0000001bH .text$_Z4ceilB6v15007f  CODE
 0001:00018020 00000019H .text$_ZNSt3__116__hash_node_baseIPNS_11__hash_nodeINS_17__hash_value_typeIPN6System7Typinfo9TTypeInfoEPSt9type_infoEEPvEEE5__ptrB6v15007Ev CODE
 0001:00018040 0000001bH .text$_ZNKSt3__110unique_ptrINS_11__hash_nodeINS_17__hash_value_typeIPN6System7Typinfo9TTypeInfoEPSt9type_infoEEPvEENS_22__hash_node_destructorINS_9allocatorISB_EEEEEptB6v15007Ev CODE
 0001:00018060 0000001bH .text$_ZNKSt3__110unique_ptrINS_11__hash_nodeINS_17__hash_value_typeIPN6System7Typinfo9TTypeInfoEPSt9type_infoEEPvEENS_22__hash_node_destructorINS_9allocatorISB_EEEEE3getB6v15007Ev CODE
 0001:00018080 0000003bH .text$_ZNSt3__110unique_ptrINS_11__hash_nodeINS_17__hash_value_typeIPN6System7Typinfo9TTypeInfoEPSt9type_infoEEPvEENS_22__hash_node_destructorINS_9allocatorISB_EEEEE7releaseB6v15007Ev CODE
 0001:000180c0 0000001dH .text$_ZNSt3__110unique_ptrINS_11__hash_nodeINS_17__hash_value_typeIPN6System7Typinfo9TTypeInfoEPSt9type_infoEEPvEENS_22__hash_node_destructorINS_9allocatorISB_EEEEED2B6v15007Ev CODE
 0001:000180e0 00000024H .text$_ZNSt3__115__hash_iteratorIPNS_11__hash_nodeINS_17__hash_value_typeIPN6System7Typinfo9TTypeInfoEPSt9type_infoEEPvEEEC2B6v15007EPNS_16__hash_node_baseISC_EEPKv CODE
 0001:00018110 00000033H .text$_ZNSt3__14pairINS_15__hash_iteratorIPNS_11__hash_nodeINS_17__hash_value_typeIPN6System7Typinfo9TTypeInfoEPSt9type_infoEEPvEEEEbEC2B6v15007ISE_RbLSB_0EEEOT_OT0_ CODE
 0001:00018150 00000019H .text$_ZNSt3__117__compressed_pairIyNS_22__unordered_map_hasherIPN6System7Typinfo9TTypeInfoENS_17__hash_value_typeIS5_PSt9type_infoEENS_4hashIS5_EENS_8equal_toIS5_EELb1EEEE6secondB6v15007Ev CODE
 0001:00018170 0000000bH .text$_ZNSt3__122__compressed_pair_elemINS_22__unordered_map_hasherIPN6System7Typinfo9TTypeInfoENS_17__hash_value_typeIS5_PSt9type_infoEENS_4hashIS5_EENS_8equal_toIS5_EELb1EEELi1ELb1EE5__getB6v15007Ev CODE
 0001:00018180 0000004aH .text$_ZNKSt3__14hashIPN6System7Typinfo9TTypeInfoEEclB6v15007ES4_ CODE
 0001:000181d0 00000501H .text$_ZNSt3__121__murmur2_or_cityhashIyLy64EEclEPKvy CODE
 0001:000186e0 0000019dH .text$_ZNSt3__121__murmur2_or_cityhashIyLy64EE18__hash_len_0_to_16EPKcy CODE
 0001:00018880 0000010cH .text$_ZNSt3__121__murmur2_or_cityhashIyLy64EE19__hash_len_17_to_32EPKcy CODE
 0001:00018990 00000339H .text$_ZNSt3__121__murmur2_or_cityhashIyLy64EE19__hash_len_33_to_64EPKcy CODE
 0001:00018cd0 0000001eH .text$_ZNSt3__110__loadwordB6v15007IyEET_PKv CODE
 0001:00018cf0 00000095H .text$_ZNSt3__121__murmur2_or_cityhashIyLy64EE13__hash_len_16Eyy CODE
 0001:00018d90 000000b0H .text$_ZNSt3__121__murmur2_or_cityhashIyLy64EE29__weak_hash_len_32_with_seedsEPKcyy CODE
 0001:00018e40 00000058H .text$_ZNSt3__121__murmur2_or_cityhashIyLy64EE8__rotateEyi CODE
 0001:00018ea0 0000002dH .text$_ZNSt3__14pairIyyEaSB6v15007EOS1_ CODE
 0001:00018ed0 0000003bH .text$_ZNSt3__14swapB6v15007IyEENS_9enable_ifIXaasr21is_move_constructibleIT_EE5valuesr18is_move_assignableIS2_EE5valueEvE4typeERS2_S5_ CODE
 0001:00018f10 00000016H .text$_ZNSt3__121__murmur2_or_cityhashIyLy64EE11__shift_mixEy CODE
 0001:00018f30 00000037H .text$_ZNSt3__121__murmur2_or_cityhashIyLy64EE22__rotate_by_at_least_1Eyi CODE
 0001:00018f70 0000001dH .text$_ZNSt3__110__loadwordB6v15007IjEET_PKv CODE
 0001:00018f90 0000011aH .text$_ZNSt3__121__murmur2_or_cityhashIyLy64EE29__weak_hash_len_32_with_seedsEyyyyyy CODE
 0001:000190b0 00000032H .text$_ZNSt3__14pairIyyEC2B6v15007IyyLPv0EEEOT_OT0_ CODE
 0001:000190f0 00000019H .text$_ZNKSt3__110unique_ptrIA_PNS_16__hash_node_baseIPNS_11__hash_nodeINS_17__hash_value_typeIPN6System7Typinfo9TTypeInfoEPSt9type_infoEEPvEEEENS_25__bucket_list_deallocatorINS_9allocatorISF_EEEEE11get_deleterB6v15007Ev CODE
 0001:00019110 0000001bH .text$_ZNKSt3__125__bucket_list_deallocatorINS_9allocatorIPNS_16__hash_node_baseIPNS_11__hash_nodeINS_17__hash_value_typeIPN6System7Typinfo9TTypeInfoEPSt9type_infoEEPvEEEEEEE4sizeB6v15007Ev CODE
 0001:00019130 0000001dH .text$_ZNKSt3__117__compressed_pairIPPNS_16__hash_node_baseIPNS_11__hash_nodeINS_17__hash_value_typeIPN6System7Typinfo9TTypeInfoEPSt9type_infoEEPvEEEENS_25__bucket_list_deallocatorINS_9allocatorISF_EEEEE6secondB6v15007Ev CODE
 0001:00019150 0000000bH .text$_ZNKSt3__122__compressed_pair_elemINS_25__bucket_list_deallocatorINS_9allocatorIPNS_16__hash_node_baseIPNS_11__hash_nodeINS_17__hash_value_typeIPN6System7Typinfo9TTypeInfoEPSt9type_infoEEPvEEEEEEEELi1ELb0EE5__getB6v15007Ev CODE
 0001:00019160 00000019H .text$_ZNKSt3__117__compressed_pairIyNS_9allocatorIPNS_16__hash_node_baseIPNS_11__hash_nodeINS_17__hash_value_typeIPN6System7Typinfo9TTypeInfoEPSt9type_infoEEPvEEEEEEE5firstB6v15007Ev CODE
 0001:00019180 0000000bH .text$_ZNKSt3__122__compressed_pair_elemIyLi0ELb0EE5__getB6v15007Ev CODE
 0001:00019190 00000019H .text$_ZNKSt3__117__compressed_pairIPPNS_16__hash_node_baseIPNS_11__hash_nodeINS_17__hash_value_typeIPN6System7Typinfo9TTypeInfoEPSt9type_infoEEPvEEEENS_25__bucket_list_deallocatorINS_9allocatorISF_EEEEE5firstB6v15007Ev CODE
 0001:000191b0 0000000bH .text$_ZNKSt3__122__compressed_pair_elemIPPNS_16__hash_node_baseIPNS_11__hash_nodeINS_17__hash_value_typeIPN6System7Typinfo9TTypeInfoEPSt9type_infoEEPvEEEELi0ELb0EE5__getB6v15007Ev CODE
 0001:000191c0 00000019H .text$_ZNSt3__117__compressed_pairIfNS_21__unordered_map_equalIPN6System7Typinfo9TTypeInfoENS_17__hash_value_typeIS5_PSt9type_infoEENS_8equal_toIS5_EENS_4hashIS5_EELb1EEEE6secondB6v15007Ev CODE
 0001:000191e0 0000000bH .text$_ZNSt3__122__compressed_pair_elemINS_21__unordered_map_equalIPN6System7Typinfo9TTypeInfoENS_17__hash_value_typeIS5_PSt9type_infoEENS_8equal_toIS5_EENS_4hashIS5_EELb1EEELi1ELb1EE5__getB6v15007Ev CODE
 0001:000191f0 0000002eH .text$_ZNKSt3__18equal_toIPN6System7Typinfo9TTypeInfoEEclB6v15007ERKS4_S7_ CODE
 0001:00019220 00000019H .text$_ZNKSt3__117__hash_value_typeIPN6System7Typinfo9TTypeInfoEPSt9type_infoE11__get_valueB6v15007Ev CODE
 0001:00019240 00000019H .text$_ZNSt3__17launderB6v15007IKNS_4pairIKPN6System7Typinfo9TTypeInfoEPSt9type_infoEEEEPT_SC_ CODE
 0001:00019260 0000000bH .text$_ZNSt3__19__launderB6v15007IKNS_4pairIKPN6System7Typinfo9TTypeInfoEPSt9type_infoEEEEPT_SC_ CODE
 0001:00019270 00000023H .text$_ZNSt3__116allocator_traitsINS_9allocatorINS_11__hash_nodeINS_17__hash_value_typeIPN6System7Typinfo9TTypeInfoEPSt9type_infoEEPvEEEEE8allocateB6v15007ERSD_y CODE
 0001:000192a0 00000033H .text$_ZNSt3__122__hash_node_destructorINS_9allocatorINS_11__hash_nodeINS_17__hash_value_typeIPN6System7Typinfo9TTypeInfoEPSt9type_infoEEPvEEEEEC2B6v15007ERSD_b CODE
 0001:000192e0 0000003aH .text$_ZNSt3__110unique_ptrINS_11__hash_nodeINS_17__hash_value_typeIPN6System7Typinfo9TTypeInfoEPSt9type_infoEEPvEENS_22__hash_node_destructorINS_9allocatorISB_EEEEEC2B6v15007ILb1EvEEPSB_NS_16__dependent_typeINS_27__unique_ptr_deleter_sfinaeISF_EEXT_EE20__good_rval_ref_typeE CODE
 0001:00019320 00000046H .text$_ZNSt3__116allocator_traitsINS_9allocatorINS_11__hash_nodeINS_17__hash_value_typeIPN6System7Typinfo9TTypeInfoEPSt9type_infoEEPvEEEEE9constructB6v15007INS_4pairIKS7_S9_EEJRKNS_21piecewise_construct_tENS_5tupleIJRSH_EEENSM_IJEEEEvEEvRSD_PT_DpOT0_ CODE
 0001:00019370 00000019H .text$_ZNSt3__110unique_ptrINS_11__hash_nodeINS_17__hash_value_typeIPN6System7Typinfo9TTypeInfoEPSt9type_infoEEPvEENS_22__hash_node_destructorINS_9allocatorISB_EEEEE11get_deleterB6v15007Ev CODE
 0001:00019390 00000051H .text$_ZNSt3__19allocatorINS_11__hash_nodeINS_17__hash_value_typeIPN6System7Typinfo9TTypeInfoEPSt9type_infoEEPvEEE8allocateB6v15007Ey CODE
 0001:000193f0 00000019H .text$_ZNSt3__116allocator_traitsINS_9allocatorINS_11__hash_nodeINS_17__hash_value_typeIPN6System7Typinfo9TTypeInfoEPSt9type_infoEEPvEEEEE8max_sizeB6v15007ISD_vEEyRKSD_ CODE
 0001:00019410 00000011H .text$_ZNKSt3__19allocatorINS_11__hash_nodeINS_17__hash_value_typeIPN6System7Typinfo9TTypeInfoEPSt9type_infoEEPvEEE8max_sizeB6v15007Ev CODE
 0001:00019430 00000040H .text$_ZNSt3__117__compressed_pairIPNS_11__hash_nodeINS_17__hash_value_typeIPN6System7Typinfo9TTypeInfoEPSt9type_infoEEPvEENS_22__hash_node_destructorINS_9allocatorISB_EEEEEC2B6v15007IRSC_SG_EEOT_OT0_ CODE
 0001:00019470 00000021H .text$_ZNSt3__122__compressed_pair_elemIPNS_11__hash_nodeINS_17__hash_value_typeIPN6System7Typinfo9TTypeInfoEPSt9type_infoEEPvEELi0ELb0EEC2B6v15007IRSC_vEEOT_ CODE
 0001:000194a0 00000029H .text$_ZNSt3__122__compressed_pair_elemINS_22__hash_node_destructorINS_9allocatorINS_11__hash_nodeINS_17__hash_value_typeIPN6System7Typinfo9TTypeInfoEPSt9type_infoEEPvEEEEEELi1ELb0EEC2B6v15007ISF_vEEOT_ CODE
 0001:000194d0 0000004bH .text$_ZNSt3__19allocatorINS_11__hash_nodeINS_17__hash_value_typeIPN6System7Typinfo9TTypeInfoEPSt9type_infoEEPvEEE9constructB6v15007INS_4pairIKS6_S8_EEJRKNS_21piecewise_construct_tENS_5tupleIJRSF_EEENSK_IJEEEEEEvPT_DpOT0_ CODE
 0001:00019520 00000057H .text$_ZNSt3__14pairIKPN6System7Typinfo9TTypeInfoEPSt9type_infoEC2B6v15007IJRS5_EJEEENS_21piecewise_construct_tENS_5tupleIJDpT_EEENSC_IJDpT0_EEE CODE
 0001:00019580 00000060H .text$_ZNSt3__14pairIKPN6System7Typinfo9TTypeInfoEPSt9type_infoEC2B6v15007IJRS5_EJEJLy0EEJEEENS_21piecewise_construct_tERNS_5tupleIJDpT_EEERNSC_IJDpT0_EEENS_15__tuple_indicesIJXspT1_EEEENSL_IJXspT2_EEEE CODE
 0001:000195e0 00000019H .text$_ZNSt3__13getB6v15007ILy0EJRKPN6System7Typinfo9TTypeInfoEEEERNS_13tuple_elementIXT_ENS_5tupleIJDpT0_EEEE4typeERSB_ CODE
 0001:00019600 0000000eH .text$_ZNSt3__112__tuple_leafILy0ERKPN6System7Typinfo9TTypeInfoELb0EE3getB6v15007Ev CODE
 0001:00019610 0000001dH .text$_ZNSt3__117__compressed_pairIPNS_11__hash_nodeINS_17__hash_value_typeIPN6System7Typinfo9TTypeInfoEPSt9type_infoEEPvEENS_22__hash_node_destructorINS_9allocatorISB_EEEEE6secondB6v15007Ev CODE
 0001:00019630 0000000bH .text$_ZNSt3__122__compressed_pair_elemINS_22__hash_node_destructorINS_9allocatorINS_11__hash_nodeINS_17__hash_value_typeIPN6System7Typinfo9TTypeInfoEPSt9type_infoEEPvEEEEEELi1ELb0EE5__getB6v15007Ev CODE
 0001:00019640 00000019H .text$_ZNSt3__117__compressed_pairIyNS_22__unordered_map_hasherIPN6System7Typinfo9TTypeInfoENS_17__hash_value_typeIS5_PSt9type_infoEENS_4hashIS5_EENS_8equal_toIS5_EELb1EEEE5firstB6v15007Ev CODE
 0001:00019660 00000019H .text$_ZNSt3__117__compressed_pairIfNS_21__unordered_map_equalIPN6System7Typinfo9TTypeInfoENS_17__hash_value_typeIS5_PSt9type_infoEENS_8equal_toIS5_EENS_4hashIS5_EELb1EEEE5firstB6v15007Ev CODE
 0001:00019680 0000000bH .text$_ZNSt3__122__compressed_pair_elemIfLi0ELb0EE5__getB6v15007Ev CODE
 0001:00019690 00000255H .text$_ZNSt3__112__hash_tableINS_17__hash_value_typeIPN6System7Typinfo9TTypeInfoEPSt9type_infoEENS_22__unordered_map_hasherIS5_S8_NS_4hashIS5_EENS_8equal_toIS5_EELb1EEENS_21__unordered_map_equalIS5_S8_SD_SB_Lb1EEENS_9allocatorIS8_EEE8__rehashILb1EEEvy CODE
 0001:000198f0 000002c2H .text$_ZNSt3__112__hash_tableINS_17__hash_value_typeIPN6System7Typinfo9TTypeInfoEPSt9type_infoEENS_22__unordered_map_hasherIS5_S8_NS_4hashIS5_EENS_8equal_toIS5_EELb1EEENS_21__unordered_map_equalIS5_S8_SD_SB_Lb1EEENS_9allocatorIS8_EEE11__do_rehashILb1EEEvy CODE
 0001:00019bc0 00000056H .text$_ZNSt3__116__next_hash_pow2B6v15007Ey CODE
 0001:00019c20 00000007H .text$_ZNSt3__125__debug_db_invalidate_allB6v15007INS_12__hash_tableINS_17__hash_value_typeIPN6System7Typinfo9TTypeInfoEPSt9type_infoEENS_22__unordered_map_hasherIS6_S9_NS_4hashIS6_EENS_8equal_toIS6_EELb1EEENS_21__unordered_map_equalIS6_S9_SE_SC_Lb1EEENS_9allocatorIS9_EEEEEEvPT_ CODE
 0001:00019c30 00000019H .text$_ZNSt3__110unique_ptrIA_PNS_16__hash_node_baseIPNS_11__hash_nodeINS_17__hash_value_typeIPN6System7Typinfo9TTypeInfoEPSt9type_infoEEPvEEEENS_25__bucket_list_deallocatorINS_9allocatorISF_EEEEE11get_deleterB6v15007Ev CODE
 0001:00019c50 0000006aH .text$_ZNSt3__110unique_ptrIA_PNS_16__hash_node_baseIPNS_11__hash_nodeINS_17__hash_value_typeIPN6System7Typinfo9TTypeInfoEPSt9type_infoEEPvEEEENS_25__bucket_list_deallocatorINS_9allocatorISF_EEEEE5resetB6v15007IPSF_EENS_9enable_ifIXsr28_CheckArrayPointerConversionIT_EE5valueEvE4typeESP_ CODE
 0001:00019cc0 00000023H .text$_ZNSt3__116allocator_traitsINS_9allocatorIPNS_16__hash_node_baseIPNS_11__hash_nodeINS_17__hash_value_typeIPN6System7Typinfo9TTypeInfoEPSt9type_infoEEPvEEEEEEE8allocateB6v15007ERSH_y CODE
 0001:00019cf0 00000051H .text$_ZNSt3__19allocatorIPNS_16__hash_node_baseIPNS_11__hash_nodeINS_17__hash_value_typeIPN6System7Typinfo9TTypeInfoEPSt9type_infoEEPvEEEEE8allocateB6v15007Ey CODE
 0001:00019d50 00000019H .text$_ZNSt3__116allocator_traitsINS_9allocatorIPNS_16__hash_node_baseIPNS_11__hash_nodeINS_17__hash_value_typeIPN6System7Typinfo9TTypeInfoEPSt9type_infoEEPvEEEEEEE8max_sizeB6v15007ISH_vEEyRKSH_ CODE
 0001:00019d70 00000011H .text$_ZNKSt3__19allocatorIPNS_16__hash_node_baseIPNS_11__hash_nodeINS_17__hash_value_typeIPN6System7Typinfo9TTypeInfoEPSt9type_infoEEPvEEEEE8max_sizeB6v15007Ev CODE
 0001:00019d90 00000013H .text$_ZNSt3__112__libcpp_clzB6v15007Ey CODE
 0001:00019db0 00000019H .text$_ZNKSt3__117__compressed_pairIPNS_11__hash_nodeINS_17__hash_value_typeIPN6System7Typinfo9TTypeInfoEPSt9type_infoEEPvEENS_22__hash_node_destructorINS_9allocatorISB_EEEEE5firstB6v15007Ev CODE
 0001:00019dd0 0000000bH .text$_ZNKSt3__122__compressed_pair_elemIPNS_11__hash_nodeINS_17__hash_value_typeIPN6System7Typinfo9TTypeInfoEPSt9type_infoEEPvEELi0ELb0EE5__getB6v15007Ev CODE
 0001:00019de0 00000019H .text$_ZNSt3__117__compressed_pairIPNS_11__hash_nodeINS_17__hash_value_typeIPN6System7Typinfo9TTypeInfoEPSt9type_infoEEPvEENS_22__hash_node_destructorINS_9allocatorISB_EEEEE5firstB6v15007Ev CODE
 0001:00019e00 0000000bH .text$_ZNSt3__122__compressed_pair_elemIPNS_11__hash_nodeINS_17__hash_value_typeIPN6System7Typinfo9TTypeInfoEPSt9type_infoEEPvEELi0ELb0EE5__getB6v15007Ev CODE
 0001:00019e10 0000006aH .text$_ZNSt3__110unique_ptrINS_11__hash_nodeINS_17__hash_value_typeIPN6System7Typinfo9TTypeInfoEPSt9type_infoEEPvEENS_22__hash_node_destructorINS_9allocatorISB_EEEEE5resetB6v15007EPSB_ CODE
 0001:00019e80 00000089H .text$_ZNSt3__122__hash_node_destructorINS_9allocatorINS_11__hash_nodeINS_17__hash_value_typeIPN6System7Typinfo9TTypeInfoEPSt9type_infoEEPvEEEEEclB6v15007EPSC_ CODE
 0001:00019f10 00000040H .text$_ZNSt3__15tupleIJRKPN6System7Typinfo9TTypeInfoEEEC2B6v15007INS_4_AndELi0EEES6_ CODE
 0001:00019f50 00000039H .text$_ZNSt3__112__tuple_implINS_15__tuple_indicesIJLy0EEEEJRKPN6System7Typinfo9TTypeInfoEEEC2B6v15007IJLy0EEJS8_EJEJEJS8_EEENS1_IJXspT_EEEENS_13__tuple_typesIJDpT0_EEENS1_IJXspT1_EEEENSC_IJDpT2_EEEDpOT3_ CODE
 0001:00019f90 0000001eH .text$_ZNSt3__112__tuple_leafILy0ERKPN6System7Typinfo9TTypeInfoELb0EEC2B6v15007IS6_vEEOT_ CODE
 0001:00019fb0 0000000bH .text$_ZNSt3__114pointer_traitsIPNS_17__hash_value_typeIPN6System7Typinfo9TTypeInfoEPSt9type_infoEEE10pointer_toB6v15007ERS8_ CODE
 0001:00019fc0 00002b56H .text                   CODE
 0001:0001cb20 0000005bH .text$_ZN6System11WideCharLenIwEEiPKT_ CODE
 0001:0001cb80 0000005bH .text$_ZN6System11WideCharLenIDsEEiPKT_ CODE
 0001:0001cbe0 00000059H .text$_ZN6System11AnsiStringTILt0EEC2EPKci CODE
 0001:0001cc40 00001c2cH .text                   CODE
 0002:00000000 00000008H .rdata$.refptr._MINGW_INSTALL_DEBUG_MATHERR DATA
 0002:00000008 00000008H .rdata$.refptr.__dyn_tls_init_callback DATA
 0002:00000010 00000008H .rdata$.refptr.__globallocalestatus DATA
 0002:00000018 00000008H .rdata$.refptr.__image_base__ DATA
 0002:00000020 00000008H .rdata$.refptr.__imp___winitenv DATA
 0002:00000028 00000008H .rdata$.refptr.__mingw_app_type DATA
 0002:00000030 00000008H .rdata$.refptr.__mingw_initltsdrot_force DATA
 0002:00000038 00000008H .rdata$.refptr.__mingw_initltsdyn_force DATA
 0002:00000040 00000008H .rdata$.refptr.__mingw_initltssuo_force DATA
 0002:00000048 00000008H .rdata$.refptr.__mingw_oldexcpt_handler DATA
 0002:00000050 00000008H .rdata$.refptr.__native_startup_lock DATA
 0002:00000058 00000008H .rdata$.refptr.__native_startup_state DATA
 0002:00000060 00000008H .rdata$.refptr.__xc_a   DATA
 0002:00000068 00000008H .rdata$.refptr.__xc_z   DATA
 0002:00000070 00000008H .rdata$.refptr.__xi_a   DATA
 0002:00000078 00000008H .rdata$.refptr.__xi_z   DATA
 0002:00000080 00000008H .rdata$.refptr._commode DATA
 0002:00000088 00000008H .rdata$.refptr._dowildcard DATA
 0002:00000090 00000008H .rdata$.refptr._fmode   DATA
 0002:00000098 00000008H .rdata$.refptr._hInstance DATA
 0002:000000a0 00000008H .rdata$.refptr._newmode DATA
 0002:000000a8 00005f52H .rdata                  DATA
 0002:00006000 00000042H .rdata$_ZTR16TAddComputerForm DATA
 0002:00006048 0000004cH .rdata                  DATA
 0002:00006094 00000011H .rdata$_ZTSSt12length_error DATA
 0002:000060a5 00000010H .rdata$_ZTSSt11logic_error DATA
 0002:000060b5 0000000dH .rdata$_ZTSSt9exception DATA
 0002:000060c8 00000010H .rdata$_ZTISt9exception DATA
 0002:000060d8 00000018H .rdata$_ZTISt11logic_error DATA
 0002:000060f0 00000018H .rdata$_ZTISt12length_error DATA
 0002:00006108 00000019H .rdata$_ZTSSt20bad_array_new_length DATA
 0002:00006121 0000000dH .rdata$_ZTSSt9bad_alloc DATA
 0002:00006130 00000018H .rdata$_ZTISt9bad_alloc DATA
 0002:00006148 00000018H .rdata$_ZTISt20bad_array_new_length DATA
 0002:00006160 000001bdH .rdata                  DATA
 0002:00006320 00000440H .rdata$_ZTV11TDetailForm DATA
 0002:00006760 00000038H .rdata$_ZTR11TDetailForm DATA
 0002:00006798 00000008H .rdata$.refptr._ZN6System10_init_instE DATA
 0002:000067a0 00000877H .rdata                  DATA
 0002:00007020 00000034H .rdata$_ZTR9THomeForm   DATA
 0002:00007058 00000050H .rdata$_ZTVNSt3__114basic_ofstreamIcNS_11char_traitsIcEEEE DATA
 0002:000070a8 00000020H .rdata$_ZTTNSt3__114basic_ofstreamIcNS_11char_traitsIcEEEE DATA
 0002:000070c8 00000050H .rdata$_ZTCNSt3__114basic_ofstreamIcNS_11char_traitsIcEEEE0_NS_13basic_ostreamIcS2_EE DATA
 0002:00007118 0000002fH .rdata$_ZTSNSt3__113basic_ostreamIcNS_11char_traitsIcEEEE DATA
 0002:00007147 0000002aH .rdata$_ZTSNSt3__19basic_iosIcNS_11char_traitsIcEEEE DATA
 0002:00007171 00000012H .rdata$_ZTSNSt3__18ios_baseE DATA
 0002:00007188 00000010H .rdata$_ZTINSt3__18ios_baseE DATA
 0002:00007198 00000018H .rdata$_ZTINSt3__19basic_iosIcNS_11char_traitsIcEEEE DATA
 0002:000071b0 00000028H .rdata$_ZTINSt3__113basic_ostreamIcNS_11char_traitsIcEEEE DATA
 0002:000071d8 00000030H .rdata$_ZTSNSt3__114basic_ofstreamIcNS_11char_traitsIcEEEE DATA
 0002:00007208 00000018H .rdata$_ZTINSt3__114basic_ofstreamIcNS_11char_traitsIcEEEE DATA
 0002:00007220 00000080H .rdata$_ZTVNSt3__113basic_filebufIcNS_11char_traitsIcEEEE DATA
 0002:000072a0 0000002fH .rdata$_ZTSNSt3__113basic_filebufIcNS_11char_traitsIcEEEE DATA
 0002:000072cf 00000031H .rdata$_ZTSNSt3__115basic_streambufIcNS_11char_traitsIcEEEE DATA
 0002:00007300 00000010H .rdata$_ZTINSt3__115basic_streambufIcNS_11char_traitsIcEEEE DATA
 0002:00007310 00000018H .rdata$_ZTINSt3__113basic_filebufIcNS_11char_traitsIcEEEE DATA
 0002:00007328 0000000cH .rdata$_ZTSSt8bad_cast  DATA
 0002:00007338 00000018H .rdata$_ZTISt8bad_cast  DATA
 0002:00007350 00000050H .rdata$_ZTVNSt3__114basic_ifstreamIcNS_11char_traitsIcEEEE DATA
 0002:000073a0 00000020H .rdata$_ZTTNSt3__114basic_ifstreamIcNS_11char_traitsIcEEEE DATA
 0002:000073c0 00000050H .rdata$_ZTCNSt3__114basic_ifstreamIcNS_11char_traitsIcEEEE0_NS_13basic_istreamIcS2_EE DATA
 0002:00007410 0000002fH .rdata$_ZTSNSt3__113basic_istreamIcNS_11char_traitsIcEEEE DATA
 0002:00007440 00000028H .rdata$_ZTINSt3__113basic_istreamIcNS_11char_traitsIcEEEE DATA
 0002:00007468 00000030H .rdata$_ZTSNSt3__114basic_ifstreamIcNS_11char_traitsIcEEEE DATA
 0002:00007498 00000018H .rdata$_ZTINSt3__114basic_ifstreamIcNS_11char_traitsIcEEEE DATA
 0002:000074b0 00000008H .rdata$.refptr._ZTV16TAddComputerForm DATA
 0002:000074b8 00000001H .rdata                  DATA
 0002:000074c0 00000008H .rdata$.refptr.AddComputerForm DATA
 0002:000074c8 00000008H .rdata$.refptr.DetailForm DATA
 0002:000074d0 00000008H .rdata$.refptr.HomeForm DATA
 0002:000074d8 00000008H .rdata$.refptr._ZTRN6System8Sysutils9ExceptionE DATA
 0002:000074e0 00000008H .rdata$.refptr._ZTV11TDetailForm DATA
 0002:000074e8 00000008H .rdata$.refptr._ZTV9THomeForm DATA
 0002:000074f0 00000008H .rdata$.refptr._ZTVN6System8Sysutils9ExceptionE DATA
 0002:000074f8 00000012H .rdata                  DATA
 0002:00007510 00000008H .rdata$.refptr.__imp__tzset DATA
 0002:00007518 00000008H .rdata$.refptr.__mingw_module_is_dll DATA
 0002:00007520 00000008H .rdata$.refptr.__CTOR_LIST__ DATA
 0002:00007528 00000038H .rdata                  DATA
 0002:00007560 00000008H .rdata$.refptr._CRT_MT  DATA
 0002:00007568 00000255H .rdata                  DATA
 0002:000077c0 00000008H .rdata$.refptr.__RUNTIME_PSEUDO_RELOC_LIST_END__ DATA
 0002:000077c8 00000008H .rdata$.refptr.__RUNTIME_PSEUDO_RELOC_LIST__ DATA
 0002:000077d0 00000001H .rdata                  DATA
 0002:000077d8 00000008H .rdata$.refptr._ZTRN6System8Sysutils11ERangeErrorE DATA
 0002:000077e0 00000008H .rdata$.refptr._ZTVN6System8Sysutils11ERangeErrorE DATA
 0002:000077e8 00000220H .rdata                  DATA
 0002:00007a08 00000008H .rdata$.refptr.__EMBT_INIT_LIST_BEGIN__ DATA
 0002:00007a10 00000008H .rdata$.refptr.__EMBT_INIT_LIST_END__ DATA
 0002:00007a18 00000008H .rdata$.refptr.__isDLL  DATA
 0002:00007a20 00000008H .rdata$.refptr.__isGUI  DATA
 0002:00007a28 00000008H .rdata$.refptr.__isVCLPackage DATA
 0002:00007a30 000003a0H .rdata                  DATA
 0002:00007ed0 00000008H .CRT$XCA                DATA
 0002:00007ed8 00000008H .CRT$XCAA               DATA
 0002:00007ee0 00000008H .CRT$XCZ                DATA
 0002:00007ee8 00000008H .CRT$XDA                DATA
 0002:00007ef0 00000008H .CRT$XDZ                DATA
 0002:00007ef8 00000008H .CRT$XIA                DATA
 0002:00007f00 00000008H .CRT$XIAA               DATA
 0002:00007f08 00000008H .CRT$XIZ                DATA
 0002:00007f10 00000008H .CRT$XLA                DATA
 0002:00007f18 00000008H .CRT$XLC                DATA
 0002:00007f20 00000008H .CRT$XLD                DATA
 0002:00007f28 00000008H .CRT$XLZ                DATA
 0002:00007f38 00000008H .ctors.65435            DATA
 0002:00007f40 00000010H .ctors.65534            DATA
 0002:00007f60 00000008H .dtors.65435            DATA
 0002:0000f1b0 0000022cH .xdata                  DATA
 0002:0000f3dc 00000008H .xdata$_ZN3Vcl5Forms5TFormC3EPN6System7Classes10TComponentE DATA
 0002:0000f3e4 00000008H .xdata$_ZNK6System13UnicodeString7IsEmptyEv DATA
 0002:0000f3ec 00000008H .xdata$_ZN16TAddComputerFormD0Ev DATA
 0002:0000f3f4 00000008H .xdata$_ZN3Vcl5Forms5TFormC3EPN6System7Classes10TComponentEi DATA
 0002:0000f3fc 00000008H .xdata$_ZN3Vcl5Forms5TFormC3EPN6System7Classes10TComponentEii DATA
 0002:0000f404 00000008H .xdata$_ZN3Vcl5Forms5TFormD0Ev DATA
 0002:0000f40c 00000128H .xdata                  DATA
 0002:0000f534 00000050H .xdata$_ZNSt3__1rsIcNS_11char_traitsIcEENS_9allocatorIcEEEERNS_13basic_istreamIT_T0_EES9_RNS_12basic_stringIS6_S7_T1_EE DATA
 0002:0000f584 0000004cH .xdata$_ZNSt3__12wsIcNS_11char_traitsIcEEEERNS_13basic_istreamIT_T0_EES7_ DATA
 0002:0000f5d0 00000020H .xdata$_ZNSt3__16vectorI9ComponentNS_9allocatorIS1_EEE5clearB6v15007Ev DATA
 0002:0000f5f0 00000044H .xdata$_ZNSt3__124__put_character_sequenceIcNS_11char_traitsIcEEEERNS_13basic_ostreamIT_T0_EES7_PKS4_y DATA
 0002:0000f634 00000024H .xdata$_ZNSt3__116__pad_and_outputIcNS_11char_traitsIcEEEENS_19ostreambuf_iteratorIT_T0_EES6_PKS4_S8_S8_RNS_8ios_baseES4_ DATA
 0002:0000f658 00000020H .xdata$_ZNSt3__119ostreambuf_iteratorIcNS_11char_traitsIcEEEC2B6v15007ERNS_13basic_ostreamIcS2_EE DATA
 0002:0000f678 0000001cH .xdata$_ZNKSt3__19basic_iosIcNS_11char_traitsIcEEE5widenB6v15007Ec DATA
 0002:0000f694 00000034H .xdata$_ZNSt3__113basic_ostreamIcNS_11char_traitsIcEEE6sentryD2Ev DATA
 0002:0000f6c8 00000020H .xdata$_ZNSt3__112basic_stringIcNS_11char_traitsIcEENS_9allocatorIcEEE5clearB6v15007Ev DATA
 0002:0000f6e8 00000024H .xdata$_ZNSt3__113basic_istreamIcNS_11char_traitsIcEEE6sentryC2ERS3_b DATA
 0002:0000f70c 00000020H .xdata$_ZNSt3__119istreambuf_iteratorIcNS_11char_traitsIcEEEC2B6v15007ERNS_13basic_istreamIcS2_EE DATA
 0002:0000f72c 00000020H .xdata$_ZNSt3__16vectorI9ComponentNS_9allocatorIS1_EEEC2B6v15007Ev DATA
 0002:0000f74c 00000020H .xdata$_ZNSt3__16vectorI9ComponentNS_9allocatorIS1_EEED2B6v15007Ev DATA
 0002:0000f76c 00000020H .xdata$_ZNSt3__16vectorI9ComponentNS_9allocatorIS1_EEE22__base_destruct_at_endB6v15007EPS1_ DATA
 0002:0000f78c 00000020H .xdata$_ZNSt3__19allocatorI9ComponentE10deallocateB6v15007EPS1_y DATA
 0002:0000f7ac 00000044H .xdata$_ZNSt3__17getlineIcNS_11char_traitsIcEENS_9allocatorIcEEEERNS_13basic_istreamIT_T0_EES9_RNS_12basic_stringIS6_S7_T1_EES6_ DATA
 0002:0000f7f0 0000001cH .xdata$_ZNSt3__16vectorI9ComponentNS_9allocatorIS1_EEE22__construct_one_at_endB6v15007IJRKS1_EEEvDpOT_ DATA
 0002:0000f80c 00000020H .xdata$_ZNSt3__16vectorI9ComponentNS_9allocatorIS1_EEE21__push_back_slow_pathIRKS1_EEvOT_ DATA
 0002:0000f82c 00000020H .xdata$_ZNKSt3__16vectorI9ComponentNS_9allocatorIS1_EEE8max_sizeEv DATA
 0002:0000f84c 0000001cH .xdata$_ZNSt3__120__throw_length_errorB6v15007EPKc DATA
 0002:0000f868 00000038H .xdata$_ZNSt3__142__uninitialized_allocator_move_if_noexceptB6v15007INS_9allocatorI9ComponentEENS_16reverse_iteratorIPS2_EES6_S6_EET2_RT_T0_T1_S7_ DATA
 0002:0000f8a0 00000020H .xdata$_ZNSt3__112basic_stringIcNS_11char_traitsIcEENS_9allocatorIcEEEC2B6v15007EOS5_ DATA
 0002:0000f8c0 00000020H .xdata$_ZNSt3__119__to_address_helperINS_16reverse_iteratorIP9ComponentEEvE6__callB6v15007ERKS4_ DATA
 0002:0000f8e0 00000020H .xdata$_ZNSt3__119__to_address_helperINS_16reverse_iteratorINS1_IP9ComponentEEEEvE6__callB6v15007ERKS5_ DATA
 0002:0000f900 00000020H .xdata$_ZNSt3__114__split_bufferI9ComponentRNS_9allocatorIS1_EEED2Ev DATA
 0002:0000f920 00000020H .xdata$_ZNSt3__114__split_bufferI9ComponentRNS_9allocatorIS1_EEE17__destruct_at_endB6v15007EPS1_NS_17integral_constantIbLb0EEE DATA
 0002:0000f940 00000008H .xdata$_ZNSt3__1lsINS_11char_traitsIcEEEERNS_13basic_ostreamIcT_EES6_PKc DATA
 0002:0000f948 00000008H .xdata$_ZNSt3__1lsIcNS_11char_traitsIcEENS_9allocatorIcEEEERNS_13basic_ostreamIT_T0_EES9_RKNS_12basic_stringIS6_S7_T1_EE DATA
 0002:0000f950 00000050H .xdata$_ZNSt3__1rsIcNS_11char_traitsIcEENS_9allocatorIcEEEERNS_13basic_istreamIT_T0_EES9_RNS_12basic_stringIS6_S7_T1_EE DATA
 0002:0000f9a0 00000008H .xdata$_ZNSt3__16vectorI9ComponentNS_9allocatorIS1_EEEC1B6v15007Ev DATA
 0002:0000f9a8 00000008H .xdata$_ZNSt3__16vectorI9ComponentNS_9allocatorIS1_EEED1B6v15007Ev DATA
 0002:0000f9b0 00000008H .xdata$_ZNKSt3__16vectorI9ComponentNS_9allocatorIS1_EEE4sizeB6v15007Ev DATA
 0002:0000f9b8 00000008H .xdata$_ZNKSt3__16vectorI9ComponentNS_9allocatorIS1_EEE5beginB6v15007Ev DATA
 0002:0000f9c0 00000008H .xdata$_ZNKSt3__16vectorI9ComponentNS_9allocatorIS1_EEE3endB6v15007Ev DATA
 0002:0000f9c8 00000008H .xdata$_ZNSt3__1neB6v15007IPK9ComponentEEbRKNS_11__wrap_iterIT_EES8_ DATA
 0002:0000f9d0 00000008H .xdata$_ZNKSt3__111__wrap_iterIPK9ComponentEdeB6v15007Ev DATA
 0002:0000f9d8 00000008H .xdata$_ZNSt3__111__wrap_iterIPK9ComponentEppB6v15007Ev DATA
 0002:0000f9e0 00000008H .xdata$_ZNSt3__113basic_istreamIcNS_11char_traitsIcEEErsB6v15007EPFRS3_S4_E DATA
 0002:0000f9e8 0000004cH .xdata$_ZNSt3__12wsIcNS_11char_traitsIcEEEERNS_13basic_istreamIT_T0_EES7_ DATA
 0002:0000fa34 00000008H .xdata$_ZNSt3__17getlineB6v15007IcNS_11char_traitsIcEENS_9allocatorIcEEEERNS_13basic_istreamIT_T0_EES9_RNS_12basic_stringIS6_S7_T1_EE DATA
 0002:0000fa3c 00000020H .xdata$_ZNSt3__16vectorI9ComponentNS_9allocatorIS1_EEE5clearB6v15007Ev DATA
 0002:0000fa5c 00000008H .xdata$_ZNSt3__112basic_stringIcNS_11char_traitsIcEENS_9allocatorIcEEEC1B6v15007IDnEEPKc DATA
 0002:0000fa64 00000008H .xdata$_ZNSt3__16vectorI9ComponentNS_9allocatorIS1_EEE9push_backB6v15007ERKS1_ DATA
 0002:0000fa6c 00000008H .xdata$_ZN9ComponentD1Ev DATA
 0002:0000fa74 00000008H .xdata$_ZNSt3__16vectorI9ComponentNS_9allocatorIS1_EEE5beginB6v15007Ev DATA
 0002:0000fa7c 00000008H .xdata$_ZNSt3__16vectorI9ComponentNS_9allocatorIS1_EEE3endB6v15007Ev DATA
 0002:0000fa84 00000008H .xdata$_ZNSt3__1neB6v15007IP9ComponentEEbRKNS_11__wrap_iterIT_EES7_ DATA
 0002:0000fa8c 00000008H .xdata$_ZNKSt3__111__wrap_iterIP9ComponentEdeB6v15007Ev DATA
 0002:0000fa94 00000008H .xdata$_ZNSt3__111__wrap_iterIP9ComponentEppB6v15007Ev DATA
 0002:0000fa9c 00000008H .xdata$_ZNSt3__1eqB6v15007IPK9ComponentEEbRKNS_11__wrap_iterIT_EES8_ DATA
 0002:0000faa4 00000008H .xdata$_ZNKSt3__111__wrap_iterIPK9ComponentE4baseB6v15007Ev DATA
 0002:0000faac 00000008H .xdata$_ZN9ComponentD2Ev DATA
 0002:0000fab4 00000008H .xdata$_ZNSt3__1eqB6v15007IP9ComponentEEbRKNS_11__wrap_iterIT_EES7_ DATA
 0002:0000fabc 00000008H .xdata$_ZNKSt3__111__wrap_iterIP9ComponentE4baseB6v15007Ev DATA
 0002:0000fac4 00000044H .xdata$_ZNSt3__124__put_character_sequenceIcNS_11char_traitsIcEEEERNS_13basic_ostreamIT_T0_EES7_PKS4_y DATA
 0002:0000fb08 00000008H .xdata$_ZNSt3__111char_traitsIcE6lengthEPKc DATA
 0002:0000fb10 00000008H .xdata$_ZNSt3__113basic_ostreamIcNS_11char_traitsIcEEE6sentryC1ERS3_ DATA
 0002:0000fb18 00000008H .xdata$_ZNKSt3__113basic_ostreamIcNS_11char_traitsIcEEE6sentrycvbB6v15007Ev DATA
 0002:0000fb20 00000024H .xdata$_ZNSt3__116__pad_and_outputIcNS_11char_traitsIcEEEENS_19ostreambuf_iteratorIT_T0_EES6_PKS4_S8_S8_RNS_8ios_baseES4_ DATA
 0002:0000fb44 00000008H .xdata$_ZNSt3__119ostreambuf_iteratorIcNS_11char_traitsIcEEEC1B6v15007ERNS_13basic_ostreamIcS2_EE DATA
 0002:0000fb4c 00000008H .xdata$_ZNKSt3__18ios_base5flagsB6v15007Ev DATA
 0002:0000fb54 00000008H .xdata$_ZNKSt3__19basic_iosIcNS_11char_traitsIcEEE4fillB6v15007Ev DATA
 0002:0000fb5c 00000008H .xdata$_ZNKSt3__119ostreambuf_iteratorIcNS_11char_traitsIcEEE6failedB6v15007Ev DATA
 0002:0000fb64 00000008H .xdata$_ZNSt3__19basic_iosIcNS_11char_traitsIcEEE8setstateB6v15007Ej DATA
 0002:0000fb6c 00000008H .xdata$_ZNSt3__113basic_ostreamIcNS_11char_traitsIcEEE6sentryD1Ev DATA
 0002:0000fb74 00000008H .xdata$_ZNSt3__113basic_ostreamIcNS_11char_traitsIcEEE6sentryC2ERS3_ DATA
 0002:0000fb7c 00000008H .xdata$_ZNKSt3__19basic_iosIcNS_11char_traitsIcEEE4goodB6v15007Ev DATA
 0002:0000fb84 00000008H .xdata$_ZNKSt3__19basic_iosIcNS_11char_traitsIcEEE3tieB6v15007Ev DATA
 0002:0000fb8c 00000008H .xdata$_ZNKSt3__18ios_base4goodB6v15007Ev DATA
 0002:0000fb94 00000008H .xdata$_ZNKSt3__18ios_base5widthB6v15007Ev DATA
 0002:0000fb9c 00000008H .xdata$_ZNSt3__115basic_streambufIcNS_11char_traitsIcEEE5sputnB6v15007EPKcx DATA
 0002:0000fba4 00000008H .xdata$_ZNSt3__112basic_stringIcNS_11char_traitsIcEENS_9allocatorIcEEEC1B6v15007Eyc DATA
 0002:0000fbac 00000008H .xdata$_ZNSt3__112basic_stringIcNS_11char_traitsIcEENS_9allocatorIcEEE4dataB6v15007Ev DATA
 0002:0000fbb4 00000008H .xdata$_ZNSt3__18ios_base5widthB6v15007Ex DATA
 0002:0000fbbc 00000008H .xdata$_ZNSt3__112basic_stringIcNS_11char_traitsIcEENS_9allocatorIcEEEC2B6v15007Eyc DATA
 0002:0000fbc4 00000008H .xdata$_ZNSt3__117__compressed_pairINS_12basic_stringIcNS_11char_traitsIcEENS_9allocatorIcEEE5__repES5_EC1B6v15007INS_18__default_init_tagESA_EEOT_OT0_ DATA
 0002:0000fbcc 00000008H .xdata$_ZNSt3__119__debug_db_insert_cB6v15007INS_12basic_stringIcNS_11char_traitsIcEENS_9allocatorIcEEEEEEvPT_ DATA
 0002:0000fbd4 00000008H .xdata$_ZNSt3__117__compressed_pairINS_12basic_stringIcNS_11char_traitsIcEENS_9allocatorIcEEE5__repES5_EC2B6v15007INS_18__default_init_tagESA_EEOT_OT0_ DATA
 0002:0000fbdc 00000008H .xdata$_ZNSt3__122__compressed_pair_elemINS_12basic_stringIcNS_11char_traitsIcEENS_9allocatorIcEEE5__repELi0ELb0EEC2B6v15007ENS_18__default_init_tagE DATA
 0002:0000fbe4 00000008H .xdata$_ZNSt3__122__compressed_pair_elemINS_9allocatorIcEELi1ELb1EEC2B6v15007ENS_18__default_init_tagE DATA
 0002:0000fbec 00000008H .xdata$_ZNSt3__19allocatorIcEC2B6v15007Ev DATA
 0002:0000fbf4 00000008H .xdata$_ZNSt3__116__non_trivial_ifILb1ENS_9allocatorIcEEEC2B6v15007Ev DATA
 0002:0000fbfc 00000008H .xdata$_ZNSt3__112__to_addressB6v15007IcEEPT_S2_ DATA
 0002:0000fc04 00000008H .xdata$_ZNSt3__112basic_stringIcNS_11char_traitsIcEENS_9allocatorIcEEE13__get_pointerB6v15007Ev DATA
 0002:0000fc0c 00000008H .xdata$_ZNKSt3__112basic_stringIcNS_11char_traitsIcEENS_9allocatorIcEEE9__is_longB6v15007Ev DATA
 0002:0000fc14 00000008H .xdata$_ZNSt3__112basic_stringIcNS_11char_traitsIcEENS_9allocatorIcEEE18__get_long_pointerB6v15007Ev DATA
 0002:0000fc1c 00000008H .xdata$_ZNSt3__112basic_stringIcNS_11char_traitsIcEENS_9allocatorIcEEE19__get_short_pointerB6v15007Ev DATA
 0002:0000fc24 00000008H .xdata$_ZNKSt3__117__compressed_pairINS_12basic_stringIcNS_11char_traitsIcEENS_9allocatorIcEEE5__repES5_E5firstB6v15007Ev DATA
 0002:0000fc2c 00000008H .xdata$_ZNKSt3__122__compressed_pair_elemINS_12basic_stringIcNS_11char_traitsIcEENS_9allocatorIcEEE5__repELi0ELb0EE5__getB6v15007Ev DATA
 0002:0000fc34 00000008H .xdata$_ZNSt3__117__compressed_pairINS_12basic_stringIcNS_11char_traitsIcEENS_9allocatorIcEEE5__repES5_E5firstB6v15007Ev DATA
 0002:0000fc3c 00000008H .xdata$_ZNSt3__122__compressed_pair_elemINS_12basic_stringIcNS_11char_traitsIcEENS_9allocatorIcEEE5__repELi0ELb0EE5__getB6v15007Ev DATA
 0002:0000fc44 00000008H .xdata$_ZNSt3__114pointer_traitsIPcE10pointer_toB6v15007ERc DATA
 0002:0000fc4c 00000020H .xdata$_ZNSt3__119ostreambuf_iteratorIcNS_11char_traitsIcEEEC2B6v15007ERNS_13basic_ostreamIcS2_EE DATA
 0002:0000fc6c 00000008H .xdata$_ZNKSt3__19basic_iosIcNS_11char_traitsIcEEE5rdbufB6v15007Ev DATA
 0002:0000fc74 00000008H .xdata$_ZNKSt3__18ios_base5rdbufB6v15007Ev DATA
 0002:0000fc7c 00000008H .xdata$_ZNSt3__111char_traitsIcE11eq_int_typeEii DATA
 0002:0000fc84 0000001cH .xdata$_ZNKSt3__19basic_iosIcNS_11char_traitsIcEEE5widenB6v15007Ec DATA
 0002:0000fca0 00000008H .xdata$_ZNSt3__19use_facetB6v15007INS_5ctypeIcEEEERKT_RKNS_6localeE DATA
 0002:0000fca8 00000008H .xdata$_ZNKSt3__15ctypeIcE5widenB6v15007Ec DATA
 0002:0000fcb0 00000008H .xdata$_ZNSt3__18ios_base8setstateB6v15007Ej DATA
 0002:0000fcb8 00000034H .xdata$_ZNSt3__113basic_ostreamIcNS_11char_traitsIcEEE6sentryD2Ev DATA
 0002:0000fcec 00000008H .xdata$_ZNSt3__115basic_streambufIcNS_11char_traitsIcEEE7pubsyncB6v15007Ev DATA
 0002:0000fcf4 00000008H .xdata$_ZNKSt3__112basic_stringIcNS_11char_traitsIcEENS_9allocatorIcEEE4dataB6v15007Ev DATA
 0002:0000fcfc 00000008H .xdata$_ZNKSt3__112basic_stringIcNS_11char_traitsIcEENS_9allocatorIcEEE4sizeB6v15007Ev DATA
 0002:0000fd04 00000008H .xdata$_ZNSt3__112__to_addressB6v15007IKcEEPT_S3_ DATA
 0002:0000fd0c 00000008H .xdata$_ZNKSt3__112basic_stringIcNS_11char_traitsIcEENS_9allocatorIcEEE13__get_pointerB6v15007Ev DATA
 0002:0000fd14 00000008H .xdata$_ZNKSt3__112basic_stringIcNS_11char_traitsIcEENS_9allocatorIcEEE18__get_long_pointerB6v15007Ev DATA
 0002:0000fd1c 00000008H .xdata$_ZNKSt3__112basic_stringIcNS_11char_traitsIcEENS_9allocatorIcEEE19__get_short_pointerB6v15007Ev DATA
 0002:0000fd24 00000008H .xdata$_ZNSt3__114pointer_traitsIPKcE10pointer_toB6v15007ERS1_ DATA
 0002:0000fd2c 00000008H .xdata$_ZNKSt3__112basic_stringIcNS_11char_traitsIcEENS_9allocatorIcEEE15__get_long_sizeB6v15007Ev DATA
 0002:0000fd34 00000008H .xdata$_ZNKSt3__112basic_stringIcNS_11char_traitsIcEENS_9allocatorIcEEE16__get_short_sizeB6v15007Ev DATA
 0002:0000fd3c 00000008H .xdata$_ZNSt3__113basic_istreamIcNS_11char_traitsIcEEE6sentryC1ERS3_b DATA
 0002:0000fd44 00000008H .xdata$_ZNKSt3__113basic_istreamIcNS_11char_traitsIcEEE6sentrycvbB6v15007Ev DATA
 0002:0000fd4c 00000020H .xdata$_ZNSt3__112basic_stringIcNS_11char_traitsIcEENS_9allocatorIcEEE5clearB6v15007Ev DATA
 0002:0000fd6c 00000008H .xdata$_ZNKSt3__112basic_stringIcNS_11char_traitsIcEENS_9allocatorIcEEE8max_sizeB6v15007Ev DATA
 0002:0000fd74 00000008H .xdata$_ZNSt3__114numeric_limitsIxE3maxB6v15007Ev DATA
 0002:0000fd7c 00000008H .xdata$_ZNSt3__115basic_streambufIcNS_11char_traitsIcEEE5sgetcB6v15007Ev DATA
 0002:0000fd84 00000008H .xdata$_ZNSt3__111char_traitsIcE12to_char_typeEi DATA
 0002:0000fd8c 00000008H .xdata$_ZNKSt3__15ctypeIcE2isB6v15007Etc DATA
 0002:0000fd94 00000008H .xdata$_ZNSt3__115basic_streambufIcNS_11char_traitsIcEEE6sbumpcB6v15007Ev DATA
 0002:0000fd9c 00000008H .xdata$_ZNSt3__18ios_base18__setstate_nothrowB6v15007Ej DATA
 0002:0000fda4 00000008H .xdata$_ZNKSt3__19basic_iosIcNS_11char_traitsIcEEE10exceptionsB6v15007Ev DATA
 0002:0000fdac 00000024H .xdata$_ZNSt3__113basic_istreamIcNS_11char_traitsIcEEE6sentryC2ERS3_b DATA
 0002:0000fdd0 00000008H .xdata$_ZNSt3__119istreambuf_iteratorIcNS_11char_traitsIcEEEC1B6v15007ERNS_13basic_istreamIcS2_EE DATA
 0002:0000fdd8 00000008H .xdata$_ZNSt3__119istreambuf_iteratorIcNS_11char_traitsIcEEEC1B6v15007Ev DATA
 0002:0000fde0 00000008H .xdata$_ZNSt3__1neB6v15007IcNS_11char_traitsIcEEEEbRKNS_19istreambuf_iteratorIT_T0_EES8_ DATA
 0002:0000fde8 00000008H .xdata$_ZNKSt3__119istreambuf_iteratorIcNS_11char_traitsIcEEEdeB6v15007Ev DATA
 0002:0000fdf0 00000008H .xdata$_ZNSt3__119istreambuf_iteratorIcNS_11char_traitsIcEEEppB6v15007Ev DATA
 0002:0000fdf8 00000008H .xdata$_ZNSt3__1eqB6v15007IcNS_11char_traitsIcEEEEbRKNS_19istreambuf_iteratorIT_T0_EES8_ DATA
 0002:0000fe00 00000020H .xdata$_ZNSt3__119istreambuf_iteratorIcNS_11char_traitsIcEEEC2B6v15007ERNS_13basic_istreamIcS2_EE DATA
 0002:0000fe20 00000008H .xdata$_ZNSt3__119istreambuf_iteratorIcNS_11char_traitsIcEEEC2B6v15007Ev DATA
 0002:0000fe28 00000008H .xdata$_ZNKSt3__119istreambuf_iteratorIcNS_11char_traitsIcEEE5equalB6v15007ERKS3_ DATA
 0002:0000fe30 00000008H .xdata$_ZNKSt3__119istreambuf_iteratorIcNS_11char_traitsIcEEE14__test_for_eofB6v15007Ev DATA
 0002:0000fe38 00000008H .xdata$_ZNSt3__125__debug_db_invalidate_allB6v15007INS_12basic_stringIcNS_11char_traitsIcEENS_9allocatorIcEEEEEEvPT_ DATA
 0002:0000fe40 00000008H .xdata$_ZNSt3__111char_traitsIcE6assignERcRKc DATA
 0002:0000fe48 00000008H .xdata$_ZNSt3__112basic_stringIcNS_11char_traitsIcEENS_9allocatorIcEEE15__set_long_sizeB6v15007Ey DATA
 0002:0000fe50 00000008H .xdata$_ZNSt3__112basic_stringIcNS_11char_traitsIcEENS_9allocatorIcEEE16__set_short_sizeB6v15007Ey DATA
 0002:0000fe58 00000008H .xdata$_ZNSt3__116allocator_traitsINS_9allocatorIcEEE8max_sizeB6v15007IS2_vEEyRKS2_ DATA
 0002:0000fe60 00000008H .xdata$_ZNKSt3__112basic_stringIcNS_11char_traitsIcEENS_9allocatorIcEEE7__allocB6v15007Ev DATA
 0002:0000fe68 00000008H .xdata$_ZNSt3__114numeric_limitsIyE3maxB6v15007Ev DATA
 0002:0000fe70 00000008H .xdata$_ZNKSt3__19allocatorIcE8max_sizeB6v15007Ev DATA
 0002:0000fe78 00000008H .xdata$_ZNKSt3__117__compressed_pairINS_12basic_stringIcNS_11char_traitsIcEENS_9allocatorIcEEE5__repES5_E6secondB6v15007Ev DATA
 0002:0000fe80 00000008H .xdata$_ZNKSt3__122__compressed_pair_elemINS_9allocatorIcEELi1ELb1EE5__getB6v15007Ev DATA
 0002:0000fe88 00000008H .xdata$_ZNSt3__111char_traitsIcE11to_int_typeEc DATA
 0002:0000fe90 00000008H .xdata$_ZNKSt3__18ios_base10exceptionsB6v15007Ev DATA
 0002:0000fe98 00000020H .xdata$_ZNSt3__16vectorI9ComponentNS_9allocatorIS1_EEEC2B6v15007Ev DATA
 0002:0000feb8 00000008H .xdata$_ZNSt3__117__compressed_pairIP9ComponentNS_9allocatorIS1_EEEC1B6v15007IDnNS_18__default_init_tagEEEOT_OT0_ DATA
 0002:0000fec0 00000008H .xdata$_ZNSt3__119__debug_db_insert_cB6v15007INS_6vectorI9ComponentNS_9allocatorIS2_EEEEEEvPT_ DATA
 0002:0000fec8 00000008H .xdata$_ZNSt3__117__compressed_pairIP9ComponentNS_9allocatorIS1_EEEC2B6v15007IDnNS_18__default_init_tagEEEOT_OT0_ DATA
 0002:0000fed0 00000008H .xdata$_ZNSt3__122__compressed_pair_elemIP9ComponentLi0ELb0EEC2B6v15007IDnvEEOT_ DATA
 0002:0000fed8 00000008H .xdata$_ZNSt3__122__compressed_pair_elemINS_9allocatorI9ComponentEELi1ELb1EEC2B6v15007ENS_18__default_init_tagE DATA
 0002:0000fee0 00000008H .xdata$_ZNSt3__19allocatorI9ComponentEC2B6v15007Ev DATA
 0002:0000fee8 00000008H .xdata$_ZNSt3__116__non_trivial_ifILb1ENS_9allocatorI9ComponentEEEC2B6v15007Ev DATA
 0002:0000fef0 00000020H .xdata$_ZNSt3__16vectorI9ComponentNS_9allocatorIS1_EEED2B6v15007Ev DATA
 0002:0000ff10 00000008H .xdata$_ZNSt3__16vectorI9ComponentNS_9allocatorIS1_EEE16__destroy_vectorC1ERS4_ DATA
 0002:0000ff18 00000008H .xdata$_ZNSt3__16vectorI9ComponentNS_9allocatorIS1_EEE16__destroy_vectorclB6v15007Ev DATA
 0002:0000ff20 00000008H .xdata$_ZNSt3__16vectorI9ComponentNS_9allocatorIS1_EEE16__destroy_vectorC2ERS4_ DATA
 0002:0000ff28 00000008H .xdata$_ZNKSt3__16vectorI9ComponentNS_9allocatorIS1_EEE17__annotate_deleteB6v15007Ev DATA
 0002:0000ff30 00000008H .xdata$_ZNSt3__118__debug_db_erase_cB6v15007INS_6vectorI9ComponentNS_9allocatorIS2_EEEEEEvPT_ DATA
 0002:0000ff38 00000008H .xdata$_ZNSt3__16vectorI9ComponentNS_9allocatorIS1_EEE7__clearB6v15007Ev DATA
 0002:0000ff40 00000008H .xdata$_ZNSt3__116allocator_traitsINS_9allocatorI9ComponentEEE10deallocateB6v15007ERS3_PS2_y DATA
 0002:0000ff48 00000008H .xdata$_ZNSt3__16vectorI9ComponentNS_9allocatorIS1_EEE7__allocB6v15007Ev DATA
 0002:0000ff50 00000008H .xdata$_ZNKSt3__16vectorI9ComponentNS_9allocatorIS1_EEE8capacityB6v15007Ev DATA
 0002:0000ff58 00000008H .xdata$_ZNKSt3__16vectorI9ComponentNS_9allocatorIS1_EEE31__annotate_contiguous_containerB6v15007EPKvS6_S6_S6_ DATA
 0002:0000ff60 00000008H .xdata$_ZNKSt3__16vectorI9ComponentNS_9allocatorIS1_EEE4dataB6v15007Ev DATA
 0002:0000ff68 00000008H .xdata$_ZNSt3__112__to_addressB6v15007I9ComponentEEPT_S3_ DATA
 0002:0000ff70 00000020H .xdata$_ZNSt3__16vectorI9ComponentNS_9allocatorIS1_EEE22__base_destruct_at_endB6v15007EPS1_ DATA
 0002:0000ff90 00000008H .xdata$_ZNSt3__116allocator_traitsINS_9allocatorI9ComponentEEE7destroyB6v15007IS2_vEEvRS3_PT_ DATA
 0002:0000ff98 00000008H .xdata$_ZNSt3__19allocatorI9ComponentE7destroyB6v15007EPS1_ DATA
 0002:0000ffa0 00000020H .xdata$_ZNSt3__19allocatorI9ComponentE10deallocateB6v15007EPS1_y DATA
 0002:0000ffc0 00000008H .xdata$_ZNSt3__119__libcpp_deallocateB6v15007EPvyy DATA
 0002:0000ffc8 00000008H .xdata$_ZNSt3__124__is_overaligned_for_newB6v15007Ey DATA
 0002:0000ffd0 00000008H .xdata$_ZNSt3__127__do_deallocate_handle_sizeB6v15007IJSt11align_val_tEEEvPvyDpT_ DATA
 0002:0000ffd8 00000008H .xdata$_ZNSt3__127__do_deallocate_handle_sizeB6v15007IJEEEvPvyDpT_ DATA
 0002:0000ffe0 00000008H .xdata$_ZNSt3__124__libcpp_operator_deleteB6v15007IJPvSt11align_val_tEEEvDpT_ DATA
 0002:0000ffe8 00000008H .xdata$_ZNSt3__124__libcpp_operator_deleteB6v15007IJPvEEEvDpT_ DATA
 0002:0000fff0 00000008H .xdata$_ZNSt3__117__compressed_pairIP9ComponentNS_9allocatorIS1_EEE6secondB6v15007Ev DATA
 0002:0000fff8 00000008H .xdata$_ZNSt3__122__compressed_pair_elemINS_9allocatorI9ComponentEELi1ELb1EE5__getB6v15007Ev DATA
 0002:00010000 00000008H .xdata$_ZNKSt3__16vectorI9ComponentNS_9allocatorIS1_EEE9__end_capB6v15007Ev DATA
 0002:00010008 00000008H .xdata$_ZNKSt3__117__compressed_pairIP9ComponentNS_9allocatorIS1_EEE5firstB6v15007Ev DATA
 0002:00010010 00000008H .xdata$_ZNKSt3__122__compressed_pair_elemIP9ComponentLi0ELb0EE5__getB6v15007Ev DATA
 0002:00010018 00000008H .xdata$_ZNSt3__111__wrap_iterIPK9ComponentEC1B6v15007EPKvS3_ DATA
 0002:00010020 00000008H .xdata$_ZNSt3__111__wrap_iterIPK9ComponentEC2B6v15007EPKvS3_ DATA
 0002:00010028 00000044H .xdata$_ZNSt3__17getlineIcNS_11char_traitsIcEENS_9allocatorIcEEEERNS_13basic_istreamIT_T0_EES9_RNS_12basic_stringIS6_S7_T1_EES6_ DATA
 0002:0001006c 00000008H .xdata$_ZNSt3__111char_traitsIcE2eqEcc DATA
 0002:00010074 00000008H .xdata$_ZNKSt3__16vectorI9ComponentNS_9allocatorIS1_EEE17__annotate_shrinkB6v15007Ey DATA
 0002:0001007c 00000008H .xdata$_ZNSt3__125__debug_db_invalidate_allB6v15007INS_6vectorI9ComponentNS_9allocatorIS2_EEEEEEvPT_ DATA
 0002:00010084 00000008H .xdata$_ZNSt3__112basic_stringIcNS_11char_traitsIcEENS_9allocatorIcEEEC2B6v15007IDnEEPKc DATA
 0002:0001008c 00000008H .xdata$_ZNSt3__16vectorI9ComponentNS_9allocatorIS1_EEE9__end_capB6v15007Ev DATA
 0002:00010094 0000001cH .xdata$_ZNSt3__16vectorI9ComponentNS_9allocatorIS1_EEE22__construct_one_at_endB6v15007IJRKS1_EEEvDpOT_ DATA
 0002:000100b0 00000020H .xdata$_ZNSt3__16vectorI9ComponentNS_9allocatorIS1_EEE21__push_back_slow_pathIRKS1_EEvOT_ DATA
 0002:000100d0 00000008H .xdata$_ZNSt3__117__compressed_pairIP9ComponentNS_9allocatorIS1_EEE5firstB6v15007Ev DATA
 0002:000100d8 00000008H .xdata$_ZNSt3__122__compressed_pair_elemIP9ComponentLi0ELb0EE5__getB6v15007Ev DATA
 0002:000100e0 00000008H .xdata$_ZNSt3__16vectorI9ComponentNS_9allocatorIS1_EEE21_ConstructTransactionC1ERS4_y DATA
 0002:000100e8 00000008H .xdata$_ZNSt3__116allocator_traitsINS_9allocatorI9ComponentEEE9constructB6v15007IS2_JRKS2_EvEEvRS3_PT_DpOT0_ DATA
 0002:000100f0 00000008H .xdata$_ZNSt3__16vectorI9ComponentNS_9allocatorIS1_EEE21_ConstructTransactionD1Ev DATA
 0002:000100f8 00000008H .xdata$_ZNSt3__16vectorI9ComponentNS_9allocatorIS1_EEE21_ConstructTransactionC2ERS4_y DATA
 0002:00010100 00000008H .xdata$_ZNSt3__19allocatorI9ComponentE9constructB6v15007IS1_JRKS1_EEEvPT_DpOT0_ DATA
 0002:00010108 00000008H .xdata$_ZN9ComponentC1ERKS_ DATA
 0002:00010110 00000008H .xdata$_ZN9ComponentC2ERKS_ DATA
 0002:00010118 00000008H .xdata$_ZNSt3__16vectorI9ComponentNS_9allocatorIS1_EEE21_ConstructTransactionD2Ev DATA
 0002:00010120 00000008H .xdata$_ZNKSt3__16vectorI9ComponentNS_9allocatorIS1_EEE11__recommendB6v15007Ey DATA
 0002:00010128 00000008H .xdata$_ZNSt3__114__split_bufferI9ComponentRNS_9allocatorIS1_EEEC1EyyS4_ DATA
 0002:00010130 00000008H .xdata$_ZNSt3__16vectorI9ComponentNS_9allocatorIS1_EEE26__swap_out_circular_bufferERNS_14__split_bufferIS1_RS3_EE DATA
 0002:00010138 00000008H .xdata$_ZNSt3__114__split_bufferI9ComponentRNS_9allocatorIS1_EEED1Ev DATA
 0002:00010140 00000020H .xdata$_ZNKSt3__16vectorI9ComponentNS_9allocatorIS1_EEE8max_sizeEv DATA
 0002:00010160 00000008H .xdata$_ZNKSt3__16vectorI9ComponentNS_9allocatorIS1_EEE20__throw_length_errorB6v15007Ev DATA
 0002:00010168 00000008H .xdata$_ZNSt3__13maxB6v15007IyEERKT_S3_S3_ DATA
 0002:00010170 00000008H .xdata$_ZNSt3__13minB6v15007IyEERKT_S3_S3_ DATA
 0002:00010178 00000008H .xdata$_ZNSt3__116allocator_traitsINS_9allocatorI9ComponentEEE8max_sizeB6v15007IS3_vEEyRKS3_ DATA
 0002:00010180 00000008H .xdata$_ZNKSt3__16vectorI9ComponentNS_9allocatorIS1_EEE7__allocB6v15007Ev DATA
 0002:00010188 00000008H .xdata$_ZNSt3__13minB6v15007IyNS_6__lessIyyEEEERKT_S5_S5_T0_ DATA
 0002:00010190 00000008H .xdata$_ZNKSt3__16__lessIyyEclB6v15007ERKyS3_ DATA
 0002:00010198 00000008H .xdata$_ZNKSt3__19allocatorI9ComponentE8max_sizeB6v15007Ev DATA
 0002:000101a0 00000008H .xdata$_ZNKSt3__117__compressed_pairIP9ComponentNS_9allocatorIS1_EEE6secondB6v15007Ev DATA
 0002:000101a8 00000008H .xdata$_ZNKSt3__122__compressed_pair_elemINS_9allocatorI9ComponentEELi1ELb1EE5__getB6v15007Ev DATA
 0002:000101b0 0000001cH .xdata$_ZNSt3__120__throw_length_errorB6v15007EPKc DATA
 0002:000101cc 00000008H .xdata$_ZNSt12length_errorC1B6v15007EPKc DATA
 0002:000101d4 00000008H .xdata$_ZNSt12length_errorC2B6v15007EPKc DATA
 0002:000101dc 00000008H .xdata$_ZNSt3__13maxB6v15007IyNS_6__lessIyyEEEERKT_S5_S5_T0_ DATA
 0002:000101e4 00000008H .xdata$_ZNSt3__114__split_bufferI9ComponentRNS_9allocatorIS1_EEEC2EyyS4_ DATA
 0002:000101ec 00000008H .xdata$_ZNSt3__117__compressed_pairIP9ComponentRNS_9allocatorIS1_EEEC1B6v15007IDnS5_EEOT_OT0_ DATA
 0002:000101f4 00000008H .xdata$_ZNSt3__119__allocate_at_leastB6v15007INS_9allocatorI9ComponentEEEENS_19__allocation_resultINS_16allocator_traitsIT_E7pointerEEERS6_y DATA
 0002:000101fc 00000008H .xdata$_ZNSt3__114__split_bufferI9ComponentRNS_9allocatorIS1_EEE7__allocB6v15007Ev DATA
 0002:00010204 00000008H .xdata$_ZNSt3__114__split_bufferI9ComponentRNS_9allocatorIS1_EEE9__end_capB6v15007Ev DATA
 0002:0001020c 00000008H .xdata$_ZNSt3__117__compressed_pairIP9ComponentRNS_9allocatorIS1_EEEC2B6v15007IDnS5_EEOT_OT0_ DATA
 0002:00010214 00000008H .xdata$_ZNSt3__122__compressed_pair_elemIRNS_9allocatorI9ComponentEELi1ELb0EEC2B6v15007IS4_vEEOT_ DATA
 0002:0001021c 00000008H .xdata$_ZNSt3__19allocatorI9ComponentE8allocateB6v15007Ey DATA
 0002:00010224 00000008H .xdata$_ZSt28__throw_bad_array_new_lengthB6v15007v DATA
 0002:0001022c 00000008H .xdata$_ZNSt3__117__libcpp_allocateB6v15007Eyy DATA
 0002:00010234 00000008H .xdata$_ZNSt3__121__libcpp_operator_newB6v15007IJySt11align_val_tEEEPvDpT_ DATA
 0002:0001023c 00000008H .xdata$_ZNSt3__121__libcpp_operator_newB6v15007IJyEEEPvDpT_ DATA
 0002:00010244 00000008H .xdata$_ZNSt3__117__compressed_pairIP9ComponentRNS_9allocatorIS1_EEE6secondB6v15007Ev DATA
 0002:0001024c 00000008H .xdata$_ZNSt3__122__compressed_pair_elemIRNS_9allocatorI9ComponentEELi1ELb0EE5__getB6v15007Ev DATA
 0002:00010254 00000008H .xdata$_ZNSt3__117__compressed_pairIP9ComponentRNS_9allocatorIS1_EEE5firstB6v15007Ev DATA
 0002:0001025c 00000038H .xdata$_ZNSt3__142__uninitialized_allocator_move_if_noexceptB6v15007INS_9allocatorI9ComponentEENS_16reverse_iteratorIPS2_EES6_S6_EET2_RT_T0_T1_S7_ DATA
 0002:00010294 00000008H .xdata$_ZNSt3__116reverse_iteratorIP9ComponentEC1B6v15007ES2_ DATA
 0002:0001029c 00000008H .xdata$_ZNKSt3__116reverse_iteratorIP9ComponentE4baseB6v15007Ev DATA
 0002:000102a4 00000008H .xdata$_ZNSt3__14swapB6v15007IP9ComponentEENS_9enable_ifIXaasr21is_move_constructibleIT_EE5valuesr18is_move_assignableIS4_EE5valueEvE4typeERS4_S7_ DATA
 0002:000102ac 00000008H .xdata$_ZNKSt3__16vectorI9ComponentNS_9allocatorIS1_EEE14__annotate_newB6v15007Ey DATA
 0002:000102b4 00000008H .xdata$_ZNSt3__1neB6v15007IP9ComponentS2_EEbRKNS_16reverse_iteratorIT_EERKNS3_IT0_EE DATA
 0002:000102bc 00000008H .xdata$_ZNSt3__116allocator_traitsINS_9allocatorI9ComponentEEE9constructB6v15007IS2_JS2_EvEEvRS3_PT_DpOT0_ DATA
 0002:000102c4 00000008H .xdata$_ZNSt3__112__to_addressB6v15007INS_16reverse_iteratorIP9ComponentEEvEENS_5decayIDTclsr19__to_address_helperIT_EE6__callcl7declvalIRKS6_EEEEE4typeES8_ DATA
 0002:000102cc 00000008H .xdata$_ZNKSt3__116reverse_iteratorIP9ComponentEdeB6v15007Ev DATA
 0002:000102d4 00000008H .xdata$_ZNSt3__116reverse_iteratorIP9ComponentEppB6v15007Ev DATA
 0002:000102dc 00000008H .xdata$_ZNSt3__129_AllocatorDestroyRangeReverseINS_9allocatorI9ComponentEENS_16reverse_iteratorIPS2_EEEC1B6v15007ERS3_RS6_S9_ DATA
 0002:000102e4 00000008H .xdata$_ZNKSt3__129_AllocatorDestroyRangeReverseINS_9allocatorI9ComponentEENS_16reverse_iteratorIPS2_EEEclB6v15007Ev DATA
 0002:000102ec 00000008H .xdata$_ZNSt3__19allocatorI9ComponentE9constructB6v15007IS1_JS1_EEEvPT_DpOT0_ DATA
 0002:000102f4 00000008H .xdata$_ZN9ComponentC1EOS_ DATA
 0002:000102fc 00000008H .xdata$_ZN9ComponentC2EOS_ DATA
 0002:00010304 00000008H .xdata$_ZNSt3__112basic_stringIcNS_11char_traitsIcEENS_9allocatorIcEEEC1B6v15007EOS5_ DATA
 0002:0001030c 00000020H .xdata$_ZNSt3__112basic_stringIcNS_11char_traitsIcEENS_9allocatorIcEEEC2B6v15007EOS5_ DATA
 0002:0001032c 00000008H .xdata$_ZNSt3__112basic_stringIcNS_11char_traitsIcEENS_9allocatorIcEEE14__default_initB6v15007Ev DATA
 0002:00010334 00000008H .xdata$_ZNSt3__115__debug_db_swapB6v15007INS_12basic_stringIcNS_11char_traitsIcEENS_9allocatorIcEEEEEEvPT_S8_ DATA
 0002:0001033c 00000008H .xdata$_ZNSt3__112basic_stringIcNS_11char_traitsIcEENS_9allocatorIcEEE6__zeroB6v15007Ev DATA
 0002:00010344 00000020H .xdata$_ZNSt3__119__to_address_helperINS_16reverse_iteratorIP9ComponentEEvE6__callB6v15007ERKS4_ DATA
 0002:00010364 00000008H .xdata$_ZNKSt3__116reverse_iteratorIP9ComponentEptB6v15007Ev DATA
 0002:0001036c 00000008H .xdata$_ZNSt3__129_AllocatorDestroyRangeReverseINS_9allocatorI9ComponentEENS_16reverse_iteratorIPS2_EEEC2B6v15007ERS3_RS6_S9_ DATA
 0002:00010374 00000008H .xdata$_ZNSt3__119__allocator_destroyB6v15007INS_9allocatorI9ComponentEENS_16reverse_iteratorINS4_IPS2_EEEES7_EEvRT_T0_T1_ DATA
 0002:0001037c 00000008H .xdata$_ZNSt3__116reverse_iteratorINS0_IP9ComponentEEEC1B6v15007ES3_ DATA
 0002:00010384 00000008H .xdata$_ZNSt3__1neB6v15007INS_16reverse_iteratorIP9ComponentEES4_EEbRKNS1_IT_EERKNS1_IT0_EE DATA
 0002:0001038c 00000008H .xdata$_ZNSt3__112__to_addressB6v15007INS_16reverse_iteratorINS1_IP9ComponentEEEEvEENS_5decayIDTclsr19__to_address_helperIT_EE6__callcl7declvalIRKS7_EEEEE4typeES9_ DATA
 0002:00010394 00000008H .xdata$_ZNSt3__116reverse_iteratorINS0_IP9ComponentEEEppB6v15007Ev DATA
 0002:0001039c 00000008H .xdata$_ZNKSt3__116reverse_iteratorINS0_IP9ComponentEEE4baseB6v15007Ev DATA
 0002:000103a4 00000020H .xdata$_ZNSt3__119__to_address_helperINS_16reverse_iteratorINS1_IP9ComponentEEEEvE6__callB6v15007ERKS5_ DATA
 0002:000103c4 00000008H .xdata$_ZNKSt3__116reverse_iteratorINS0_IP9ComponentEEEptB6v15007Ev DATA
 0002:000103cc 00000008H .xdata$_ZNKSt3__116reverse_iteratorINS0_IP9ComponentEEEdeB6v15007Ev DATA
 0002:000103d4 00000008H .xdata$_ZNSt3__116reverse_iteratorIP9ComponentEmmB6v15007Ev DATA
 0002:000103dc 00000008H .xdata$_ZNSt3__116reverse_iteratorINS0_IP9ComponentEEEC2B6v15007ES3_ DATA
 0002:000103e4 00000008H .xdata$_ZNSt3__116reverse_iteratorIP9ComponentEC2B6v15007ES2_ DATA
 0002:000103ec 00000020H .xdata$_ZNSt3__114__split_bufferI9ComponentRNS_9allocatorIS1_EEED2Ev DATA
 0002:0001040c 00000008H .xdata$_ZNSt3__114__split_bufferI9ComponentRNS_9allocatorIS1_EEE5clearB6v15007Ev DATA
 0002:00010414 00000008H .xdata$_ZNKSt3__114__split_bufferI9ComponentRNS_9allocatorIS1_EEE8capacityB6v15007Ev DATA
 0002:0001041c 00000008H .xdata$_ZNSt3__114__split_bufferI9ComponentRNS_9allocatorIS1_EEE17__destruct_at_endB6v15007EPS1_ DATA
 0002:00010424 00000020H .xdata$_ZNSt3__114__split_bufferI9ComponentRNS_9allocatorIS1_EEE17__destruct_at_endB6v15007EPS1_NS_17integral_constantIbLb0EEE DATA
 0002:00010444 00000008H .xdata$_ZNKSt3__114__split_bufferI9ComponentRNS_9allocatorIS1_EEE9__end_capB6v15007Ev DATA
 0002:0001044c 00000008H .xdata$_ZNKSt3__117__compressed_pairIP9ComponentRNS_9allocatorIS1_EEE5firstB6v15007Ev DATA
 0002:00010454 00000008H .xdata$_ZNSt3__111__wrap_iterIP9ComponentEC1B6v15007EPKvS2_ DATA
 0002:0001045c 00000008H .xdata$_ZNSt3__111__wrap_iterIP9ComponentEC2B6v15007EPKvS2_ DATA
 0002:00010464 000000e8H .xdata                  DATA
 0002:0001054c 00000020H .xdata$_ZN6System11AnsiStringTILt0EED2Ev DATA
 0002:0001056c 00000008H .xdata$_ZNKSt3__112basic_stringIcNS_11char_traitsIcEENS_9allocatorIcEEE5c_strB6v15007Ev DATA
 0002:00010574 00000008H .xdata$_ZNSt3__16vectorI9ComponentNS_9allocatorIS1_EEEixB6v15007Ey DATA
 0002:0001057c 00000008H .xdata$_ZN6System11AnsiStringTILt0EEC1ERKNS_13UnicodeStringE DATA
 0002:00010584 00000008H .xdata$_ZNK6System11AnsiStringTILt0EE5c_strEv DATA
 0002:0001058c 00000008H .xdata$_ZN6System11AnsiStringTILt0EED1Ev DATA
 0002:00010594 00000008H .xdata$_ZN11TDetailFormD0Ev DATA
 0002:0001059c 00000008H .xdata$_ZN6System11AnsiStringTILt0EEC2ERKNS_13UnicodeStringE DATA
 0002:000105a4 00000020H .xdata$_ZN6System11AnsiStringTILt0EED2Ev DATA
 0002:000105c4 00000008H .xdata$_ZN6System11AnsiStringTILt0EEC1Ev DATA
 0002:000105cc 00000008H .xdata$_ZN6System11AnsiStringTILt0EEC1ERKS1_ DATA
 0002:000105d4 00000008H .xdata$_ZN6System11AnsiStringTILt0EEC2Ev DATA
 0002:000105dc 00000008H .xdata$_ZN6System14AnsiStringBaseC2Ev DATA
 0002:000105e4 00000008H .xdata$_ZN6System11AnsiStringTILt0EEC2ERKS1_ DATA
 0002:000105ec 000002a0H .xdata                  DATA
 0002:0001088c 0000002cH .xdata$_ZNSt3__114basic_ifstreamIcNS_11char_traitsIcEEEC1EPKcj DATA
 0002:000108b8 0000002cH .xdata$_ZNSt3__114basic_ofstreamIcNS_11char_traitsIcEEEC1EPKcj DATA
 0002:000108e4 00000020H .xdata$_ZNSt3__16vectorI9ComponentNS_9allocatorIS1_EEED2B6v15007Ev DATA
 0002:00010904 00000020H .xdata$_ZNSt3__16vectorI9ComponentNS_9allocatorIS1_EEE22__base_destruct_at_endB6v15007EPS1_ DATA
 0002:00010924 00000020H .xdata$_ZNSt3__19allocatorI9ComponentE10deallocateB6v15007EPS1_y DATA
 0002:00010944 00000028H .xdata$_ZNSt3__113basic_filebufIcNS_11char_traitsIcEEED2Ev DATA
 0002:0001096c 0000001cH .xdata$_ZNSt3__113basic_filebufIcNS_11char_traitsIcEEE5closeEv DATA
 0002:00010988 00000020H .xdata$_ZNSt3__110unique_ptrI6_iobufPFiPS1_EEC2B6v15007ILb1EvEES2_NS_16__dependent_typeINS_27__unique_ptr_deleter_sfinaeIS4_EEXT_EE20__good_rval_ref_typeE DATA
 0002:000109a8 00000020H .xdata$_ZNSt3__110unique_ptrI6_iobufPFiPS1_EE5resetB6v15007ES2_ DATA
 0002:000109c8 00000020H .xdata$_ZN6System11AnsiStringTILt0EED2Ev DATA
 0002:000109e8 00000044H .xdata$_ZNSt3__124__put_character_sequenceIcNS_11char_traitsIcEEEERNS_13basic_ostreamIT_T0_EES7_PKS4_y DATA
 0002:00010a2c 00000024H .xdata$_ZNSt3__116__pad_and_outputIcNS_11char_traitsIcEEEENS_19ostreambuf_iteratorIT_T0_EES6_PKS4_S8_S8_RNS_8ios_baseES4_ DATA
 0002:00010a50 00000020H .xdata$_ZNSt3__119ostreambuf_iteratorIcNS_11char_traitsIcEEEC2B6v15007ERNS_13basic_ostreamIcS2_EE DATA
 0002:00010a70 0000001cH .xdata$_ZNKSt3__19basic_iosIcNS_11char_traitsIcEEE5widenB6v15007Ec DATA
 0002:00010a8c 00000034H .xdata$_ZNSt3__113basic_ostreamIcNS_11char_traitsIcEEE6sentryD2Ev DATA
 0002:00010ac0 00000020H .xdata$_ZNSt3__16vectorI8ComputerNS_9allocatorIS1_EEEC2B6v15007Ev DATA
 0002:00010ae0 00000020H .xdata$_ZNSt3__16vectorI8ComputerNS_9allocatorIS1_EEED2B6v15007Ev DATA
 0002:00010b00 00000020H .xdata$_ZNSt3__16vectorI8ComputerNS_9allocatorIS1_EEE22__base_destruct_at_endB6v15007EPS1_ DATA
 0002:00010b20 00000020H .xdata$_ZNSt3__19allocatorI8ComputerE10deallocateB6v15007EPS1_y DATA
 0002:00010b40 0000002cH .xdata$_ZNSt3__113basic_filebufIcNS_11char_traitsIcEEEC2Ev DATA
 0002:00010b6c 00000020H .xdata$_ZNSt3__19has_facetB6v15007INS_7codecvtIcc9_MbstatetEEEEbRKNS_6localeE DATA
 0002:00010b8c 0000001cH .xdata$_ZNSt3__16vectorI8ComputerNS_9allocatorIS1_EEE22__construct_one_at_endB6v15007IJRKS1_EEEvDpOT_ DATA
 0002:00010ba8 00000020H .xdata$_ZNSt3__16vectorI8ComputerNS_9allocatorIS1_EEE21__push_back_slow_pathIRKS1_EEvOT_ DATA
 0002:00010bc8 00000024H .xdata$_ZN8ComputerC2ERKS_ DATA
 0002:00010bec 00000020H .xdata$_ZNSt3__16vectorI9ComponentNS_9allocatorIS1_EEEC2ERKS4_ DATA
 0002:00010c0c 0000001cH .xdata$_ZNSt3__16vectorI9ComponentNS_9allocatorIS1_EEE18__construct_at_endIPS1_EENS_9enable_ifIXsr27__is_cpp17_forward_iteratorIT_EE5valueEvE4typeES8_S8_y DATA
 0002:00010c28 00000020H .xdata$_ZNKSt3__16vectorI9ComponentNS_9allocatorIS1_EEE8max_sizeEv DATA
 0002:00010c48 0000001cH .xdata$_ZNSt3__120__throw_length_errorB6v15007EPKc DATA
 0002:00010c64 00000034H .xdata$_ZNSt3__130__uninitialized_allocator_copyB6v15007INS_9allocatorI9ComponentEEPS2_S4_S4_EET2_RT_T0_T1_S5_ DATA
 0002:00010c98 00000020H .xdata$_ZNSt3__119__to_address_helperINS_16reverse_iteratorIP9ComponentEEvE6__callB6v15007ERKS4_ DATA
 0002:00010cb8 00000020H .xdata$_ZNSt3__113__transactionINS_6vectorI9ComponentNS_9allocatorIS2_EEE16__destroy_vectorEED2B6v15007Ev DATA
 0002:00010cd8 00000020H .xdata$_ZNKSt3__16vectorI8ComputerNS_9allocatorIS1_EEE8max_sizeEv DATA
 0002:00010cf8 00000038H .xdata$_ZNSt3__142__uninitialized_allocator_move_if_noexceptB6v15007INS_9allocatorI8ComputerEENS_16reverse_iteratorIPS2_EES6_S6_EET2_RT_T0_T1_S7_ DATA
 0002:00010d30 00000020H .xdata$_ZNSt3__16vectorI9ComponentNS_9allocatorIS1_EEEC2B6v15007EOS4_ DATA
 0002:00010d50 00000020H .xdata$_ZNSt3__112basic_stringIcNS_11char_traitsIcEENS_9allocatorIcEEEC2B6v15007EOS5_ DATA
 0002:00010d70 00000020H .xdata$_ZNSt3__119__to_address_helperINS_16reverse_iteratorIP8ComputerEEvE6__callB6v15007ERKS4_ DATA
 0002:00010d90 00000020H .xdata$_ZNSt3__119__to_address_helperINS_16reverse_iteratorINS1_IP8ComputerEEEEvE6__callB6v15007ERKS5_ DATA
 0002:00010db0 00000020H .xdata$_ZNSt3__114__split_bufferI8ComputerRNS_9allocatorIS1_EEED2Ev DATA
 0002:00010dd0 00000020H .xdata$_ZNSt3__114__split_bufferI8ComputerRNS_9allocatorIS1_EEE17__destruct_at_endB6v15007EPS1_NS_17integral_constantIbLb0EEE DATA
 0002:00010df0 00000020H .xdata$_ZNSt3__16vectorI8ComputerNS_9allocatorIS1_EEE17__destruct_at_endB6v15007EPS1_ DATA
 0002:00010e10 00000020H .xdata$_ZNSt3__113__rewrap_iterB6v15007IP8ComputerS2_NS_18__unwrap_iter_implIS2_Lb1EEEEET_S5_T0_ DATA
 0002:00010e30 00000020H .xdata$_ZNSt3__16vectorI9ComponentNS_9allocatorIS1_EEE5clearB6v15007Ev DATA
 0002:00010e50 00000020H .xdata$_ZNSt3__19allocatorIcE10deallocateB6v15007EPcy DATA
 0002:00010e70 00000008H .xdata$_ZNSt3__16vectorI8ComputerNS_9allocatorIS1_EEEC1B6v15007Ev DATA
 0002:00010e78 00000008H .xdata$_ZNSt3__16vectorI8ComputerNS_9allocatorIS1_EEED1B6v15007Ev DATA
 0002:00010e80 00000008H .xdata$_ZNKSt3__16vectorI8ComputerNS_9allocatorIS1_EEE4sizeB6v15007Ev DATA
 0002:00010e88 00000008H .xdata$_ZNSt3__16vectorI8ComputerNS_9allocatorIS1_EEEixB6v15007Ey DATA
 0002:00010e90 0000002cH .xdata$_ZNSt3__114basic_ifstreamIcNS_11char_traitsIcEEEC1EPKcj DATA
 0002:00010ebc 00000008H .xdata$_ZNKSt3__19basic_iosIcNS_11char_traitsIcEEEcvbB6v15007Ev DATA
 0002:00010ec4 00000008H .xdata$_ZNSt3__16vectorI8ComputerNS_9allocatorIS1_EEE9push_backB6v15007ERKS1_ DATA
 0002:00010ecc 00000008H .xdata$_ZN8ComputerD1Ev DATA
 0002:00010ed4 00000008H .xdata$_ZNSt3__114basic_ifstreamIcNS_11char_traitsIcEEE5closeEv DATA
 0002:00010edc 00000008H .xdata$_ZNSt3__1plB6v15007IcNS_11char_traitsIcEENS_9allocatorIcEEEENS_12basic_stringIT_T0_T1_EEPKS6_OS9_ DATA
 0002:00010ee4 0000002cH .xdata$_ZNSt3__114basic_ofstreamIcNS_11char_traitsIcEEEC1EPKcj DATA
 0002:00010f10 00000008H .xdata$_ZNSt3__16vectorI8ComputerNS_9allocatorIS1_EEE5beginB6v15007Ev DATA
 0002:00010f18 00000008H .xdata$_ZNSt3__16vectorI8ComputerNS_9allocatorIS1_EEE3endB6v15007Ev DATA
 0002:00010f20 00000008H .xdata$_ZNSt3__1neB6v15007IP8ComputerEEbRKNS_11__wrap_iterIT_EES7_ DATA
 0002:00010f28 00000008H .xdata$_ZNKSt3__111__wrap_iterIP8ComputerEdeB6v15007Ev DATA
 0002:00010f30 00000008H .xdata$_ZNSt3__111__wrap_iterIP8ComputerEppB6v15007Ev DATA
 0002:00010f38 00000008H .xdata$_ZNSt3__114basic_ofstreamIcNS_11char_traitsIcEEE5closeEv DATA
 0002:00010f40 00000008H .xdata$_ZNSt3__114basic_ofstreamIcNS_11char_traitsIcEEED1Ev DATA
 0002:00010f48 00000008H .xdata$_ZNSt3__114basic_ifstreamIcNS_11char_traitsIcEEED1Ev DATA
 0002:00010f50 00000008H .xdata$_ZN6System3SetINS_7Uitypes10TMsgDlgBtnELS2_0ELS2_11EEC1Ev DATA
 0002:00010f58 00000008H .xdata$_ZN6System3SetINS_7Uitypes10TMsgDlgBtnELS2_0ELS2_11EElsES2_ DATA
 0002:00010f60 00000008H .xdata$_ZNSt3__16vectorI8ComputerNS_9allocatorIS1_EEE5eraseB6v15007ENS_11__wrap_iterIPKS1_EE DATA
 0002:00010f68 00000008H .xdata$_ZNKSt3__111__wrap_iterIP8ComputerEplB6v15007Ex DATA
 0002:00010f70 00000008H .xdata$_ZNSt3__111__wrap_iterIPK8ComputerEC1B6v15007IPS1_EERKNS0_IT_EEPNS_9enable_ifIXsr14is_convertibleIS7_S3_EE5valueEvE4typeE DATA
 0002:00010f78 00000008H .xdata$_ZN9THomeFormD0Ev DATA
 0002:00010f80 00000008H .xdata$_ZN8ComputerD2Ev DATA
 0002:00010f88 00000008H .xdata$_ZNSt3__1eqB6v15007IP8ComputerEEbRKNS_11__wrap_iterIT_EES7_ DATA
 0002:00010f90 00000008H .xdata$_ZNKSt3__111__wrap_iterIP8ComputerE4baseB6v15007Ev DATA
 0002:00010f98 00000008H .xdata$_ZNSt3__114basic_ofstreamIcNS_11char_traitsIcEEED2Ev DATA
 0002:00010fa0 00000008H .xdata$_ZTv0_n24_NSt3__114basic_ofstreamIcNS_11char_traitsIcEEED1Ev DATA
 0002:00010fa8 00000008H .xdata$_ZNSt3__114basic_ofstreamIcNS_11char_traitsIcEEED0Ev DATA
 0002:00010fb0 00000008H .xdata$_ZTv0_n24_NSt3__114basic_ofstreamIcNS_11char_traitsIcEEED0Ev DATA
 0002:00010fb8 00000008H .xdata$_ZNSt3__113basic_filebufIcNS_11char_traitsIcEEED1Ev DATA
 0002:00010fc0 00000028H .xdata$_ZNSt3__113basic_filebufIcNS_11char_traitsIcEEED2Ev DATA
 0002:00010fe8 0000001cH .xdata$_ZNSt3__113basic_filebufIcNS_11char_traitsIcEEE5closeEv DATA
 0002:00011004 00000008H .xdata$_ZNSt3__113basic_filebufIcNS_11char_traitsIcEEED0Ev DATA
 0002:0001100c 00000008H .xdata$_ZNSt3__113basic_filebufIcNS_11char_traitsIcEEE5imbueERKNS_6localeE DATA
 0002:00011014 00000008H .xdata$_ZNSt3__113basic_filebufIcNS_11char_traitsIcEEE6setbufEPcx DATA
 0002:0001101c 00000008H .xdata$_ZNSt3__113basic_filebufIcNS_11char_traitsIcEEE7seekoffExNS_8ios_base7seekdirEj DATA
 0002:00011024 00000008H .xdata$_ZNSt3__113basic_filebufIcNS_11char_traitsIcEEE7seekposENS_4fposI9_MbstatetEEj DATA
 0002:0001102c 00000008H .xdata$_ZNSt3__113basic_filebufIcNS_11char_traitsIcEEE4syncEv DATA
 0002:00011034 0000000cH .xdata$_ZNSt3__113basic_filebufIcNS_11char_traitsIcEEE9underflowEv DATA
 0002:00011040 00000008H .xdata$_ZNSt3__113basic_filebufIcNS_11char_traitsIcEEE9pbackfailEi DATA
 0002:00011048 0000000cH .xdata$_ZNSt3__113basic_filebufIcNS_11char_traitsIcEEE8overflowEi DATA
 0002:00011054 00000008H .xdata$_ZNSt3__110unique_ptrI6_iobufPFiPS1_EEC1B6v15007ILb1EvEES2_NS_16__dependent_typeINS_27__unique_ptr_deleter_sfinaeIS4_EEXT_EE20__good_rval_ref_typeE DATA
 0002:0001105c 00000008H .xdata$_ZNSt3__110unique_ptrI6_iobufPFiPS1_EE7releaseB6v15007Ev DATA
 0002:00011064 00000008H .xdata$_ZNSt3__110unique_ptrI6_iobufPFiPS1_EED1B6v15007Ev DATA
 0002:0001106c 00000020H .xdata$_ZNSt3__110unique_ptrI6_iobufPFiPS1_EEC2B6v15007ILb1EvEES2_NS_16__dependent_typeINS_27__unique_ptr_deleter_sfinaeIS4_EEXT_EE20__good_rval_ref_typeE DATA
 0002:0001108c 00000008H .xdata$_ZNSt3__117__compressed_pairIP6_iobufPFiS2_EEC1B6v15007IRS2_S4_EEOT_OT0_ DATA
 0002:00011094 00000008H .xdata$_ZNSt3__117__compressed_pairIP6_iobufPFiS2_EEC2B6v15007IRS2_S4_EEOT_OT0_ DATA
 0002:0001109c 00000008H .xdata$_ZNSt3__122__compressed_pair_elemIP6_iobufLi0ELb0EEC2B6v15007IRS2_vEEOT_ DATA
 0002:000110a4 00000008H .xdata$_ZNSt3__122__compressed_pair_elemIPFiP6_iobufELi1ELb0EEC2B6v15007IS4_vEEOT_ DATA
 0002:000110ac 00000008H .xdata$_ZNSt3__117__compressed_pairIP6_iobufPFiS2_EE5firstB6v15007Ev DATA
 0002:000110b4 00000008H .xdata$_ZNSt3__122__compressed_pair_elemIP6_iobufLi0ELb0EE5__getB6v15007Ev DATA
 0002:000110bc 00000008H .xdata$_ZNSt3__110unique_ptrI6_iobufPFiPS1_EED2B6v15007Ev DATA
 0002:000110c4 00000020H .xdata$_ZNSt3__110unique_ptrI6_iobufPFiPS1_EE5resetB6v15007ES2_ DATA
 0002:000110e4 00000008H .xdata$_ZNSt3__117__compressed_pairIP6_iobufPFiS2_EE6secondB6v15007Ev DATA
 0002:000110ec 00000008H .xdata$_ZNSt3__122__compressed_pair_elemIPFiP6_iobufELi1ELb0EE5__getB6v15007Ev DATA
 0002:000110f4 00000008H .xdata$_ZNSt3__19use_facetB6v15007INS_7codecvtIcc9_MbstatetEEEERKT_RKNS_6localeE DATA
 0002:000110fc 00000008H .xdata$_ZNKSt3__17codecvtIcc9_MbstatetE13always_noconvB6v15007Ev DATA
 0002:00011104 00000008H .xdata$_ZNSt3__115basic_streambufIcNS_11char_traitsIcEEE4setgB6v15007EPcS4_S4_ DATA
 0002:0001110c 00000008H .xdata$_ZNSt3__115basic_streambufIcNS_11char_traitsIcEEE4setpB6v15007EPcS4_ DATA
 0002:00011114 00000008H .xdata$_ZNSt3__13maxB6v15007IxEERKT_S3_S3_ DATA
 0002:0001111c 00000008H .xdata$_ZNSt3__13maxB6v15007IxNS_6__lessIxxEEEERKT_S5_S5_T0_ DATA
 0002:00011124 00000008H .xdata$_ZNKSt3__16__lessIxxEclB6v15007ERKxS3_ DATA
 0002:0001112c 00000008H .xdata$_ZNSt3__116__throw_bad_castB6v15007Ev DATA
 0002:00011134 00000008H .xdata$_ZNKSt3__17codecvtIcc9_MbstatetE8encodingB6v15007Ev DATA
 0002:0001113c 00000008H .xdata$_ZNSt3__14fposI9_MbstatetEC1B6v15007Ex DATA
 0002:00011144 00000008H .xdata$_ZNSt3__14fposI9_MbstatetE5stateB6v15007ES1_ DATA
 0002:0001114c 00000008H .xdata$_ZNSt3__14fposI9_MbstatetEC2B6v15007Ex DATA
 0002:00011154 00000008H .xdata$_ZNKSt3__14fposI9_MbstatetEcvxB6v15007Ev DATA
 0002:0001115c 00000008H .xdata$_ZNKSt3__14fposI9_MbstatetE5stateB6v15007Ev DATA
 0002:00011164 00000008H .xdata$_ZNKSt3__115basic_streambufIcNS_11char_traitsIcEEE4pptrB6v15007Ev DATA
 0002:0001116c 00000008H .xdata$_ZNKSt3__115basic_streambufIcNS_11char_traitsIcEEE5pbaseB6v15007Ev DATA
 0002:00011174 00000008H .xdata$_ZNKSt3__17codecvtIcc9_MbstatetE7unshiftB6v15007ERS1_PcS4_RS4_ DATA
 0002:0001117c 00000008H .xdata$_ZNKSt3__115basic_streambufIcNS_11char_traitsIcEEE5egptrB6v15007Ev DATA
 0002:00011184 00000008H .xdata$_ZNKSt3__115basic_streambufIcNS_11char_traitsIcEEE4gptrB6v15007Ev DATA
 0002:0001118c 00000008H .xdata$_ZNKSt3__17codecvtIcc9_MbstatetE6lengthB6v15007ERS1_PKcS5_y DATA
 0002:00011194 00000008H .xdata$_ZNKSt3__115basic_streambufIcNS_11char_traitsIcEEE5ebackB6v15007Ev DATA
 0002:0001119c 00000008H .xdata$_ZNSt3__113basic_filebufIcNS_11char_traitsIcEEE11__read_modeEv DATA
 0002:000111a4 0000000cH .xdata$_ZNKSt3__17codecvtIcc9_MbstatetE2inB6v15007ERS1_PKcS5_RS5_PcS7_RS7_ DATA
 0002:000111b0 00000008H .xdata$_ZNSt3__115basic_streambufIcNS_11char_traitsIcEEE5gbumpB6v15007Ei DATA
 0002:000111b8 00000008H .xdata$_ZNSt3__111char_traitsIcE7not_eofEi DATA
 0002:000111c0 00000008H .xdata$_ZNSt3__113basic_filebufIcNS_11char_traitsIcEEE12__write_modeEv DATA
 0002:000111c8 00000008H .xdata$_ZNKSt3__115basic_streambufIcNS_11char_traitsIcEEE5epptrB6v15007Ev DATA
 0002:000111d0 00000008H .xdata$_ZNSt3__115basic_streambufIcNS_11char_traitsIcEEE5pbumpB6v15007Ei DATA
 0002:000111d8 0000000cH .xdata$_ZNKSt3__17codecvtIcc9_MbstatetE3outB6v15007ERS1_PKcS5_RS5_PcS7_RS7_ DATA
 0002:000111e4 00000008H .xdata$_ZNSt3__115basic_streambufIcNS_11char_traitsIcEEE7__pbumpB6v15007Ex DATA
 0002:000111ec 00000008H .xdata$_ZNSt3__114basic_ifstreamIcNS_11char_traitsIcEEED2Ev DATA
 0002:000111f4 00000008H .xdata$_ZTv0_n24_NSt3__114basic_ifstreamIcNS_11char_traitsIcEEED1Ev DATA
 0002:000111fc 00000008H .xdata$_ZNSt3__114basic_ifstreamIcNS_11char_traitsIcEEED0Ev DATA
 0002:00011204 00000008H .xdata$_ZTv0_n24_NSt3__114basic_ifstreamIcNS_11char_traitsIcEEED0Ev DATA
 0002:0001120c 00000008H .xdata$_ZNSt3__111__wrap_iterIP8ComputerEpLB6v15007Ex DATA
 0002:00011214 00000008H .xdata$_ZNSt3__111__wrap_iterIPK8ComputerEC2B6v15007IPS1_EERKNS0_IT_EEPNS_9enable_ifIXsr14is_convertibleIS7_S3_EE5valueEvE4typeE DATA
 0002:0001121c 00000020H .xdata$_ZNSt3__16vectorI8ComputerNS_9allocatorIS1_EEEC2B6v15007Ev DATA
 0002:0001123c 00000008H .xdata$_ZNSt3__117__compressed_pairIP8ComputerNS_9allocatorIS1_EEEC1B6v15007IDnNS_18__default_init_tagEEEOT_OT0_ DATA
 0002:00011244 00000008H .xdata$_ZNSt3__119__debug_db_insert_cB6v15007INS_6vectorI8ComputerNS_9allocatorIS2_EEEEEEvPT_ DATA
 0002:0001124c 00000008H .xdata$_ZNSt3__117__compressed_pairIP8ComputerNS_9allocatorIS1_EEEC2B6v15007IDnNS_18__default_init_tagEEEOT_OT0_ DATA
 0002:00011254 00000008H .xdata$_ZNSt3__122__compressed_pair_elemIP8ComputerLi0ELb0EEC2B6v15007IDnvEEOT_ DATA
 0002:0001125c 00000008H .xdata$_ZNSt3__122__compressed_pair_elemINS_9allocatorI8ComputerEELi1ELb1EEC2B6v15007ENS_18__default_init_tagE DATA
 0002:00011264 00000008H .xdata$_ZNSt3__19allocatorI8ComputerEC2B6v15007Ev DATA
 0002:0001126c 00000008H .xdata$_ZNSt3__116__non_trivial_ifILb1ENS_9allocatorI8ComputerEEEC2B6v15007Ev DATA
 0002:00011274 00000020H .xdata$_ZNSt3__16vectorI8ComputerNS_9allocatorIS1_EEED2B6v15007Ev DATA
 0002:00011294 00000008H .xdata$_ZNSt3__16vectorI8ComputerNS_9allocatorIS1_EEE16__destroy_vectorC1ERS4_ DATA
 0002:0001129c 00000008H .xdata$_ZNSt3__16vectorI8ComputerNS_9allocatorIS1_EEE16__destroy_vectorclB6v15007Ev DATA
 0002:000112a4 00000008H .xdata$_ZNSt3__16vectorI8ComputerNS_9allocatorIS1_EEE16__destroy_vectorC2ERS4_ DATA
 0002:000112ac 00000008H .xdata$_ZNKSt3__16vectorI8ComputerNS_9allocatorIS1_EEE17__annotate_deleteB6v15007Ev DATA
 0002:000112b4 00000008H .xdata$_ZNSt3__118__debug_db_erase_cB6v15007INS_6vectorI8ComputerNS_9allocatorIS2_EEEEEEvPT_ DATA
 0002:000112bc 00000008H .xdata$_ZNSt3__16vectorI8ComputerNS_9allocatorIS1_EEE7__clearB6v15007Ev DATA
 0002:000112c4 00000008H .xdata$_ZNSt3__116allocator_traitsINS_9allocatorI8ComputerEEE10deallocateB6v15007ERS3_PS2_y DATA
 0002:000112cc 00000008H .xdata$_ZNSt3__16vectorI8ComputerNS_9allocatorIS1_EEE7__allocB6v15007Ev DATA
 0002:000112d4 00000008H .xdata$_ZNKSt3__16vectorI8ComputerNS_9allocatorIS1_EEE8capacityB6v15007Ev DATA
 0002:000112dc 00000008H .xdata$_ZNKSt3__16vectorI8ComputerNS_9allocatorIS1_EEE31__annotate_contiguous_containerB6v15007EPKvS6_S6_S6_ DATA
 0002:000112e4 00000008H .xdata$_ZNKSt3__16vectorI8ComputerNS_9allocatorIS1_EEE4dataB6v15007Ev DATA
 0002:000112ec 00000008H .xdata$_ZNSt3__112__to_addressB6v15007I8ComputerEEPT_S3_ DATA
 0002:000112f4 00000020H .xdata$_ZNSt3__16vectorI8ComputerNS_9allocatorIS1_EEE22__base_destruct_at_endB6v15007EPS1_ DATA
 0002:00011314 00000008H .xdata$_ZNSt3__116allocator_traitsINS_9allocatorI8ComputerEEE7destroyB6v15007IS2_vEEvRS3_PT_ DATA
 0002:0001131c 00000008H .xdata$_ZNSt3__19allocatorI8ComputerE7destroyB6v15007EPS1_ DATA
 0002:00011324 00000020H .xdata$_ZNSt3__19allocatorI8ComputerE10deallocateB6v15007EPS1_y DATA
 0002:00011344 00000008H .xdata$_ZNSt3__117__compressed_pairIP8ComputerNS_9allocatorIS1_EEE6secondB6v15007Ev DATA
 0002:0001134c 00000008H .xdata$_ZNSt3__122__compressed_pair_elemINS_9allocatorI8ComputerEELi1ELb1EE5__getB6v15007Ev DATA
 0002:00011354 00000008H .xdata$_ZNKSt3__16vectorI8ComputerNS_9allocatorIS1_EEE9__end_capB6v15007Ev DATA
 0002:0001135c 00000008H .xdata$_ZNKSt3__117__compressed_pairIP8ComputerNS_9allocatorIS1_EEE5firstB6v15007Ev DATA
 0002:00011364 00000008H .xdata$_ZNKSt3__122__compressed_pair_elemIP8ComputerLi0ELb0EE5__getB6v15007Ev DATA
 0002:0001136c 00000008H .xdata$_ZNSt3__19basic_iosIcNS_11char_traitsIcEEEC2B6v15007Ev DATA
 0002:00011374 00000008H .xdata$_ZNSt3__113basic_istreamIcNS_11char_traitsIcEEEC2B6v15007EPNS_15basic_streambufIcS2_EE DATA
 0002:0001137c 00000008H .xdata$_ZNSt3__113basic_filebufIcNS_11char_traitsIcEEEC1Ev DATA
 0002:00011384 00000008H .xdata$_ZNSt3__113basic_filebufIcNS_11char_traitsIcEEE4openEPKcj DATA
 0002:0001138c 00000008H .xdata$_ZNSt3__18ios_baseC2B6v15007Ev DATA
 0002:00011394 00000008H .xdata$_ZNSt3__19basic_iosIcNS_11char_traitsIcEEE4initB6v15007EPNS_15basic_streambufIcS2_EE DATA
 0002:0001139c 0000002cH .xdata$_ZNSt3__113basic_filebufIcNS_11char_traitsIcEEEC2Ev DATA
 0002:000113c8 00000020H .xdata$_ZNSt3__19has_facetB6v15007INS_7codecvtIcc9_MbstatetEEEEbRKNS_6localeE DATA
 0002:000113e8 00000008H .xdata$_ZNKSt3__115basic_streambufIcNS_11char_traitsIcEEE6getlocB6v15007Ev DATA
 0002:000113f0 00000008H .xdata$_ZNSt3__113basic_filebufIcNS_11char_traitsIcEEE15__make_mdstringEj DATA
 0002:000113f8 00000008H .xdata$_ZNKSt3__19basic_iosIcNS_11char_traitsIcEEE4failB6v15007Ev DATA
 0002:00011400 00000008H .xdata$_ZNKSt3__18ios_base4failB6v15007Ev DATA
 0002:00011408 00000008H .xdata$_ZNSt3__16vectorI8ComputerNS_9allocatorIS1_EEE9__end_capB6v15007Ev DATA
 0002:00011410 0000001cH .xdata$_ZNSt3__16vectorI8ComputerNS_9allocatorIS1_EEE22__construct_one_at_endB6v15007IJRKS1_EEEvDpOT_ DATA
 0002:0001142c 00000020H .xdata$_ZNSt3__16vectorI8ComputerNS_9allocatorIS1_EEE21__push_back_slow_pathIRKS1_EEvOT_ DATA
 0002:0001144c 00000008H .xdata$_ZNSt3__117__compressed_pairIP8ComputerNS_9allocatorIS1_EEE5firstB6v15007Ev DATA
 0002:00011454 00000008H .xdata$_ZNSt3__122__compressed_pair_elemIP8ComputerLi0ELb0EE5__getB6v15007Ev DATA
 0002:0001145c 00000008H .xdata$_ZNSt3__16vectorI8ComputerNS_9allocatorIS1_EEE21_ConstructTransactionC1ERS4_y DATA
 0002:00011464 00000008H .xdata$_ZNSt3__116allocator_traitsINS_9allocatorI8ComputerEEE9constructB6v15007IS2_JRKS2_EvEEvRS3_PT_DpOT0_ DATA
 0002:0001146c 00000008H .xdata$_ZNSt3__16vectorI8ComputerNS_9allocatorIS1_EEE21_ConstructTransactionD1Ev DATA
 0002:00011474 00000008H .xdata$_ZNSt3__16vectorI8ComputerNS_9allocatorIS1_EEE21_ConstructTransactionC2ERS4_y DATA
 0002:0001147c 00000008H .xdata$_ZNSt3__19allocatorI8ComputerE9constructB6v15007IS1_JRKS1_EEEvPT_DpOT0_ DATA
 0002:00011484 00000008H .xdata$_ZN8ComputerC1ERKS_ DATA
 0002:0001148c 00000024H .xdata$_ZN8ComputerC2ERKS_ DATA
 0002:000114b0 00000008H .xdata$_ZNSt3__16vectorI9ComponentNS_9allocatorIS1_EEEC1ERKS4_ DATA
 0002:000114b8 00000020H .xdata$_ZNSt3__16vectorI9ComponentNS_9allocatorIS1_EEEC2ERKS4_ DATA
 0002:000114d8 00000008H .xdata$_ZNSt3__116allocator_traitsINS_9allocatorI9ComponentEEE37select_on_container_copy_constructionB6v15007IS3_vvEES3_RKS3_ DATA
 0002:000114e0 00000008H .xdata$_ZNSt3__117__compressed_pairIP9ComponentNS_9allocatorIS1_EEEC1B6v15007IDnS4_EEOT_OT0_ DATA
 0002:000114e8 00000008H .xdata$_ZNSt3__118__make_transactionB6v15007INS_6vectorI9ComponentNS_9allocatorIS2_EEE16__destroy_vectorEEENS_13__transactionIT_EES8_ DATA
 0002:000114f0 00000008H .xdata$_ZNSt3__16vectorI9ComponentNS_9allocatorIS1_EEE11__vallocateB6v15007Ey DATA
 0002:000114f8 0000001cH .xdata$_ZNSt3__16vectorI9ComponentNS_9allocatorIS1_EEE18__construct_at_endIPS1_EENS_9enable_ifIXsr27__is_cpp17_forward_iteratorIT_EE5valueEvE4typeES8_S8_y DATA
 0002:00011514 00000008H .xdata$_ZNSt3__113__transactionINS_6vectorI9ComponentNS_9allocatorIS2_EEE16__destroy_vectorEE10__completeB6v15007Ev DATA
 0002:0001151c 00000008H .xdata$_ZNSt3__113__transactionINS_6vectorI9ComponentNS_9allocatorIS2_EEE16__destroy_vectorEED1B6v15007Ev DATA
 0002:00011524 00000008H .xdata$_ZNSt3__117__compressed_pairIP9ComponentNS_9allocatorIS1_EEEC2B6v15007IDnS4_EEOT_OT0_ DATA
 0002:0001152c 00000008H .xdata$_ZNSt3__122__compressed_pair_elemINS_9allocatorI9ComponentEELi1ELb1EEC2B6v15007IS3_vEEOT_ DATA
 0002:00011534 00000008H .xdata$_ZNSt3__113__transactionINS_6vectorI9ComponentNS_9allocatorIS2_EEE16__destroy_vectorEEC1B6v15007ES6_ DATA
 0002:0001153c 00000008H .xdata$_ZNSt3__113__transactionINS_6vectorI9ComponentNS_9allocatorIS2_EEE16__destroy_vectorEEC2B6v15007ES6_ DATA
 0002:00011544 00000034H .xdata$_ZNSt3__130__uninitialized_allocator_copyB6v15007INS_9allocatorI9ComponentEEPS2_S4_S4_EET2_RT_T0_T1_S5_ DATA
 0002:00011578 00000008H .xdata$_ZNSt3__116allocator_traitsINS_9allocatorI9ComponentEEE9constructB6v15007IS2_JRS2_EvEEvRS3_PT_DpOT0_ DATA
 0002:00011580 00000008H .xdata$_ZNSt3__129_AllocatorDestroyRangeReverseINS_9allocatorI9ComponentEEPS2_EC1B6v15007ERS3_RS4_S7_ DATA
 0002:00011588 00000008H .xdata$_ZNKSt3__129_AllocatorDestroyRangeReverseINS_9allocatorI9ComponentEEPS2_EclB6v15007Ev DATA
 0002:00011590 00000008H .xdata$_ZNSt3__19allocatorI9ComponentE9constructB6v15007IS1_JRS1_EEEvPT_DpOT0_ DATA
 0002:00011598 00000008H .xdata$_ZNSt3__129_AllocatorDestroyRangeReverseINS_9allocatorI9ComponentEEPS2_EC2B6v15007ERS3_RS4_S7_ DATA
 0002:000115a0 00000008H .xdata$_ZNSt3__119__allocator_destroyB6v15007INS_9allocatorI9ComponentEENS_16reverse_iteratorIPS2_EES6_EEvRT_T0_T1_ DATA
 0002:000115a8 00000020H .xdata$_ZNSt3__113__transactionINS_6vectorI9ComponentNS_9allocatorIS2_EEE16__destroy_vectorEED2B6v15007Ev DATA
 0002:000115c8 00000008H .xdata$_ZNSt3__16vectorI8ComputerNS_9allocatorIS1_EEE21_ConstructTransactionD2Ev DATA
 0002:000115d0 00000008H .xdata$_ZNKSt3__16vectorI8ComputerNS_9allocatorIS1_EEE11__recommendB6v15007Ey DATA
 0002:000115d8 00000008H .xdata$_ZNSt3__114__split_bufferI8ComputerRNS_9allocatorIS1_EEEC1EyyS4_ DATA
 0002:000115e0 00000008H .xdata$_ZNSt3__16vectorI8ComputerNS_9allocatorIS1_EEE26__swap_out_circular_bufferERNS_14__split_bufferIS1_RS3_EE DATA
 0002:000115e8 00000008H .xdata$_ZNSt3__114__split_bufferI8ComputerRNS_9allocatorIS1_EEED1Ev DATA
 0002:000115f0 00000020H .xdata$_ZNKSt3__16vectorI8ComputerNS_9allocatorIS1_EEE8max_sizeEv DATA
 0002:00011610 00000008H .xdata$_ZNKSt3__16vectorI8ComputerNS_9allocatorIS1_EEE20__throw_length_errorB6v15007Ev DATA
 0002:00011618 00000008H .xdata$_ZNSt3__116allocator_traitsINS_9allocatorI8ComputerEEE8max_sizeB6v15007IS3_vEEyRKS3_ DATA
 0002:00011620 00000008H .xdata$_ZNKSt3__16vectorI8ComputerNS_9allocatorIS1_EEE7__allocB6v15007Ev DATA
 0002:00011628 00000008H .xdata$_ZNKSt3__19allocatorI8ComputerE8max_sizeB6v15007Ev DATA
 0002:00011630 00000008H .xdata$_ZNKSt3__117__compressed_pairIP8ComputerNS_9allocatorIS1_EEE6secondB6v15007Ev DATA
 0002:00011638 00000008H .xdata$_ZNKSt3__122__compressed_pair_elemINS_9allocatorI8ComputerEELi1ELb1EE5__getB6v15007Ev DATA
 0002:00011640 00000008H .xdata$_ZNSt3__114__split_bufferI8ComputerRNS_9allocatorIS1_EEEC2EyyS4_ DATA
 0002:00011648 00000008H .xdata$_ZNSt3__117__compressed_pairIP8ComputerRNS_9allocatorIS1_EEEC1B6v15007IDnS5_EEOT_OT0_ DATA
 0002:00011650 00000008H .xdata$_ZNSt3__119__allocate_at_leastB6v15007INS_9allocatorI8ComputerEEEENS_19__allocation_resultINS_16allocator_traitsIT_E7pointerEEERS6_y DATA
 0002:00011658 00000008H .xdata$_ZNSt3__114__split_bufferI8ComputerRNS_9allocatorIS1_EEE7__allocB6v15007Ev DATA
 0002:00011660 00000008H .xdata$_ZNSt3__114__split_bufferI8ComputerRNS_9allocatorIS1_EEE9__end_capB6v15007Ev DATA
 0002:00011668 00000008H .xdata$_ZNSt3__117__compressed_pairIP8ComputerRNS_9allocatorIS1_EEEC2B6v15007IDnS5_EEOT_OT0_ DATA
 0002:00011670 00000008H .xdata$_ZNSt3__122__compressed_pair_elemIRNS_9allocatorI8ComputerEELi1ELb0EEC2B6v15007IS4_vEEOT_ DATA
 0002:00011678 00000008H .xdata$_ZNSt3__19allocatorI8ComputerE8allocateB6v15007Ey DATA
 0002:00011680 00000008H .xdata$_ZNSt3__117__compressed_pairIP8ComputerRNS_9allocatorIS1_EEE6secondB6v15007Ev DATA
 0002:00011688 00000008H .xdata$_ZNSt3__122__compressed_pair_elemIRNS_9allocatorI8ComputerEELi1ELb0EE5__getB6v15007Ev DATA
 0002:00011690 00000008H .xdata$_ZNSt3__117__compressed_pairIP8ComputerRNS_9allocatorIS1_EEE5firstB6v15007Ev DATA
 0002:00011698 00000038H .xdata$_ZNSt3__142__uninitialized_allocator_move_if_noexceptB6v15007INS_9allocatorI8ComputerEENS_16reverse_iteratorIPS2_EES6_S6_EET2_RT_T0_T1_S7_ DATA
 0002:000116d0 00000008H .xdata$_ZNSt3__116reverse_iteratorIP8ComputerEC1B6v15007ES2_ DATA
 0002:000116d8 00000008H .xdata$_ZNKSt3__116reverse_iteratorIP8ComputerE4baseB6v15007Ev DATA
 0002:000116e0 00000008H .xdata$_ZNSt3__14swapB6v15007IP8ComputerEENS_9enable_ifIXaasr21is_move_constructibleIT_EE5valuesr18is_move_assignableIS4_EE5valueEvE4typeERS4_S7_ DATA
 0002:000116e8 00000008H .xdata$_ZNKSt3__16vectorI8ComputerNS_9allocatorIS1_EEE14__annotate_newB6v15007Ey DATA
 0002:000116f0 00000008H .xdata$_ZNSt3__125__debug_db_invalidate_allB6v15007INS_6vectorI8ComputerNS_9allocatorIS2_EEEEEEvPT_ DATA
 0002:000116f8 00000008H .xdata$_ZNSt3__1neB6v15007IP8ComputerS2_EEbRKNS_16reverse_iteratorIT_EERKNS3_IT0_EE DATA
 0002:00011700 00000008H .xdata$_ZNSt3__116allocator_traitsINS_9allocatorI8ComputerEEE9constructB6v15007IS2_JS2_EvEEvRS3_PT_DpOT0_ DATA
 0002:00011708 00000008H .xdata$_ZNSt3__112__to_addressB6v15007INS_16reverse_iteratorIP8ComputerEEvEENS_5decayIDTclsr19__to_address_helperIT_EE6__callcl7declvalIRKS6_EEEEE4typeES8_ DATA
 0002:00011710 00000008H .xdata$_ZNKSt3__116reverse_iteratorIP8ComputerEdeB6v15007Ev DATA
 0002:00011718 00000008H .xdata$_ZNSt3__116reverse_iteratorIP8ComputerEppB6v15007Ev DATA
 0002:00011720 00000008H .xdata$_ZNSt3__129_AllocatorDestroyRangeReverseINS_9allocatorI8ComputerEENS_16reverse_iteratorIPS2_EEEC1B6v15007ERS3_RS6_S9_ DATA
 0002:00011728 00000008H .xdata$_ZNKSt3__129_AllocatorDestroyRangeReverseINS_9allocatorI8ComputerEENS_16reverse_iteratorIPS2_EEEclB6v15007Ev DATA
 0002:00011730 00000008H .xdata$_ZNSt3__19allocatorI8ComputerE9constructB6v15007IS1_JS1_EEEvPT_DpOT0_ DATA
 0002:00011738 00000008H .xdata$_ZN8ComputerC1EOS_ DATA
 0002:00011740 00000008H .xdata$_ZN8ComputerC2EOS_ DATA
 0002:00011748 00000008H .xdata$_ZNSt3__16vectorI9ComponentNS_9allocatorIS1_EEEC1B6v15007EOS4_ DATA
 0002:00011750 00000020H .xdata$_ZNSt3__16vectorI9ComponentNS_9allocatorIS1_EEEC2B6v15007EOS4_ DATA
 0002:00011770 00000008H .xdata$_ZNSt3__115__debug_db_swapB6v15007INS_6vectorI9ComponentNS_9allocatorIS2_EEEEEEvPT_S7_ DATA
 0002:00011778 00000020H .xdata$_ZNSt3__119__to_address_helperINS_16reverse_iteratorIP8ComputerEEvE6__callB6v15007ERKS4_ DATA
 0002:00011798 00000008H .xdata$_ZNKSt3__116reverse_iteratorIP8ComputerEptB6v15007Ev DATA
 0002:000117a0 00000008H .xdata$_ZNSt3__129_AllocatorDestroyRangeReverseINS_9allocatorI8ComputerEENS_16reverse_iteratorIPS2_EEEC2B6v15007ERS3_RS6_S9_ DATA
 0002:000117a8 00000008H .xdata$_ZNSt3__119__allocator_destroyB6v15007INS_9allocatorI8ComputerEENS_16reverse_iteratorINS4_IPS2_EEEES7_EEvRT_T0_T1_ DATA
 0002:000117b0 00000008H .xdata$_ZNSt3__116reverse_iteratorINS0_IP8ComputerEEEC1B6v15007ES3_ DATA
 0002:000117b8 00000008H .xdata$_ZNSt3__1neB6v15007INS_16reverse_iteratorIP8ComputerEES4_EEbRKNS1_IT_EERKNS1_IT0_EE DATA
 0002:000117c0 00000008H .xdata$_ZNSt3__112__to_addressB6v15007INS_16reverse_iteratorINS1_IP8ComputerEEEEvEENS_5decayIDTclsr19__to_address_helperIT_EE6__callcl7declvalIRKS7_EEEEE4typeES9_ DATA
 0002:000117c8 00000008H .xdata$_ZNSt3__116reverse_iteratorINS0_IP8ComputerEEEppB6v15007Ev DATA
 0002:000117d0 00000008H .xdata$_ZNKSt3__116reverse_iteratorINS0_IP8ComputerEEE4baseB6v15007Ev DATA
 0002:000117d8 00000020H .xdata$_ZNSt3__119__to_address_helperINS_16reverse_iteratorINS1_IP8ComputerEEEEvE6__callB6v15007ERKS5_ DATA
 0002:000117f8 00000008H .xdata$_ZNKSt3__116reverse_iteratorINS0_IP8ComputerEEEptB6v15007Ev DATA
 0002:00011800 00000008H .xdata$_ZNKSt3__116reverse_iteratorINS0_IP8ComputerEEEdeB6v15007Ev DATA
 0002:00011808 00000008H .xdata$_ZNSt3__116reverse_iteratorIP8ComputerEmmB6v15007Ev DATA
 0002:00011810 00000008H .xdata$_ZNSt3__116reverse_iteratorINS0_IP8ComputerEEEC2B6v15007ES3_ DATA
 0002:00011818 00000008H .xdata$_ZNSt3__116reverse_iteratorIP8ComputerEC2B6v15007ES2_ DATA
 0002:00011820 00000020H .xdata$_ZNSt3__114__split_bufferI8ComputerRNS_9allocatorIS1_EEED2Ev DATA
 0002:00011840 00000008H .xdata$_ZNSt3__114__split_bufferI8ComputerRNS_9allocatorIS1_EEE5clearB6v15007Ev DATA
 0002:00011848 00000008H .xdata$_ZNKSt3__114__split_bufferI8ComputerRNS_9allocatorIS1_EEE8capacityB6v15007Ev DATA
 0002:00011850 00000008H .xdata$_ZNSt3__114__split_bufferI8ComputerRNS_9allocatorIS1_EEE17__destruct_at_endB6v15007EPS1_ DATA
 0002:00011858 00000020H .xdata$_ZNSt3__114__split_bufferI8ComputerRNS_9allocatorIS1_EEE17__destruct_at_endB6v15007EPS1_NS_17integral_constantIbLb0EEE DATA
 0002:00011878 00000008H .xdata$_ZNKSt3__114__split_bufferI8ComputerRNS_9allocatorIS1_EEE9__end_capB6v15007Ev DATA
 0002:00011880 00000008H .xdata$_ZNKSt3__117__compressed_pairIP8ComputerRNS_9allocatorIS1_EEE5firstB6v15007Ev DATA
 0002:00011888 00000008H .xdata$_ZNSt3__113basic_ostreamIcNS_11char_traitsIcEEEC2B6v15007EPNS_15basic_streambufIcS2_EE DATA
 0002:00011890 00000008H .xdata$_ZNSt3__111__wrap_iterIP8ComputerEC1B6v15007EPKvS2_ DATA
 0002:00011898 00000008H .xdata$_ZNSt3__111__wrap_iterIP8ComputerEC2B6v15007EPKvS2_ DATA
 0002:000118a0 00000008H .xdata$_ZN6System3SetINS_7Uitypes10TMsgDlgBtnELS2_0ELS2_11EEC2Ev DATA
 0002:000118a8 00000008H .xdata$_ZNSt3__1miB6v15007IPK8ComputerS3_EEDTmicldtfp_4baseEcldtfp0_4baseEERKNS_11__wrap_iterIT_EERKNS5_IT0_EE DATA
 0002:000118b0 00000008H .xdata$_ZNKSt3__16vectorI8ComputerNS_9allocatorIS1_EEE6cbeginB6v15007Ev DATA
 0002:000118b8 00000020H .xdata$_ZNSt3__16vectorI8ComputerNS_9allocatorIS1_EEE17__destruct_at_endB6v15007EPS1_ DATA
 0002:000118d8 00000008H .xdata$_ZNSt3__14moveB6v15007IP8ComputerS2_EET0_T_S4_S3_ DATA
 0002:000118e0 00000008H .xdata$_ZNSt3__16vectorI8ComputerNS_9allocatorIS1_EEE27__invalidate_iterators_pastB6v15007EPS1_ DATA
 0002:000118e8 00000008H .xdata$_ZNKSt3__111__wrap_iterIPK8ComputerE4baseB6v15007Ev DATA
 0002:000118f0 00000008H .xdata$_ZNKSt3__16vectorI8ComputerNS_9allocatorIS1_EEE5beginB6v15007Ev DATA
 0002:000118f8 00000008H .xdata$_ZNSt3__111__wrap_iterIPK8ComputerEC1B6v15007EPKvS3_ DATA
 0002:00011900 00000008H .xdata$_ZNSt3__111__wrap_iterIPK8ComputerEC2B6v15007EPKvS3_ DATA
 0002:00011908 00000008H .xdata$_ZNKSt3__16vectorI8ComputerNS_9allocatorIS1_EEE17__annotate_shrinkB6v15007Ey DATA
 0002:00011910 00000008H .xdata$_ZNSt3__16__moveB6v15007INS_17_ClassicAlgPolicyEP8ComputerS3_S3_EENS_9enable_ifIXaaaasr21is_copy_constructibleIT0_EE5valuesr21is_copy_constructibleIT1_EE5valuesr21is_copy_constructibleIT2_EE5valueENS_4pairIS5_S7_EEE4typeES5_S6_S7_ DATA
 0002:00011918 00000008H .xdata$_ZNSt3__111__move_implB6v15007INS_17_ClassicAlgPolicyEP8ComputerS3_S3_EENS_4pairIT0_T2_EES5_T1_S6_ DATA
 0002:00011920 00000008H .xdata$_ZNSt3__113__unwrap_iterB6v15007IP8ComputerNS_18__unwrap_iter_implIS2_Lb1EEELi0EEEDTclsrT0_8__unwrapclsr3stdE7declvalIT_EEEES6_ DATA
 0002:00011928 00000008H .xdata$_ZNSt3__19make_pairB6v15007IP8ComputerS2_EENS_4pairINS_18__unwrap_ref_decayIT_E4typeENS4_IT0_E4typeEEEOS5_OS8_ DATA
 0002:00011930 00000020H .xdata$_ZNSt3__113__rewrap_iterB6v15007IP8ComputerS2_NS_18__unwrap_iter_implIS2_Lb1EEEEET_S5_T0_ DATA
 0002:00011950 00000008H .xdata$_ZNSt3__18_IterOpsINS_17_ClassicAlgPolicyEE11__iter_moveB6v15007IRP8ComputerEENS_9enable_ifIXsr12is_referenceIDTdeclsr3stdE7declvalIRT_EEEEE5valueEDTclsr3stdE4movedeclsr3stdE7declvalIS9_EEEEE4typeEOS8_ DATA
 0002:00011958 00000008H .xdata$_ZN8ComputeraSEOS_ DATA
 0002:00011960 00000008H .xdata$_ZNSt3__16vectorI9ComponentNS_9allocatorIS1_EEEaSB6v15007EOS4_ DATA
 0002:00011968 00000008H .xdata$_ZNSt3__112basic_stringIcNS_11char_traitsIcEENS_9allocatorIcEEEaSB6v15007EOS5_ DATA
 0002:00011970 00000008H .xdata$_ZNSt3__16vectorI9ComponentNS_9allocatorIS1_EEE13__move_assignERS4_NS_17integral_constantIbLb1EEE DATA
 0002:00011978 00000008H .xdata$_ZNSt3__16vectorI9ComponentNS_9allocatorIS1_EEE13__vdeallocateEv DATA
 0002:00011980 00000008H .xdata$_ZNSt3__16vectorI9ComponentNS_9allocatorIS1_EEE19__move_assign_allocB6v15007ERS4_ DATA
 0002:00011988 00000008H .xdata$_ZNSt3__16vectorI9ComponentNS_9allocatorIS1_EEE19__move_assign_allocB6v15007ERS4_NS_17integral_constantIbLb1EEE DATA
 0002:00011990 00000008H .xdata$_ZNSt3__112basic_stringIcNS_11char_traitsIcEENS_9allocatorIcEEE13__move_assignB6v15007ERS5_NS_17integral_constantIbLb1EEE DATA
 0002:00011998 00000008H .xdata$_ZNSt3__116allocator_traitsINS_9allocatorIcEEE10deallocateB6v15007ERS2_Pcy DATA
 0002:000119a0 00000008H .xdata$_ZNSt3__112basic_stringIcNS_11char_traitsIcEENS_9allocatorIcEEE7__allocB6v15007Ev DATA
 0002:000119a8 00000008H .xdata$_ZNKSt3__112basic_stringIcNS_11char_traitsIcEENS_9allocatorIcEEE14__get_long_capB6v15007Ev DATA
 0002:000119b0 00000008H .xdata$_ZNSt3__112basic_stringIcNS_11char_traitsIcEENS_9allocatorIcEEE19__move_assign_allocB6v15007ERS5_ DATA
 0002:000119b8 00000020H .xdata$_ZNSt3__19allocatorIcE10deallocateB6v15007EPcy DATA
 0002:000119d8 00000008H .xdata$_ZNSt3__117__compressed_pairINS_12basic_stringIcNS_11char_traitsIcEENS_9allocatorIcEEE5__repES5_E6secondB6v15007Ev DATA
 0002:000119e0 00000008H .xdata$_ZNSt3__122__compressed_pair_elemINS_9allocatorIcEELi1ELb1EE5__getB6v15007Ev DATA
 0002:000119e8 00000008H .xdata$_ZNSt3__112basic_stringIcNS_11char_traitsIcEENS_9allocatorIcEEE19__move_assign_allocB6v15007ERS5_NS_17integral_constantIbLb1EEE DATA
 0002:000119f0 00000008H .xdata$_ZNSt3__118__unwrap_iter_implIP8ComputerLb1EE8__unwrapB6v15007ES2_ DATA
 0002:000119f8 00000008H .xdata$_ZNSt3__14pairIP8ComputerS2_EC1B6v15007IS2_S2_LPv0EEEOT_OT0_ DATA
 0002:00011a00 00000008H .xdata$_ZNSt3__14pairIP8ComputerS2_EC2B6v15007IS2_S2_LPv0EEEOT_OT0_ DATA
 0002:00011a08 00000008H .xdata$_ZNSt3__118__unwrap_iter_implIP8ComputerLb1EE8__rewrapB6v15007ES2_S2_ DATA
 0002:00011a10 0000006cH .xdata                  DATA
 0002:00011a7c 00000008H .xdata$_ZN6System7Classes15TComponentClassC1EPNS_10TMetaClassE DATA
 0002:00011a84 00000008H .xdata$_ZN6System7Classes15TComponentClassC2EPNS_10TMetaClassE DATA
 0002:00011a8c 00000008H .xdata$_ZN6System15DelphiMetaClassINS_7Classes15TComponentClassEEC2EPNS_10TMetaClassE DATA
 0002:00011a94 000005b8H .xdata                  DATA
 0002:0001204c 00000020H .xdata$_ZN6System8Sysutils11ERangeErrorC3ENS_13UnicodeStringE DATA
 0002:0001206c 00000020H .xdata$_ZN6System11AnsiStringTILt0EED2Ev DATA
 0002:0001208c 00000020H .xdata$_ZN6System8Sysutils9EIntErrorC3ENS_13UnicodeStringE DATA
 0002:000120ac 00000020H .xdata$_ZN6System8Sysutils9EExternalC3ENS_13UnicodeStringE DATA
 0002:000120cc 00000020H .xdata$_ZN6System8Sysutils11ERangeErrorC3ENS_13UnicodeStringE DATA
 0002:000120ec 00000008H .xdata$_ZN6System8Sysutils11ERangeErrorD0Ev DATA
 0002:000120f4 00000008H .xdata$_ZN6System8_CharLenIwEEiPKT_ DATA
 0002:000120fc 00000008H .xdata$_ZN6System8_CharLenIDsEEiPKT_ DATA
 0002:00012104 00000008H .xdata$_ZN6System14AnsiStringBaseC2ILt0EEEONS_11AnsiStringTIXT_EEE DATA
 0002:0001210c 00000008H .xdata$_ZN6System13UnicodeStringC2ILt0EEERKNS_11AnsiStringTIXT_EEE DATA
 0002:00012114 00000008H .xdata$_ZNK6System14AnsiStringBase8CodePageEv DATA
 0002:0001211c 00000008H .xdata$_ZNK6System14AnsiStringBaseixEi DATA
 0002:00012124 00000020H .xdata$_ZN6System8Sysutils9EIntErrorC3ENS_13UnicodeStringE DATA
 0002:00012144 00000020H .xdata$_ZN6System8Sysutils9EExternalC3ENS_13UnicodeStringE DATA
 0002:00012164 00000008H .xdata$_ZN6System8Sysutils9EIntErrorD0Ev DATA
 0002:0001216c 00000008H .xdata$_ZN6System8Sysutils9EExternalD0Ev DATA
 0002:00012174 0000015cH .xdata                  DATA
 0002:000122d0 00000020H .xdata$_ZN6System15DelphiInterfaceINS_10IInterfaceEED2Ev DATA
 0002:000122f0 00000020H .xdata$_ZNSt3__113unordered_mapIPN6System7Typinfo9TTypeInfoEPSt9type_infoNS_4hashIS4_EENS_8equal_toIS4_EENS_9allocatorINS_4pairIKS4_S6_EEEEEC2B6v15007Ev DATA
 0002:00012310 00000018H .xdata$_ZNK6System11AnsiStringTILt65001EEplERKS1_ DATA
 0002:00012328 00000020H .xdata$_ZNSt3__112__hash_tableINS_17__hash_value_typeIPN6System7Typinfo9TTypeInfoEPSt9type_infoEENS_22__unordered_map_hasherIS5_S8_NS_4hashIS5_EENS_8equal_toIS5_EELb1EEENS_21__unordered_map_equalIS5_S8_SD_SB_Lb1EEENS_9allocatorIS8_EEEC2Ev DATA
 0002:00012348 00000020H .xdata$_ZNSt3__110unique_ptrIA_PNS_16__hash_node_baseIPNS_11__hash_nodeINS_17__hash_value_typeIPN6System7Typinfo9TTypeInfoEPSt9type_infoEEPvEEEENS_25__bucket_list_deallocatorINS_9allocatorISF_EEEEEC2B6v15007ILb1EvEEv DATA
 0002:00012368 00000020H .xdata$_ZNSt3__125__bucket_list_deallocatorINS_9allocatorIPNS_16__hash_node_baseIPNS_11__hash_nodeINS_17__hash_value_typeIPN6System7Typinfo9TTypeInfoEPSt9type_infoEEPvEEEEEEEC2B6v15007Ev DATA
 0002:00012388 00000020H .xdata$_ZNSt3__112__hash_tableINS_17__hash_value_typeIPN6System7Typinfo9TTypeInfoEPSt9type_infoEENS_22__unordered_map_hasherIS5_S8_NS_4hashIS5_EENS_8equal_toIS5_EELb1EEENS_21__unordered_map_equalIS5_S8_SD_SB_Lb1EEENS_9allocatorIS8_EEED2Ev DATA
 0002:000123a8 00000020H .xdata$_ZNSt3__112__hash_tableINS_17__hash_value_typeIPN6System7Typinfo9TTypeInfoEPSt9type_infoEENS_22__unordered_map_hasherIS5_S8_NS_4hashIS5_EENS_8equal_toIS5_EELb1EEENS_21__unordered_map_equalIS5_S8_SD_SB_Lb1EEENS_9allocatorIS8_EEE17__deallocate_nodeEPNS_16__hash_node_baseIPNS_11__hash_nodeIS8_PvEEEE DATA
 0002:000123c8 00000020H .xdata$_ZNSt3__19allocatorINS_11__hash_nodeINS_17__hash_value_typeIPN6System7Typinfo9TTypeInfoEPSt9type_infoEEPvEEE10deallocateB6v15007EPSB_y DATA
 0002:000123e8 00000020H .xdata$_ZNSt3__19allocatorIPNS_16__hash_node_baseIPNS_11__hash_nodeINS_17__hash_value_typeIPN6System7Typinfo9TTypeInfoEPSt9type_infoEEPvEEEEE10deallocateB6v15007EPSF_y DATA
 0002:00012408 00000024H .xdata$_ZNSt3__112__hash_tableINS_17__hash_value_typeIPN6System7Typinfo9TTypeInfoEPSt9type_infoEENS_22__unordered_map_hasherIS5_S8_NS_4hashIS5_EENS_8equal_toIS5_EELb1EEENS_21__unordered_map_equalIS5_S8_SD_SB_Lb1EEENS_9allocatorIS8_EEE25__emplace_unique_key_argsIS5_JRKNS_21piecewise_construct_tENS_5tupleIJRKS5_EEENSO_IJEEEEEENS_4pairINS_15__hash_iteratorIPNS_11__hash_nodeIS8_PvEEEEbEERKT_DpOT0_ DATA
 0002:0001242c 00000024H .xdata$_ZNSt3__112__hash_tableINS_17__hash_value_typeIPN6System7Typinfo9TTypeInfoEPSt9type_infoEENS_22__unordered_map_hasherIS5_S8_NS_4hashIS5_EENS_8equal_toIS5_EELb1EEENS_21__unordered_map_equalIS5_S8_SD_SB_Lb1EEENS_9allocatorIS8_EEE21__construct_node_hashIRKNS_21piecewise_construct_tEJNS_5tupleIJRKS5_EEENSO_IJEEEEEENS_10unique_ptrINS_11__hash_nodeIS8_PvEENS_22__hash_node_destructorINSH_ISW_EEEEEEyOT_DpOT0_ DATA
 0002:00012450 00000020H .xdata$_ZNKSt3__14hashIPN6System7Typinfo9TTypeInfoEEclB6v15007ES4_ DATA
 0002:00012470 00000020H .xdata$_ZNSt3__110unique_ptrINS_11__hash_nodeINS_17__hash_value_typeIPN6System7Typinfo9TTypeInfoEPSt9type_infoEEPvEENS_22__hash_node_destructorINS_9allocatorISB_EEEEEC2B6v15007ILb1EvEEPSB_NS_16__dependent_typeINS_27__unique_ptr_deleter_sfinaeISF_EEXT_EE20__good_rval_ref_typeE DATA
 0002:00012490 00000020H .xdata$_ZNSt3__14pairIKPN6System7Typinfo9TTypeInfoEPSt9type_infoEC2B6v15007IJRS5_EJEEENS_21piecewise_construct_tENS_5tupleIJDpT_EEENSC_IJDpT0_EEE DATA
 0002:000124b0 00000020H .xdata$_ZNSt3__122__hash_node_destructorINS_9allocatorINS_11__hash_nodeINS_17__hash_value_typeIPN6System7Typinfo9TTypeInfoEPSt9type_infoEEPvEEEEEclB6v15007EPSC_ DATA
 0002:000124d0 00000008H .xdata$_ZN6System15DelphiInterfaceINS_10IInterfaceEEadEv DATA
 0002:000124d8 00000020H .xdata$_ZN6System15DelphiInterfaceINS_10IInterfaceEED2Ev DATA
 0002:000124f8 00000008H .xdata$_ZNSt3__110lock_guardINS_5mutexEEC2B6v15007ERS1_ DATA
 0002:00012500 00000020H .xdata$_ZNSt3__113unordered_mapIPN6System7Typinfo9TTypeInfoEPSt9type_infoNS_4hashIS4_EENS_8equal_toIS4_EENS_9allocatorINS_4pairIKS4_S6_EEEEEC2B6v15007Ev DATA
 0002:00012520 00000008H .xdata$_ZNSt3__113unordered_mapIPN6System7Typinfo9TTypeInfoEPSt9type_infoNS_4hashIS4_EENS_8equal_toIS4_EENS_9allocatorINS_4pairIKS4_S6_EEEEED2B6v15007Ev DATA
 0002:00012528 00000008H .xdata$_ZNSt3__113unordered_mapIPN6System7Typinfo9TTypeInfoEPSt9type_infoNS_4hashIS4_EENS_8equal_toIS4_EENS_9allocatorINS_4pairIKS4_S6_EEEEEixERSD_ DATA
 0002:00012530 00000008H .xdata$_ZN6System11AnsiStringTILt65001EEC2ERKNS_13UnicodeStringE DATA
 0002:00012538 00000018H .xdata$_ZNK6System11AnsiStringTILt65001EEplERKS1_ DATA
 0002:00012550 00000008H .xdata$_ZN6System11AnsiStringTILt65001EEC2EPKc DATA
 0002:00012558 00000008H .xdata$_ZN6System11AnsiStringTILt65001EEC2Ev DATA
 0002:00012560 00000008H .xdata$_ZN6System11AnsiStringTILt65001EEaSERKS1_ DATA
 0002:00012568 00000008H .xdata$_ZN6System11AnsiStringTILt65001EED2Ev DATA
 0002:00012570 00000008H .xdata$_ZN10__cxxabiv117__class_type_infoC2Ev DATA
 0002:00012578 00000008H .xdata$_ZNK6System11AnsiStringTILt65001EE5c_strEv DATA
 0002:00012580 00000008H .xdata$_ZNSt3__110lock_guardINS_5mutexEED2B6v15007Ev DATA
 0002:00012588 00000008H .xdata$_ZN10__cxxabiv116__shim_type_infoC2Ev DATA
 0002:00012590 00000020H .xdata$_ZNSt3__112__hash_tableINS_17__hash_value_typeIPN6System7Typinfo9TTypeInfoEPSt9type_infoEENS_22__unordered_map_hasherIS5_S8_NS_4hashIS5_EENS_8equal_toIS5_EELb1EEENS_21__unordered_map_equalIS5_S8_SD_SB_Lb1EEENS_9allocatorIS8_EEEC2Ev DATA
 0002:000125b0 00000008H .xdata$_ZNSt3__119__debug_db_insert_cB6v15007INS_13unordered_mapIPN6System7Typinfo9TTypeInfoEPSt9type_infoNS_4hashIS5_EENS_8equal_toIS5_EENS_9allocatorINS_4pairIKS5_S7_EEEEEEEEvPT_ DATA
 0002:000125b8 00000020H .xdata$_ZNSt3__110unique_ptrIA_PNS_16__hash_node_baseIPNS_11__hash_nodeINS_17__hash_value_typeIPN6System7Typinfo9TTypeInfoEPSt9type_infoEEPvEEEENS_25__bucket_list_deallocatorINS_9allocatorISF_EEEEEC2B6v15007ILb1EvEEv DATA
 0002:000125d8 00000008H .xdata$_ZNSt3__117__compressed_pairINS_16__hash_node_baseIPNS_11__hash_nodeINS_17__hash_value_typeIPN6System7Typinfo9TTypeInfoEPSt9type_infoEEPvEEEENS_9allocatorISC_EEEC2B6v15007ILb1EvEEv DATA
 0002:000125e0 00000008H .xdata$_ZNSt3__117__compressed_pairIyNS_22__unordered_map_hasherIPN6System7Typinfo9TTypeInfoENS_17__hash_value_typeIS5_PSt9type_infoEENS_4hashIS5_EENS_8equal_toIS5_EELb1EEEEC2B6v15007IiNS_18__default_init_tagEEEOT_OT0_ DATA
 0002:000125e8 00000008H .xdata$_ZNSt3__117__compressed_pairIfNS_21__unordered_map_equalIPN6System7Typinfo9TTypeInfoENS_17__hash_value_typeIS5_PSt9type_infoEENS_8equal_toIS5_EENS_4hashIS5_EELb1EEEEC2B6v15007IfNS_18__default_init_tagEEEOT_OT0_ DATA
 0002:000125f0 00000008H .xdata$_ZNSt3__117__compressed_pairIPPNS_16__hash_node_baseIPNS_11__hash_nodeINS_17__hash_value_typeIPN6System7Typinfo9TTypeInfoEPSt9type_infoEEPvEEEENS_25__bucket_list_deallocatorINS_9allocatorISF_EEEEEC2B6v15007INS_16__value_init_tagESN_EEOT_OT0_ DATA
 0002:000125f8 00000008H .xdata$_ZNSt3__122__compressed_pair_elemIPPNS_16__hash_node_baseIPNS_11__hash_nodeINS_17__hash_value_typeIPN6System7Typinfo9TTypeInfoEPSt9type_infoEEPvEEEELi0ELb0EEC2B6v15007ENS_16__value_init_tagE DATA
 0002:00012600 00000008H .xdata$_ZNSt3__122__compressed_pair_elemINS_25__bucket_list_deallocatorINS_9allocatorIPNS_16__hash_node_baseIPNS_11__hash_nodeINS_17__hash_value_typeIPN6System7Typinfo9TTypeInfoEPSt9type_infoEEPvEEEEEEEELi1ELb0EEC2B6v15007ENS_16__value_init_tagE DATA
 0002:00012608 00000020H .xdata$_ZNSt3__125__bucket_list_deallocatorINS_9allocatorIPNS_16__hash_node_baseIPNS_11__hash_nodeINS_17__hash_value_typeIPN6System7Typinfo9TTypeInfoEPSt9type_infoEEPvEEEEEEEC2B6v15007Ev DATA
 0002:00012628 00000008H .xdata$_ZNSt3__117__compressed_pairIyNS_9allocatorIPNS_16__hash_node_baseIPNS_11__hash_nodeINS_17__hash_value_typeIPN6System7Typinfo9TTypeInfoEPSt9type_infoEEPvEEEEEEEC2B6v15007IiNS_18__default_init_tagEEEOT_OT0_ DATA
 0002:00012630 00000008H .xdata$_ZNSt3__122__compressed_pair_elemIyLi0ELb0EEC2B6v15007IivEEOT_ DATA
 0002:00012638 00000008H .xdata$_ZNSt3__122__compressed_pair_elemINS_9allocatorIPNS_16__hash_node_baseIPNS_11__hash_nodeINS_17__hash_value_typeIPN6System7Typinfo9TTypeInfoEPSt9type_infoEEPvEEEEEELi1ELb1EEC2B6v15007ENS_18__default_init_tagE DATA
 0002:00012640 00000008H .xdata$_ZNSt3__19allocatorIPNS_16__hash_node_baseIPNS_11__hash_nodeINS_17__hash_value_typeIPN6System7Typinfo9TTypeInfoEPSt9type_infoEEPvEEEEEC2B6v15007Ev DATA
 0002:00012648 00000008H .xdata$_ZNSt3__116__non_trivial_ifILb1ENS_9allocatorIPNS_16__hash_node_baseIPNS_11__hash_nodeINS_17__hash_value_typeIPN6System7Typinfo9TTypeInfoEPSt9type_infoEEPvEEEEEEEC2B6v15007Ev DATA
 0002:00012650 00000008H .xdata$_ZNSt3__122__compressed_pair_elemINS_16__hash_node_baseIPNS_11__hash_nodeINS_17__hash_value_typeIPN6System7Typinfo9TTypeInfoEPSt9type_infoEEPvEEEELi0ELb0EEC2B6v15007ENS_16__value_init_tagE DATA
 0002:00012658 00000008H .xdata$_ZNSt3__122__compressed_pair_elemINS_9allocatorINS_11__hash_nodeINS_17__hash_value_typeIPN6System7Typinfo9TTypeInfoEPSt9type_infoEEPvEEEELi1ELb1EEC2B6v15007ENS_16__value_init_tagE DATA
 0002:00012660 00000008H .xdata$_ZNSt3__116__hash_node_baseIPNS_11__hash_nodeINS_17__hash_value_typeIPN6System7Typinfo9TTypeInfoEPSt9type_infoEEPvEEEC2B6v15007Ev DATA
 0002:00012668 00000008H .xdata$_ZNSt3__19allocatorINS_11__hash_nodeINS_17__hash_value_typeIPN6System7Typinfo9TTypeInfoEPSt9type_infoEEPvEEEC2B6v15007Ev DATA
 0002:00012670 00000008H .xdata$_ZNSt3__116__non_trivial_ifILb1ENS_9allocatorINS_11__hash_nodeINS_17__hash_value_typeIPN6System7Typinfo9TTypeInfoEPSt9type_infoEEPvEEEEEC2B6v15007Ev DATA
 0002:00012678 00000008H .xdata$_ZNSt3__122__compressed_pair_elemINS_22__unordered_map_hasherIPN6System7Typinfo9TTypeInfoENS_17__hash_value_typeIS5_PSt9type_infoEENS_4hashIS5_EENS_8equal_toIS5_EELb1EEELi1ELb1EEC2B6v15007ENS_18__default_init_tagE DATA
 0002:00012680 00000008H .xdata$_ZNSt3__122__unordered_map_hasherIPN6System7Typinfo9TTypeInfoENS_17__hash_value_typeIS4_PSt9type_infoEENS_4hashIS4_EENS_8equal_toIS4_EELb1EEC2B6v15007Ev DATA
 0002:00012688 00000008H .xdata$_ZNSt3__122__compressed_pair_elemIfLi0ELb0EEC2B6v15007IfvEEOT_ DATA
 0002:00012690 00000008H .xdata$_ZNSt3__122__compressed_pair_elemINS_21__unordered_map_equalIPN6System7Typinfo9TTypeInfoENS_17__hash_value_typeIS5_PSt9type_infoEENS_8equal_toIS5_EENS_4hashIS5_EELb1EEELi1ELb1EEC2B6v15007ENS_18__default_init_tagE DATA
 0002:00012698 00000008H .xdata$_ZNSt3__121__unordered_map_equalIPN6System7Typinfo9TTypeInfoENS_17__hash_value_typeIS4_PSt9type_infoEENS_8equal_toIS4_EENS_4hashIS4_EELb1EEC2B6v15007Ev DATA
 0002:000126a0 00000020H .xdata$_ZNSt3__112__hash_tableINS_17__hash_value_typeIPN6System7Typinfo9TTypeInfoEPSt9type_infoEENS_22__unordered_map_hasherIS5_S8_NS_4hashIS5_EENS_8equal_toIS5_EELb1EEENS_21__unordered_map_equalIS5_S8_SD_SB_Lb1EEENS_9allocatorIS8_EEED2Ev DATA
 0002:000126c0 00000020H .xdata$_ZNSt3__112__hash_tableINS_17__hash_value_typeIPN6System7Typinfo9TTypeInfoEPSt9type_infoEENS_22__unordered_map_hasherIS5_S8_NS_4hashIS5_EENS_8equal_toIS5_EELb1EEENS_21__unordered_map_equalIS5_S8_SD_SB_Lb1EEENS_9allocatorIS8_EEE17__deallocate_nodeEPNS_16__hash_node_baseIPNS_11__hash_nodeIS8_PvEEEE DATA
 0002:000126e0 00000008H .xdata$_ZNSt3__117__compressed_pairINS_16__hash_node_baseIPNS_11__hash_nodeINS_17__hash_value_typeIPN6System7Typinfo9TTypeInfoEPSt9type_infoEEPvEEEENS_9allocatorISC_EEE5firstB6v15007Ev DATA
 0002:000126e8 00000008H .xdata$_ZNSt3__118__debug_db_erase_cB6v15007INS_12__hash_tableINS_17__hash_value_typeIPN6System7Typinfo9TTypeInfoEPSt9type_infoEENS_22__unordered_map_hasherIS6_S9_NS_4hashIS6_EENS_8equal_toIS6_EELb1EEENS_21__unordered_map_equalIS6_S9_SE_SC_Lb1EEENS_9allocatorIS9_EEEEEEvPT_ DATA
 0002:000126f0 00000008H .xdata$_ZNSt3__110unique_ptrIA_PNS_16__hash_node_baseIPNS_11__hash_nodeINS_17__hash_value_typeIPN6System7Typinfo9TTypeInfoEPSt9type_infoEEPvEEEENS_25__bucket_list_deallocatorINS_9allocatorISF_EEEEED2B6v15007Ev DATA
 0002:000126f8 00000008H .xdata$_ZNSt3__112__hash_tableINS_17__hash_value_typeIPN6System7Typinfo9TTypeInfoEPSt9type_infoEENS_22__unordered_map_hasherIS5_S8_NS_4hashIS5_EENS_8equal_toIS5_EELb1EEENS_21__unordered_map_equalIS5_S8_SD_SB_Lb1EEENS_9allocatorIS8_EEE12__node_allocB6v15007Ev DATA
 0002:00012700 00000008H .xdata$_ZNSt3__116__hash_node_baseIPNS_11__hash_nodeINS_17__hash_value_typeIPN6System7Typinfo9TTypeInfoEPSt9type_infoEEPvEEE8__upcastB6v15007Ev DATA
 0002:00012708 00000008H .xdata$_ZNSt3__116allocator_traitsINS_9allocatorINS_11__hash_nodeINS_17__hash_value_typeIPN6System7Typinfo9TTypeInfoEPSt9type_infoEEPvEEEEE7destroyB6v15007INS_4pairIKS7_S9_EEvvEEvRSD_PT_ DATA
 0002:00012710 00000008H .xdata$_ZNSt3__122__hash_key_value_typesINS_17__hash_value_typeIPN6System7Typinfo9TTypeInfoEPSt9type_infoEEE9__get_ptrB6v15007ERS8_ DATA
 0002:00012718 00000008H .xdata$_ZNSt3__116allocator_traitsINS_9allocatorINS_11__hash_nodeINS_17__hash_value_typeIPN6System7Typinfo9TTypeInfoEPSt9type_infoEEPvEEEEE10deallocateB6v15007ERSD_PSC_y DATA
 0002:00012720 00000008H .xdata$_ZNSt3__117__compressed_pairINS_16__hash_node_baseIPNS_11__hash_nodeINS_17__hash_value_typeIPN6System7Typinfo9TTypeInfoEPSt9type_infoEEPvEEEENS_9allocatorISC_EEE6secondB6v15007Ev DATA
 0002:00012728 00000008H .xdata$_ZNSt3__122__compressed_pair_elemINS_9allocatorINS_11__hash_nodeINS_17__hash_value_typeIPN6System7Typinfo9TTypeInfoEPSt9type_infoEEPvEEEELi1ELb1EE5__getB6v15007Ev DATA
 0002:00012730 00000008H .xdata$_ZNSt3__114pointer_traitsIPNS_16__hash_node_baseIPNS_11__hash_nodeINS_17__hash_value_typeIPN6System7Typinfo9TTypeInfoEPSt9type_infoEEPvEEEEE10pointer_toB6v15007ERSE_ DATA
 0002:00012738 00000008H .xdata$_ZNSt3__117__hash_value_typeIPN6System7Typinfo9TTypeInfoEPSt9type_infoE11__get_valueB6v15007Ev DATA
 0002:00012740 00000008H .xdata$_ZNSt3__17launderB6v15007INS_4pairIKPN6System7Typinfo9TTypeInfoEPSt9type_infoEEEEPT_SB_ DATA
 0002:00012748 00000008H .xdata$_ZNSt3__19__launderB6v15007INS_4pairIKPN6System7Typinfo9TTypeInfoEPSt9type_infoEEEEPT_SB_ DATA
 0002:00012750 00000020H .xdata$_ZNSt3__19allocatorINS_11__hash_nodeINS_17__hash_value_typeIPN6System7Typinfo9TTypeInfoEPSt9type_infoEEPvEEE10deallocateB6v15007EPSB_y DATA
 0002:00012770 00000008H .xdata$_ZNSt3__122__compressed_pair_elemINS_16__hash_node_baseIPNS_11__hash_nodeINS_17__hash_value_typeIPN6System7Typinfo9TTypeInfoEPSt9type_infoEEPvEEEELi0ELb0EE5__getB6v15007Ev DATA
 0002:00012778 00000008H .xdata$_ZNSt3__110unique_ptrIA_PNS_16__hash_node_baseIPNS_11__hash_nodeINS_17__hash_value_typeIPN6System7Typinfo9TTypeInfoEPSt9type_infoEEPvEEEENS_25__bucket_list_deallocatorINS_9allocatorISF_EEEEE5resetB6v15007EDn DATA
 0002:00012780 00000008H .xdata$_ZNSt3__117__compressed_pairIPPNS_16__hash_node_baseIPNS_11__hash_nodeINS_17__hash_value_typeIPN6System7Typinfo9TTypeInfoEPSt9type_infoEEPvEEEENS_25__bucket_list_deallocatorINS_9allocatorISF_EEEEE5firstB6v15007Ev DATA
 0002:00012788 00000008H .xdata$_ZNSt3__117__compressed_pairIPPNS_16__hash_node_baseIPNS_11__hash_nodeINS_17__hash_value_typeIPN6System7Typinfo9TTypeInfoEPSt9type_infoEEPvEEEENS_25__bucket_list_deallocatorINS_9allocatorISF_EEEEE6secondB6v15007Ev DATA
 0002:00012790 00000008H .xdata$_ZNSt3__125__bucket_list_deallocatorINS_9allocatorIPNS_16__hash_node_baseIPNS_11__hash_nodeINS_17__hash_value_typeIPN6System7Typinfo9TTypeInfoEPSt9type_infoEEPvEEEEEEEclB6v15007EPSG_ DATA
 0002:00012798 00000008H .xdata$_ZNSt3__122__compressed_pair_elemIPPNS_16__hash_node_baseIPNS_11__hash_nodeINS_17__hash_value_typeIPN6System7Typinfo9TTypeInfoEPSt9type_infoEEPvEEEELi0ELb0EE5__getB6v15007Ev DATA
 0002:000127a0 00000008H .xdata$_ZNSt3__122__compressed_pair_elemINS_25__bucket_list_deallocatorINS_9allocatorIPNS_16__hash_node_baseIPNS_11__hash_nodeINS_17__hash_value_typeIPN6System7Typinfo9TTypeInfoEPSt9type_infoEEPvEEEEEEEELi1ELb0EE5__getB6v15007Ev DATA
 0002:000127a8 00000008H .xdata$_ZNSt3__116allocator_traitsINS_9allocatorIPNS_16__hash_node_baseIPNS_11__hash_nodeINS_17__hash_value_typeIPN6System7Typinfo9TTypeInfoEPSt9type_infoEEPvEEEEEEE10deallocateB6v15007ERSH_PSG_y DATA
 0002:000127b0 00000008H .xdata$_ZNSt3__125__bucket_list_deallocatorINS_9allocatorIPNS_16__hash_node_baseIPNS_11__hash_nodeINS_17__hash_value_typeIPN6System7Typinfo9TTypeInfoEPSt9type_infoEEPvEEEEEEE7__allocB6v15007Ev DATA
 0002:000127b8 00000008H .xdata$_ZNSt3__125__bucket_list_deallocatorINS_9allocatorIPNS_16__hash_node_baseIPNS_11__hash_nodeINS_17__hash_value_typeIPN6System7Typinfo9TTypeInfoEPSt9type_infoEEPvEEEEEEE4sizeB6v15007Ev DATA
 0002:000127c0 00000020H .xdata$_ZNSt3__19allocatorIPNS_16__hash_node_baseIPNS_11__hash_nodeINS_17__hash_value_typeIPN6System7Typinfo9TTypeInfoEPSt9type_infoEEPvEEEEE10deallocateB6v15007EPSF_y DATA
 0002:000127e0 00000008H .xdata$_ZNSt3__117__compressed_pairIyNS_9allocatorIPNS_16__hash_node_baseIPNS_11__hash_nodeINS_17__hash_value_typeIPN6System7Typinfo9TTypeInfoEPSt9type_infoEEPvEEEEEEE6secondB6v15007Ev DATA
 0002:000127e8 00000008H .xdata$_ZNSt3__122__compressed_pair_elemINS_9allocatorIPNS_16__hash_node_baseIPNS_11__hash_nodeINS_17__hash_value_typeIPN6System7Typinfo9TTypeInfoEPSt9type_infoEEPvEEEEEELi1ELb1EE5__getB6v15007Ev DATA
 0002:000127f0 00000008H .xdata$_ZNSt3__117__compressed_pairIyNS_9allocatorIPNS_16__hash_node_baseIPNS_11__hash_nodeINS_17__hash_value_typeIPN6System7Typinfo9TTypeInfoEPSt9type_infoEEPvEEEEEEE5firstB6v15007Ev DATA
 0002:000127f8 00000008H .xdata$_ZNSt3__122__compressed_pair_elemIyLi0ELb0EE5__getB6v15007Ev DATA
 0002:00012800 00000024H .xdata$_ZNSt3__112__hash_tableINS_17__hash_value_typeIPN6System7Typinfo9TTypeInfoEPSt9type_infoEENS_22__unordered_map_hasherIS5_S8_NS_4hashIS5_EENS_8equal_toIS5_EELb1EEENS_21__unordered_map_equalIS5_S8_SD_SB_Lb1EEENS_9allocatorIS8_EEE25__emplace_unique_key_argsIS5_JRKNS_21piecewise_construct_tENS_5tupleIJRKS5_EEENSO_IJEEEEEENS_4pairINS_15__hash_iteratorIPNS_11__hash_nodeIS8_PvEEEEbEERKT_DpOT0_ DATA
 0002:00012824 00000008H .xdata$_ZNSt3__116forward_as_tupleB6v15007IJRKPN6System7Typinfo9TTypeInfoEEEENS_5tupleIJDpOT_EEESA_ DATA
 0002:0001282c 00000008H .xdata$_ZNSt3__116forward_as_tupleB6v15007IJEEENS_5tupleIJDpOT_EEES4_ DATA
 0002:00012834 00000008H .xdata$_ZNKSt3__115__hash_iteratorIPNS_11__hash_nodeINS_17__hash_value_typeIPN6System7Typinfo9TTypeInfoEPSt9type_infoEEPvEEEptB6v15007Ev DATA
 0002:0001283c 00000008H .xdata$_ZNSt3__112__hash_tableINS_17__hash_value_typeIPN6System7Typinfo9TTypeInfoEPSt9type_infoEENS_22__unordered_map_hasherIS5_S8_NS_4hashIS5_EENS_8equal_toIS5_EELb1EEENS_21__unordered_map_equalIS5_S8_SD_SB_Lb1EEENS_9allocatorIS8_EEE13hash_functionB6v15007Ev DATA
 0002:00012844 00000008H .xdata$_ZNKSt3__122__unordered_map_hasherIPN6System7Typinfo9TTypeInfoENS_17__hash_value_typeIS4_PSt9type_infoEENS_4hashIS4_EENS_8equal_toIS4_EELb1EEclB6v15007ERKS4_ DATA
 0002:0001284c 00000008H .xdata$_ZNKSt3__112__hash_tableINS_17__hash_value_typeIPN6System7Typinfo9TTypeInfoEPSt9type_infoEENS_22__unordered_map_hasherIS5_S8_NS_4hashIS5_EENS_8equal_toIS5_EELb1EEENS_21__unordered_map_equalIS5_S8_SD_SB_Lb1EEENS_9allocatorIS8_EEE12bucket_countB6v15007Ev DATA
 0002:00012854 00000008H .xdata$_ZNSt3__116__constrain_hashB6v15007Eyy DATA
 0002:0001285c 00000008H .xdata$_ZNKSt3__110unique_ptrIA_PNS_16__hash_node_baseIPNS_11__hash_nodeINS_17__hash_value_typeIPN6System7Typinfo9TTypeInfoEPSt9type_infoEEPvEEEENS_25__bucket_list_deallocatorINS_9allocatorISF_EEEEEixB6v15007Ey DATA
 0002:00012864 00000008H .xdata$_ZNKSt3__116__hash_node_baseIPNS_11__hash_nodeINS_17__hash_value_typeIPN6System7Typinfo9TTypeInfoEPSt9type_infoEEPvEEE6__hashB6v15007Ev DATA
 0002:0001286c 00000008H .xdata$_ZNSt3__112__hash_tableINS_17__hash_value_typeIPN6System7Typinfo9TTypeInfoEPSt9type_infoEENS_22__unordered_map_hasherIS5_S8_NS_4hashIS5_EENS_8equal_toIS5_EELb1EEENS_21__unordered_map_equalIS5_S8_SD_SB_Lb1EEENS_9allocatorIS8_EEE6key_eqB6v15007Ev DATA
 0002:00012874 00000008H .xdata$_ZNKSt3__121__unordered_map_equalIPN6System7Typinfo9TTypeInfoENS_17__hash_value_typeIS4_PSt9type_infoEENS_8equal_toIS4_EENS_4hashIS4_EELb1EEclB6v15007ERKS8_RKS4_ DATA
 0002:0001287c 00000024H .xdata$_ZNSt3__112__hash_tableINS_17__hash_value_typeIPN6System7Typinfo9TTypeInfoEPSt9type_infoEENS_22__unordered_map_hasherIS5_S8_NS_4hashIS5_EENS_8equal_toIS5_EELb1EEENS_21__unordered_map_equalIS5_S8_SD_SB_Lb1EEENS_9allocatorIS8_EEE21__construct_node_hashIRKNS_21piecewise_construct_tEJNS_5tupleIJRKS5_EEENSO_IJEEEEEENS_10unique_ptrINS_11__hash_nodeIS8_PvEENS_22__hash_node_destructorINSH_ISW_EEEEEEyOT_DpOT0_ DATA
 0002:000128a0 00000008H .xdata$_ZNSt3__112__hash_tableINS_17__hash_value_typeIPN6System7Typinfo9TTypeInfoEPSt9type_infoEENS_22__unordered_map_hasherIS5_S8_NS_4hashIS5_EENS_8equal_toIS5_EELb1EEENS_21__unordered_map_equalIS5_S8_SD_SB_Lb1EEENS_9allocatorIS8_EEE4sizeB6v15007Ev DATA
 0002:000128a8 00000008H .xdata$_ZNSt3__112__hash_tableINS_17__hash_value_typeIPN6System7Typinfo9TTypeInfoEPSt9type_infoEENS_22__unordered_map_hasherIS5_S8_NS_4hashIS5_EENS_8equal_toIS5_EELb1EEENS_21__unordered_map_equalIS5_S8_SD_SB_Lb1EEENS_9allocatorIS8_EEE15max_load_factorB6v15007Ev DATA
 0002:000128b0 00000008H .xdata$_ZNSt3__112__hash_tableINS_17__hash_value_typeIPN6System7Typinfo9TTypeInfoEPSt9type_infoEENS_22__unordered_map_hasherIS5_S8_NS_4hashIS5_EENS_8equal_toIS5_EELb1EEENS_21__unordered_map_equalIS5_S8_SD_SB_Lb1EEENS_9allocatorIS8_EEE15__rehash_uniqueB6v15007Ey DATA
 0002:000128b8 00000008H .xdata$_ZNSt3__116__is_hash_power2B6v15007Ey DATA
 0002:000128c0 00000008H .xdata$_Z4ceilB6v15007f DATA
 0002:000128c8 00000008H .xdata$_ZNSt3__116__hash_node_baseIPNS_11__hash_nodeINS_17__hash_value_typeIPN6System7Typinfo9TTypeInfoEPSt9type_infoEEPvEEE5__ptrB6v15007Ev DATA
 0002:000128d0 00000008H .xdata$_ZNKSt3__110unique_ptrINS_11__hash_nodeINS_17__hash_value_typeIPN6System7Typinfo9TTypeInfoEPSt9type_infoEEPvEENS_22__hash_node_destructorINS_9allocatorISB_EEEEEptB6v15007Ev DATA
 0002:000128d8 00000008H .xdata$_ZNKSt3__110unique_ptrINS_11__hash_nodeINS_17__hash_value_typeIPN6System7Typinfo9TTypeInfoEPSt9type_infoEEPvEENS_22__hash_node_destructorINS_9allocatorISB_EEEEE3getB6v15007Ev DATA
 0002:000128e0 00000008H .xdata$_ZNSt3__110unique_ptrINS_11__hash_nodeINS_17__hash_value_typeIPN6System7Typinfo9TTypeInfoEPSt9type_infoEEPvEENS_22__hash_node_destructorINS_9allocatorISB_EEEEE7releaseB6v15007Ev DATA
 0002:000128e8 00000008H .xdata$_ZNSt3__110unique_ptrINS_11__hash_nodeINS_17__hash_value_typeIPN6System7Typinfo9TTypeInfoEPSt9type_infoEEPvEENS_22__hash_node_destructorINS_9allocatorISB_EEEEED2B6v15007Ev DATA
 0002:000128f0 00000008H .xdata$_ZNSt3__115__hash_iteratorIPNS_11__hash_nodeINS_17__hash_value_typeIPN6System7Typinfo9TTypeInfoEPSt9type_infoEEPvEEEC2B6v15007EPNS_16__hash_node_baseISC_EEPKv DATA
 0002:000128f8 00000008H .xdata$_ZNSt3__14pairINS_15__hash_iteratorIPNS_11__hash_nodeINS_17__hash_value_typeIPN6System7Typinfo9TTypeInfoEPSt9type_infoEEPvEEEEbEC2B6v15007ISE_RbLSB_0EEEOT_OT0_ DATA
 0002:00012900 00000008H .xdata$_ZNSt3__117__compressed_pairIyNS_22__unordered_map_hasherIPN6System7Typinfo9TTypeInfoENS_17__hash_value_typeIS5_PSt9type_infoEENS_4hashIS5_EENS_8equal_toIS5_EELb1EEEE6secondB6v15007Ev DATA
 0002:00012908 00000008H .xdata$_ZNSt3__122__compressed_pair_elemINS_22__unordered_map_hasherIPN6System7Typinfo9TTypeInfoENS_17__hash_value_typeIS5_PSt9type_infoEENS_4hashIS5_EENS_8equal_toIS5_EELb1EEELi1ELb1EE5__getB6v15007Ev DATA
 0002:00012910 00000020H .xdata$_ZNKSt3__14hashIPN6System7Typinfo9TTypeInfoEEclB6v15007ES4_ DATA
 0002:00012930 00000008H .xdata$_ZNSt3__121__murmur2_or_cityhashIyLy64EEclEPKvy DATA
 0002:00012938 00000008H .xdata$_ZNSt3__121__murmur2_or_cityhashIyLy64EE18__hash_len_0_to_16EPKcy DATA
 0002:00012940 00000008H .xdata$_ZNSt3__121__murmur2_or_cityhashIyLy64EE19__hash_len_17_to_32EPKcy DATA
 0002:00012948 00000008H .xdata$_ZNSt3__121__murmur2_or_cityhashIyLy64EE19__hash_len_33_to_64EPKcy DATA
 0002:00012950 00000008H .xdata$_ZNSt3__110__loadwordB6v15007IyEET_PKv DATA
 0002:00012958 00000008H .xdata$_ZNSt3__121__murmur2_or_cityhashIyLy64EE13__hash_len_16Eyy DATA
 0002:00012960 00000008H .xdata$_ZNSt3__121__murmur2_or_cityhashIyLy64EE29__weak_hash_len_32_with_seedsEPKcyy DATA
 0002:00012968 00000008H .xdata$_ZNSt3__121__murmur2_or_cityhashIyLy64EE8__rotateEyi DATA
 0002:00012970 00000008H .xdata$_ZNSt3__14pairIyyEaSB6v15007EOS1_ DATA
 0002:00012978 00000008H .xdata$_ZNSt3__14swapB6v15007IyEENS_9enable_ifIXaasr21is_move_constructibleIT_EE5valuesr18is_move_assignableIS2_EE5valueEvE4typeERS2_S5_ DATA
 0002:00012980 00000008H .xdata$_ZNSt3__121__murmur2_or_cityhashIyLy64EE11__shift_mixEy DATA
 0002:00012988 00000008H .xdata$_ZNSt3__121__murmur2_or_cityhashIyLy64EE22__rotate_by_at_least_1Eyi DATA
 0002:00012990 00000008H .xdata$_ZNSt3__110__loadwordB6v15007IjEET_PKv DATA
 0002:00012998 00000008H .xdata$_ZNSt3__121__murmur2_or_cityhashIyLy64EE29__weak_hash_len_32_with_seedsEyyyyyy DATA
 0002:000129a0 00000008H .xdata$_ZNSt3__14pairIyyEC2B6v15007IyyLPv0EEEOT_OT0_ DATA
 0002:000129a8 00000008H .xdata$_ZNKSt3__110unique_ptrIA_PNS_16__hash_node_baseIPNS_11__hash_nodeINS_17__hash_value_typeIPN6System7Typinfo9TTypeInfoEPSt9type_infoEEPvEEEENS_25__bucket_list_deallocatorINS_9allocatorISF_EEEEE11get_deleterB6v15007Ev DATA
 0002:000129b0 00000008H .xdata$_ZNKSt3__125__bucket_list_deallocatorINS_9allocatorIPNS_16__hash_node_baseIPNS_11__hash_nodeINS_17__hash_value_typeIPN6System7Typinfo9TTypeInfoEPSt9type_infoEEPvEEEEEEE4sizeB6v15007Ev DATA
 0002:000129b8 00000008H .xdata$_ZNKSt3__117__compressed_pairIPPNS_16__hash_node_baseIPNS_11__hash_nodeINS_17__hash_value_typeIPN6System7Typinfo9TTypeInfoEPSt9type_infoEEPvEEEENS_25__bucket_list_deallocatorINS_9allocatorISF_EEEEE6secondB6v15007Ev DATA
 0002:000129c0 00000008H .xdata$_ZNKSt3__122__compressed_pair_elemINS_25__bucket_list_deallocatorINS_9allocatorIPNS_16__hash_node_baseIPNS_11__hash_nodeINS_17__hash_value_typeIPN6System7Typinfo9TTypeInfoEPSt9type_infoEEPvEEEEEEEELi1ELb0EE5__getB6v15007Ev DATA
 0002:000129c8 00000008H .xdata$_ZNKSt3__117__compressed_pairIyNS_9allocatorIPNS_16__hash_node_baseIPNS_11__hash_nodeINS_17__hash_value_typeIPN6System7Typinfo9TTypeInfoEPSt9type_infoEEPvEEEEEEE5firstB6v15007Ev DATA
 0002:000129d0 00000008H .xdata$_ZNKSt3__122__compressed_pair_elemIyLi0ELb0EE5__getB6v15007Ev DATA
 0002:000129d8 00000008H .xdata$_ZNKSt3__117__compressed_pairIPPNS_16__hash_node_baseIPNS_11__hash_nodeINS_17__hash_value_typeIPN6System7Typinfo9TTypeInfoEPSt9type_infoEEPvEEEENS_25__bucket_list_deallocatorINS_9allocatorISF_EEEEE5firstB6v15007Ev DATA
 0002:000129e0 00000008H .xdata$_ZNKSt3__122__compressed_pair_elemIPPNS_16__hash_node_baseIPNS_11__hash_nodeINS_17__hash_value_typeIPN6System7Typinfo9TTypeInfoEPSt9type_infoEEPvEEEELi0ELb0EE5__getB6v15007Ev DATA
 0002:000129e8 00000008H .xdata$_ZNSt3__117__compressed_pairIfNS_21__unordered_map_equalIPN6System7Typinfo9TTypeInfoENS_17__hash_value_typeIS5_PSt9type_infoEENS_8equal_toIS5_EENS_4hashIS5_EELb1EEEE6secondB6v15007Ev DATA
 0002:000129f0 00000008H .xdata$_ZNSt3__122__compressed_pair_elemINS_21__unordered_map_equalIPN6System7Typinfo9TTypeInfoENS_17__hash_value_typeIS5_PSt9type_infoEENS_8equal_toIS5_EENS_4hashIS5_EELb1EEELi1ELb1EE5__getB6v15007Ev DATA
 0002:000129f8 00000008H .xdata$_ZNKSt3__18equal_toIPN6System7Typinfo9TTypeInfoEEclB6v15007ERKS4_S7_ DATA
 0002:00012a00 00000008H .xdata$_ZNKSt3__117__hash_value_typeIPN6System7Typinfo9TTypeInfoEPSt9type_infoE11__get_valueB6v15007Ev DATA
 0002:00012a08 00000008H .xdata$_ZNSt3__17launderB6v15007IKNS_4pairIKPN6System7Typinfo9TTypeInfoEPSt9type_infoEEEEPT_SC_ DATA
 0002:00012a10 00000008H .xdata$_ZNSt3__19__launderB6v15007IKNS_4pairIKPN6System7Typinfo9TTypeInfoEPSt9type_infoEEEEPT_SC_ DATA
 0002:00012a18 00000008H .xdata$_ZNSt3__116allocator_traitsINS_9allocatorINS_11__hash_nodeINS_17__hash_value_typeIPN6System7Typinfo9TTypeInfoEPSt9type_infoEEPvEEEEE8allocateB6v15007ERSD_y DATA
 0002:00012a20 00000008H .xdata$_ZNSt3__122__hash_node_destructorINS_9allocatorINS_11__hash_nodeINS_17__hash_value_typeIPN6System7Typinfo9TTypeInfoEPSt9type_infoEEPvEEEEEC2B6v15007ERSD_b DATA
 0002:00012a28 00000020H .xdata$_ZNSt3__110unique_ptrINS_11__hash_nodeINS_17__hash_value_typeIPN6System7Typinfo9TTypeInfoEPSt9type_infoEEPvEENS_22__hash_node_destructorINS_9allocatorISB_EEEEEC2B6v15007ILb1EvEEPSB_NS_16__dependent_typeINS_27__unique_ptr_deleter_sfinaeISF_EEXT_EE20__good_rval_ref_typeE DATA
 0002:00012a48 00000008H .xdata$_ZNSt3__116allocator_traitsINS_9allocatorINS_11__hash_nodeINS_17__hash_value_typeIPN6System7Typinfo9TTypeInfoEPSt9type_infoEEPvEEEEE9constructB6v15007INS_4pairIKS7_S9_EEJRKNS_21piecewise_construct_tENS_5tupleIJRSH_EEENSM_IJEEEEvEEvRSD_PT_DpOT0_ DATA
 0002:00012a50 00000008H .xdata$_ZNSt3__110unique_ptrINS_11__hash_nodeINS_17__hash_value_typeIPN6System7Typinfo9TTypeInfoEPSt9type_infoEEPvEENS_22__hash_node_destructorINS_9allocatorISB_EEEEE11get_deleterB6v15007Ev DATA
 0002:00012a58 00000008H .xdata$_ZNSt3__19allocatorINS_11__hash_nodeINS_17__hash_value_typeIPN6System7Typinfo9TTypeInfoEPSt9type_infoEEPvEEE8allocateB6v15007Ey DATA
 0002:00012a60 00000008H .xdata$_ZNSt3__116allocator_traitsINS_9allocatorINS_11__hash_nodeINS_17__hash_value_typeIPN6System7Typinfo9TTypeInfoEPSt9type_infoEEPvEEEEE8max_sizeB6v15007ISD_vEEyRKSD_ DATA
 0002:00012a68 00000008H .xdata$_ZNKSt3__19allocatorINS_11__hash_nodeINS_17__hash_value_typeIPN6System7Typinfo9TTypeInfoEPSt9type_infoEEPvEEE8max_sizeB6v15007Ev DATA
 0002:00012a70 00000008H .xdata$_ZNSt3__117__compressed_pairIPNS_11__hash_nodeINS_17__hash_value_typeIPN6System7Typinfo9TTypeInfoEPSt9type_infoEEPvEENS_22__hash_node_destructorINS_9allocatorISB_EEEEEC2B6v15007IRSC_SG_EEOT_OT0_ DATA
 0002:00012a78 00000008H .xdata$_ZNSt3__122__compressed_pair_elemIPNS_11__hash_nodeINS_17__hash_value_typeIPN6System7Typinfo9TTypeInfoEPSt9type_infoEEPvEELi0ELb0EEC2B6v15007IRSC_vEEOT_ DATA
 0002:00012a80 00000008H .xdata$_ZNSt3__122__compressed_pair_elemINS_22__hash_node_destructorINS_9allocatorINS_11__hash_nodeINS_17__hash_value_typeIPN6System7Typinfo9TTypeInfoEPSt9type_infoEEPvEEEEEELi1ELb0EEC2B6v15007ISF_vEEOT_ DATA
 0002:00012a88 00000008H .xdata$_ZNSt3__19allocatorINS_11__hash_nodeINS_17__hash_value_typeIPN6System7Typinfo9TTypeInfoEPSt9type_infoEEPvEEE9constructB6v15007INS_4pairIKS6_S8_EEJRKNS_21piecewise_construct_tENS_5tupleIJRSF_EEENSK_IJEEEEEEvPT_DpOT0_ DATA
 0002:00012a90 00000020H .xdata$_ZNSt3__14pairIKPN6System7Typinfo9TTypeInfoEPSt9type_infoEC2B6v15007IJRS5_EJEEENS_21piecewise_construct_tENS_5tupleIJDpT_EEENSC_IJDpT0_EEE DATA
 0002:00012ab0 00000008H .xdata$_ZNSt3__14pairIKPN6System7Typinfo9TTypeInfoEPSt9type_infoEC2B6v15007IJRS5_EJEJLy0EEJEEENS_21piecewise_construct_tERNS_5tupleIJDpT_EEERNSC_IJDpT0_EEENS_15__tuple_indicesIJXspT1_EEEENSL_IJXspT2_EEEE DATA
 0002:00012ab8 00000008H .xdata$_ZNSt3__13getB6v15007ILy0EJRKPN6System7Typinfo9TTypeInfoEEEERNS_13tuple_elementIXT_ENS_5tupleIJDpT0_EEEE4typeERSB_ DATA
 0002:00012ac0 00000008H .xdata$_ZNSt3__112__tuple_leafILy0ERKPN6System7Typinfo9TTypeInfoELb0EE3getB6v15007Ev DATA
 0002:00012ac8 00000008H .xdata$_ZNSt3__117__compressed_pairIPNS_11__hash_nodeINS_17__hash_value_typeIPN6System7Typinfo9TTypeInfoEPSt9type_infoEEPvEENS_22__hash_node_destructorINS_9allocatorISB_EEEEE6secondB6v15007Ev DATA
 0002:00012ad0 00000008H .xdata$_ZNSt3__122__compressed_pair_elemINS_22__hash_node_destructorINS_9allocatorINS_11__hash_nodeINS_17__hash_value_typeIPN6System7Typinfo9TTypeInfoEPSt9type_infoEEPvEEEEEELi1ELb0EE5__getB6v15007Ev DATA
 0002:00012ad8 00000008H .xdata$_ZNSt3__117__compressed_pairIyNS_22__unordered_map_hasherIPN6System7Typinfo9TTypeInfoENS_17__hash_value_typeIS5_PSt9type_infoEENS_4hashIS5_EENS_8equal_toIS5_EELb1EEEE5firstB6v15007Ev DATA
 0002:00012ae0 00000008H .xdata$_ZNSt3__117__compressed_pairIfNS_21__unordered_map_equalIPN6System7Typinfo9TTypeInfoENS_17__hash_value_typeIS5_PSt9type_infoEENS_8equal_toIS5_EENS_4hashIS5_EELb1EEEE5firstB6v15007Ev DATA
 0002:00012ae8 00000008H .xdata$_ZNSt3__122__compressed_pair_elemIfLi0ELb0EE5__getB6v15007Ev DATA
 0002:00012af0 00000008H .xdata$_ZNSt3__112__hash_tableINS_17__hash_value_typeIPN6System7Typinfo9TTypeInfoEPSt9type_infoEENS_22__unordered_map_hasherIS5_S8_NS_4hashIS5_EENS_8equal_toIS5_EELb1EEENS_21__unordered_map_equalIS5_S8_SD_SB_Lb1EEENS_9allocatorIS8_EEE8__rehashILb1EEEvy DATA
 0002:00012af8 00000008H .xdata$_ZNSt3__112__hash_tableINS_17__hash_value_typeIPN6System7Typinfo9TTypeInfoEPSt9type_infoEENS_22__unordered_map_hasherIS5_S8_NS_4hashIS5_EENS_8equal_toIS5_EELb1EEENS_21__unordered_map_equalIS5_S8_SD_SB_Lb1EEENS_9allocatorIS8_EEE11__do_rehashILb1EEEvy DATA
 0002:00012b00 00000008H .xdata$_ZNSt3__116__next_hash_pow2B6v15007Ey DATA
 0002:00012b08 00000008H .xdata$_ZNSt3__125__debug_db_invalidate_allB6v15007INS_12__hash_tableINS_17__hash_value_typeIPN6System7Typinfo9TTypeInfoEPSt9type_infoEENS_22__unordered_map_hasherIS6_S9_NS_4hashIS6_EENS_8equal_toIS6_EELb1EEENS_21__unordered_map_equalIS6_S9_SE_SC_Lb1EEENS_9allocatorIS9_EEEEEEvPT_ DATA
 0002:00012b10 00000008H .xdata$_ZNSt3__110unique_ptrIA_PNS_16__hash_node_baseIPNS_11__hash_nodeINS_17__hash_value_typeIPN6System7Typinfo9TTypeInfoEPSt9type_infoEEPvEEEENS_25__bucket_list_deallocatorINS_9allocatorISF_EEEEE11get_deleterB6v15007Ev DATA
 0002:00012b18 00000008H .xdata$_ZNSt3__110unique_ptrIA_PNS_16__hash_node_baseIPNS_11__hash_nodeINS_17__hash_value_typeIPN6System7Typinfo9TTypeInfoEPSt9type_infoEEPvEEEENS_25__bucket_list_deallocatorINS_9allocatorISF_EEEEE5resetB6v15007IPSF_EENS_9enable_ifIXsr28_CheckArrayPointerConversionIT_EE5valueEvE4typeESP_ DATA
 0002:00012b20 00000008H .xdata$_ZNSt3__116allocator_traitsINS_9allocatorIPNS_16__hash_node_baseIPNS_11__hash_nodeINS_17__hash_value_typeIPN6System7Typinfo9TTypeInfoEPSt9type_infoEEPvEEEEEEE8allocateB6v15007ERSH_y DATA
 0002:00012b28 00000008H .xdata$_ZNSt3__19allocatorIPNS_16__hash_node_baseIPNS_11__hash_nodeINS_17__hash_value_typeIPN6System7Typinfo9TTypeInfoEPSt9type_infoEEPvEEEEE8allocateB6v15007Ey DATA
 0002:00012b30 00000008H .xdata$_ZNSt3__116allocator_traitsINS_9allocatorIPNS_16__hash_node_baseIPNS_11__hash_nodeINS_17__hash_value_typeIPN6System7Typinfo9TTypeInfoEPSt9type_infoEEPvEEEEEEE8max_sizeB6v15007ISH_vEEyRKSH_ DATA
 0002:00012b38 00000008H .xdata$_ZNKSt3__19allocatorIPNS_16__hash_node_baseIPNS_11__hash_nodeINS_17__hash_value_typeIPN6System7Typinfo9TTypeInfoEPSt9type_infoEEPvEEEEE8max_sizeB6v15007Ev DATA
 0002:00012b40 00000008H .xdata$_ZNSt3__112__libcpp_clzB6v15007Ey DATA
 0002:00012b48 00000008H .xdata$_ZNKSt3__117__compressed_pairIPNS_11__hash_nodeINS_17__hash_value_typeIPN6System7Typinfo9TTypeInfoEPSt9type_infoEEPvEENS_22__hash_node_destructorINS_9allocatorISB_EEEEE5firstB6v15007Ev DATA
 0002:00012b50 00000008H .xdata$_ZNKSt3__122__compressed_pair_elemIPNS_11__hash_nodeINS_17__hash_value_typeIPN6System7Typinfo9TTypeInfoEPSt9type_infoEEPvEELi0ELb0EE5__getB6v15007Ev DATA
 0002:00012b58 00000008H .xdata$_ZNSt3__117__compressed_pairIPNS_11__hash_nodeINS_17__hash_value_typeIPN6System7Typinfo9TTypeInfoEPSt9type_infoEEPvEENS_22__hash_node_destructorINS_9allocatorISB_EEEEE5firstB6v15007Ev DATA
 0002:00012b60 00000008H .xdata$_ZNSt3__122__compressed_pair_elemIPNS_11__hash_nodeINS_17__hash_value_typeIPN6System7Typinfo9TTypeInfoEPSt9type_infoEEPvEELi0ELb0EE5__getB6v15007Ev DATA
 0002:00012b68 00000008H .xdata$_ZNSt3__110unique_ptrINS_11__hash_nodeINS_17__hash_value_typeIPN6System7Typinfo9TTypeInfoEPSt9type_infoEEPvEENS_22__hash_node_destructorINS_9allocatorISB_EEEEE5resetB6v15007EPSB_ DATA
 0002:00012b70 00000020H .xdata$_ZNSt3__122__hash_node_destructorINS_9allocatorINS_11__hash_nodeINS_17__hash_value_typeIPN6System7Typinfo9TTypeInfoEPSt9type_infoEEPvEEEEEclB6v15007EPSC_ DATA
 0002:00012b90 00000008H .xdata$_ZNSt3__15tupleIJRKPN6System7Typinfo9TTypeInfoEEEC2B6v15007INS_4_AndELi0EEES6_ DATA
 0002:00012b98 00000008H .xdata$_ZNSt3__112__tuple_implINS_15__tuple_indicesIJLy0EEEEJRKPN6System7Typinfo9TTypeInfoEEEC2B6v15007IJLy0EEJS8_EJEJEJS8_EEENS1_IJXspT_EEEENS_13__tuple_typesIJDpT0_EEENS1_IJXspT1_EEEENSC_IJDpT2_EEEDpOT3_ DATA
 0002:00012ba0 00000008H .xdata$_ZNSt3__112__tuple_leafILy0ERKPN6System7Typinfo9TTypeInfoELb0EEC2B6v15007IS6_vEEOT_ DATA
 0002:00012ba8 00000008H .xdata$_ZNSt3__114pointer_traitsIPNS_17__hash_value_typeIPN6System7Typinfo9TTypeInfoEPSt9type_infoEEE10pointer_toB6v15007ERS8_ DATA
 0002:00012bb0 000005ecH .xdata                  DATA
 0002:0001319c 00000020H .xdata$_ZN6System8Sysutils11ERangeErrorC3ENS_13UnicodeStringE DATA
 0002:000131bc 00000020H .xdata$_ZN6System11AnsiStringTILt0EED2Ev DATA
 0002:000131dc 00000020H .xdata$_ZN6System8Sysutils9EIntErrorC3ENS_13UnicodeStringE DATA
 0002:000131fc 00000020H .xdata$_ZN6System8Sysutils9EExternalC3ENS_13UnicodeStringE DATA
 0002:0001321c 00000008H .xdata$_ZN6System11WideCharLenIwEEiPKT_ DATA
 0002:00013224 00000008H .xdata$_ZN6System11WideCharLenIDsEEiPKT_ DATA
 0002:0001322c 00000008H .xdata$_ZN6System11AnsiStringTILt0EEC2EPKci DATA
 0002:00013234 00000468H .xdata                  DATA
 0004:00000000 0000023cH .data                   DATA
 0004:00000240 000001acH .bss                    DATA
 0004:000003f0 00000008H .bss$_ZGVZN6System11AnsiStringTILt0EED1EvE13__force_inst1 DATA
 0004:000003f8 00000008H .bss$_ZGVZN6System11AnsiStringTILt0EED1EvE13__force_inst2 DATA
 0004:00000400 00000008H .bss$_ZZN6System11AnsiStringTILt0EED1EvE13__force_inst1 DATA
 0004:00000408 00000008H .bss$_ZZN6System11AnsiStringTILt0EED1EvE13__force_inst2 DATA
 0005:00000000 00000240H .pdata                  DATA
 0005:00000240 0000000cH .pdata$_ZN3Vcl5Forms5TFormC3EPN6System7Classes10TComponentE DATA
 0005:0000024c 0000000cH .pdata$_ZNK6System13UnicodeString7IsEmptyEv DATA
 0005:00000258 0000000cH .pdata$_ZN16TAddComputerFormD0Ev DATA
 0005:00000264 0000000cH .pdata$_ZN3Vcl5Forms5TFormC3EPN6System7Classes10TComponentEi DATA
 0005:00000270 0000000cH .pdata$_ZN3Vcl5Forms5TFormC3EPN6System7Classes10TComponentEii DATA
 0005:0000027c 0000000cH .pdata$_ZN3Vcl5Forms5TFormD0Ev DATA
 0005:00000288 00000168H .pdata                  DATA
 0005:000003f0 0000000cH .pdata$_ZNSt3__1lsINS_11char_traitsIcEEEERNS_13basic_ostreamIcT_EES6_PKc DATA
 0005:000003fc 0000000cH .pdata$_ZNSt3__1lsIcNS_11char_traitsIcEENS_9allocatorIcEEEERNS_13basic_ostreamIT_T0_EES9_RKNS_12basic_stringIS6_S7_T1_EE DATA
 0005:00000408 0000000cH .pdata$_ZNSt3__1rsIcNS_11char_traitsIcEENS_9allocatorIcEEEERNS_13basic_istreamIT_T0_EES9_RNS_12basic_stringIS6_S7_T1_EE DATA
 0005:00000414 0000000cH .pdata$_ZNSt3__16vectorI9ComponentNS_9allocatorIS1_EEEC1B6v15007Ev DATA
 0005:00000420 0000000cH .pdata$_ZNSt3__16vectorI9ComponentNS_9allocatorIS1_EEED1B6v15007Ev DATA
 0005:0000042c 0000000cH .pdata$_ZNKSt3__16vectorI9ComponentNS_9allocatorIS1_EEE4sizeB6v15007Ev DATA
 0005:00000438 0000000cH .pdata$_ZNKSt3__16vectorI9ComponentNS_9allocatorIS1_EEE5beginB6v15007Ev DATA
 0005:00000444 0000000cH .pdata$_ZNKSt3__16vectorI9ComponentNS_9allocatorIS1_EEE3endB6v15007Ev DATA
 0005:00000450 0000000cH .pdata$_ZNSt3__1neB6v15007IPK9ComponentEEbRKNS_11__wrap_iterIT_EES8_ DATA
 0005:0000045c 0000000cH .pdata$_ZNKSt3__111__wrap_iterIPK9ComponentEdeB6v15007Ev DATA
 0005:00000468 0000000cH .pdata$_ZNSt3__111__wrap_iterIPK9ComponentEppB6v15007Ev DATA
 0005:00000474 0000000cH .pdata$_ZNSt3__113basic_istreamIcNS_11char_traitsIcEEErsB6v15007EPFRS3_S4_E DATA
 0005:00000480 0000000cH .pdata$_ZNSt3__12wsIcNS_11char_traitsIcEEEERNS_13basic_istreamIT_T0_EES7_ DATA
 0005:0000048c 0000000cH .pdata$_ZNSt3__17getlineB6v15007IcNS_11char_traitsIcEENS_9allocatorIcEEEERNS_13basic_istreamIT_T0_EES9_RNS_12basic_stringIS6_S7_T1_EE DATA
 0005:00000498 0000000cH .pdata$_ZNSt3__16vectorI9ComponentNS_9allocatorIS1_EEE5clearB6v15007Ev DATA
 0005:000004a4 0000000cH .pdata$_ZNSt3__112basic_stringIcNS_11char_traitsIcEENS_9allocatorIcEEEC1B6v15007IDnEEPKc DATA
 0005:000004b0 0000000cH .pdata$_ZNSt3__16vectorI9ComponentNS_9allocatorIS1_EEE9push_backB6v15007ERKS1_ DATA
 0005:000004bc 0000000cH .pdata$_ZN9ComponentD1Ev DATA
 0005:000004c8 0000000cH .pdata$_ZNSt3__16vectorI9ComponentNS_9allocatorIS1_EEE5beginB6v15007Ev DATA
 0005:000004d4 0000000cH .pdata$_ZNSt3__16vectorI9ComponentNS_9allocatorIS1_EEE3endB6v15007Ev DATA
 0005:000004e0 0000000cH .pdata$_ZNSt3__1neB6v15007IP9ComponentEEbRKNS_11__wrap_iterIT_EES7_ DATA
 0005:000004ec 0000000cH .pdata$_ZNKSt3__111__wrap_iterIP9ComponentEdeB6v15007Ev DATA
 0005:000004f8 0000000cH .pdata$_ZNSt3__111__wrap_iterIP9ComponentEppB6v15007Ev DATA
 0005:00000504 0000000cH .pdata$_ZNSt3__1eqB6v15007IPK9ComponentEEbRKNS_11__wrap_iterIT_EES8_ DATA
 0005:00000510 0000000cH .pdata$_ZNKSt3__111__wrap_iterIPK9ComponentE4baseB6v15007Ev DATA
 0005:0000051c 0000000cH .pdata$_ZN9ComponentD2Ev DATA
 0005:00000528 0000000cH .pdata$_ZNSt3__1eqB6v15007IP9ComponentEEbRKNS_11__wrap_iterIT_EES7_ DATA
 0005:00000534 0000000cH .pdata$_ZNKSt3__111__wrap_iterIP9ComponentE4baseB6v15007Ev DATA
 0005:00000540 0000000cH .pdata$_ZNSt3__124__put_character_sequenceIcNS_11char_traitsIcEEEERNS_13basic_ostreamIT_T0_EES7_PKS4_y DATA
 0005:0000054c 0000000cH .pdata$_ZNSt3__111char_traitsIcE6lengthEPKc DATA
 0005:00000558 0000000cH .pdata$_ZNSt3__113basic_ostreamIcNS_11char_traitsIcEEE6sentryC1ERS3_ DATA
 0005:00000564 0000000cH .pdata$_ZNKSt3__113basic_ostreamIcNS_11char_traitsIcEEE6sentrycvbB6v15007Ev DATA
 0005:00000570 0000000cH .pdata$_ZNSt3__116__pad_and_outputIcNS_11char_traitsIcEEEENS_19ostreambuf_iteratorIT_T0_EES6_PKS4_S8_S8_RNS_8ios_baseES4_ DATA
 0005:0000057c 0000000cH .pdata$_ZNSt3__119ostreambuf_iteratorIcNS_11char_traitsIcEEEC1B6v15007ERNS_13basic_ostreamIcS2_EE DATA
 0005:00000588 0000000cH .pdata$_ZNKSt3__18ios_base5flagsB6v15007Ev DATA
 0005:00000594 0000000cH .pdata$_ZNKSt3__19basic_iosIcNS_11char_traitsIcEEE4fillB6v15007Ev DATA
 0005:000005a0 0000000cH .pdata$_ZNKSt3__119ostreambuf_iteratorIcNS_11char_traitsIcEEE6failedB6v15007Ev DATA
 0005:000005ac 0000000cH .pdata$_ZNSt3__19basic_iosIcNS_11char_traitsIcEEE8setstateB6v15007Ej DATA
 0005:000005b8 0000000cH .pdata$_ZNSt3__113basic_ostreamIcNS_11char_traitsIcEEE6sentryD1Ev DATA
 0005:000005c4 0000000cH .pdata$_ZNSt3__113basic_ostreamIcNS_11char_traitsIcEEE6sentryC2ERS3_ DATA
 0005:000005d0 0000000cH .pdata$_ZNKSt3__19basic_iosIcNS_11char_traitsIcEEE4goodB6v15007Ev DATA
 0005:000005dc 0000000cH .pdata$_ZNKSt3__19basic_iosIcNS_11char_traitsIcEEE3tieB6v15007Ev DATA
 0005:000005e8 0000000cH .pdata$_ZNKSt3__18ios_base4goodB6v15007Ev DATA
 0005:000005f4 0000000cH .pdata$_ZNKSt3__18ios_base5widthB6v15007Ev DATA
 0005:00000600 0000000cH .pdata$_ZNSt3__115basic_streambufIcNS_11char_traitsIcEEE5sputnB6v15007EPKcx DATA
 0005:0000060c 0000000cH .pdata$_ZNSt3__112basic_stringIcNS_11char_traitsIcEENS_9allocatorIcEEEC1B6v15007Eyc DATA
 0005:00000618 0000000cH .pdata$_ZNSt3__112basic_stringIcNS_11char_traitsIcEENS_9allocatorIcEEE4dataB6v15007Ev DATA
 0005:00000624 0000000cH .pdata$_ZNSt3__18ios_base5widthB6v15007Ex DATA
 0005:00000630 0000000cH .pdata$_ZNSt3__112basic_stringIcNS_11char_traitsIcEENS_9allocatorIcEEEC2B6v15007Eyc DATA
 0005:0000063c 0000000cH .pdata$_ZNSt3__117__compressed_pairINS_12basic_stringIcNS_11char_traitsIcEENS_9allocatorIcEEE5__repES5_EC1B6v15007INS_18__default_init_tagESA_EEOT_OT0_ DATA
 0005:00000648 0000000cH .pdata$_ZNSt3__119__debug_db_insert_cB6v15007INS_12basic_stringIcNS_11char_traitsIcEENS_9allocatorIcEEEEEEvPT_ DATA
 0005:00000654 0000000cH .pdata$_ZNSt3__117__compressed_pairINS_12basic_stringIcNS_11char_traitsIcEENS_9allocatorIcEEE5__repES5_EC2B6v15007INS_18__default_init_tagESA_EEOT_OT0_ DATA
 0005:00000660 0000000cH .pdata$_ZNSt3__122__compressed_pair_elemINS_12basic_stringIcNS_11char_traitsIcEENS_9allocatorIcEEE5__repELi0ELb0EEC2B6v15007ENS_18__default_init_tagE DATA
 0005:0000066c 0000000cH .pdata$_ZNSt3__122__compressed_pair_elemINS_9allocatorIcEELi1ELb1EEC2B6v15007ENS_18__default_init_tagE DATA
 0005:00000678 0000000cH .pdata$_ZNSt3__19allocatorIcEC2B6v15007Ev DATA
 0005:00000684 0000000cH .pdata$_ZNSt3__116__non_trivial_ifILb1ENS_9allocatorIcEEEC2B6v15007Ev DATA
 0005:00000690 0000000cH .pdata$_ZNSt3__112__to_addressB6v15007IcEEPT_S2_ DATA
 0005:0000069c 0000000cH .pdata$_ZNSt3__112basic_stringIcNS_11char_traitsIcEENS_9allocatorIcEEE13__get_pointerB6v15007Ev DATA
 0005:000006a8 0000000cH .pdata$_ZNKSt3__112basic_stringIcNS_11char_traitsIcEENS_9allocatorIcEEE9__is_longB6v15007Ev DATA
 0005:000006b4 0000000cH .pdata$_ZNSt3__112basic_stringIcNS_11char_traitsIcEENS_9allocatorIcEEE18__get_long_pointerB6v15007Ev DATA
 0005:000006c0 0000000cH .pdata$_ZNSt3__112basic_stringIcNS_11char_traitsIcEENS_9allocatorIcEEE19__get_short_pointerB6v15007Ev DATA
 0005:000006cc 0000000cH .pdata$_ZNKSt3__117__compressed_pairINS_12basic_stringIcNS_11char_traitsIcEENS_9allocatorIcEEE5__repES5_E5firstB6v15007Ev DATA
 0005:000006d8 0000000cH .pdata$_ZNKSt3__122__compressed_pair_elemINS_12basic_stringIcNS_11char_traitsIcEENS_9allocatorIcEEE5__repELi0ELb0EE5__getB6v15007Ev DATA
 0005:000006e4 0000000cH .pdata$_ZNSt3__117__compressed_pairINS_12basic_stringIcNS_11char_traitsIcEENS_9allocatorIcEEE5__repES5_E5firstB6v15007Ev DATA
 0005:000006f0 0000000cH .pdata$_ZNSt3__122__compressed_pair_elemINS_12basic_stringIcNS_11char_traitsIcEENS_9allocatorIcEEE5__repELi0ELb0EE5__getB6v15007Ev DATA
 0005:000006fc 0000000cH .pdata$_ZNSt3__114pointer_traitsIPcE10pointer_toB6v15007ERc DATA
 0005:00000708 0000000cH .pdata$_ZNSt3__119ostreambuf_iteratorIcNS_11char_traitsIcEEEC2B6v15007ERNS_13basic_ostreamIcS2_EE DATA
 0005:00000714 0000000cH .pdata$_ZNKSt3__19basic_iosIcNS_11char_traitsIcEEE5rdbufB6v15007Ev DATA
 0005:00000720 0000000cH .pdata$_ZNKSt3__18ios_base5rdbufB6v15007Ev DATA
 0005:0000072c 0000000cH .pdata$_ZNSt3__111char_traitsIcE11eq_int_typeEii DATA
 0005:00000738 0000000cH .pdata$_ZNKSt3__19basic_iosIcNS_11char_traitsIcEEE5widenB6v15007Ec DATA
 0005:00000744 0000000cH .pdata$_ZNSt3__19use_facetB6v15007INS_5ctypeIcEEEERKT_RKNS_6localeE DATA
 0005:00000750 0000000cH .pdata$_ZNKSt3__15ctypeIcE5widenB6v15007Ec DATA
 0005:0000075c 0000000cH .pdata$_ZNSt3__18ios_base8setstateB6v15007Ej DATA
 0005:00000768 0000000cH .pdata$_ZNSt3__113basic_ostreamIcNS_11char_traitsIcEEE6sentryD2Ev DATA
 0005:00000774 0000000cH .pdata$_ZNSt3__115basic_streambufIcNS_11char_traitsIcEEE7pubsyncB6v15007Ev DATA
 0005:00000780 0000000cH .pdata$_ZNKSt3__112basic_stringIcNS_11char_traitsIcEENS_9allocatorIcEEE4dataB6v15007Ev DATA
 0005:0000078c 0000000cH .pdata$_ZNKSt3__112basic_stringIcNS_11char_traitsIcEENS_9allocatorIcEEE4sizeB6v15007Ev DATA
 0005:00000798 0000000cH .pdata$_ZNSt3__112__to_addressB6v15007IKcEEPT_S3_ DATA
 0005:000007a4 0000000cH .pdata$_ZNKSt3__112basic_stringIcNS_11char_traitsIcEENS_9allocatorIcEEE13__get_pointerB6v15007Ev DATA
 0005:000007b0 0000000cH .pdata$_ZNKSt3__112basic_stringIcNS_11char_traitsIcEENS_9allocatorIcEEE18__get_long_pointerB6v15007Ev DATA
 0005:000007bc 0000000cH .pdata$_ZNKSt3__112basic_stringIcNS_11char_traitsIcEENS_9allocatorIcEEE19__get_short_pointerB6v15007Ev DATA
 0005:000007c8 0000000cH .pdata$_ZNSt3__114pointer_traitsIPKcE10pointer_toB6v15007ERS1_ DATA
 0005:000007d4 0000000cH .pdata$_ZNKSt3__112basic_stringIcNS_11char_traitsIcEENS_9allocatorIcEEE15__get_long_sizeB6v15007Ev DATA
 0005:000007e0 0000000cH .pdata$_ZNKSt3__112basic_stringIcNS_11char_traitsIcEENS_9allocatorIcEEE16__get_short_sizeB6v15007Ev DATA
 0005:000007ec 0000000cH .pdata$_ZNSt3__113basic_istreamIcNS_11char_traitsIcEEE6sentryC1ERS3_b DATA
 0005:000007f8 0000000cH .pdata$_ZNKSt3__113basic_istreamIcNS_11char_traitsIcEEE6sentrycvbB6v15007Ev DATA
 0005:00000804 0000000cH .pdata$_ZNSt3__112basic_stringIcNS_11char_traitsIcEENS_9allocatorIcEEE5clearB6v15007Ev DATA
 0005:00000810 0000000cH .pdata$_ZNKSt3__112basic_stringIcNS_11char_traitsIcEENS_9allocatorIcEEE8max_sizeB6v15007Ev DATA
 0005:0000081c 0000000cH .pdata$_ZNSt3__114numeric_limitsIxE3maxB6v15007Ev DATA
 0005:00000828 0000000cH .pdata$_ZNSt3__115basic_streambufIcNS_11char_traitsIcEEE5sgetcB6v15007Ev DATA
 0005:00000834 0000000cH .pdata$_ZNSt3__111char_traitsIcE12to_char_typeEi DATA
 0005:00000840 0000000cH .pdata$_ZNKSt3__15ctypeIcE2isB6v15007Etc DATA
 0005:0000084c 0000000cH .pdata$_ZNSt3__115basic_streambufIcNS_11char_traitsIcEEE6sbumpcB6v15007Ev DATA
 0005:00000858 0000000cH .pdata$_ZNSt3__18ios_base18__setstate_nothrowB6v15007Ej DATA
 0005:00000864 0000000cH .pdata$_ZNKSt3__19basic_iosIcNS_11char_traitsIcEEE10exceptionsB6v15007Ev DATA
 0005:00000870 0000000cH .pdata$_ZNSt3__113basic_istreamIcNS_11char_traitsIcEEE6sentryC2ERS3_b DATA
 0005:0000087c 0000000cH .pdata$_ZNSt3__119istreambuf_iteratorIcNS_11char_traitsIcEEEC1B6v15007ERNS_13basic_istreamIcS2_EE DATA
 0005:00000888 0000000cH .pdata$_ZNSt3__119istreambuf_iteratorIcNS_11char_traitsIcEEEC1B6v15007Ev DATA
 0005:00000894 0000000cH .pdata$_ZNSt3__1neB6v15007IcNS_11char_traitsIcEEEEbRKNS_19istreambuf_iteratorIT_T0_EES8_ DATA
 0005:000008a0 0000000cH .pdata$_ZNKSt3__119istreambuf_iteratorIcNS_11char_traitsIcEEEdeB6v15007Ev DATA
 0005:000008ac 0000000cH .pdata$_ZNSt3__119istreambuf_iteratorIcNS_11char_traitsIcEEEppB6v15007Ev DATA
 0005:000008b8 0000000cH .pdata$_ZNSt3__1eqB6v15007IcNS_11char_traitsIcEEEEbRKNS_19istreambuf_iteratorIT_T0_EES8_ DATA
 0005:000008c4 0000000cH .pdata$_ZNSt3__119istreambuf_iteratorIcNS_11char_traitsIcEEEC2B6v15007ERNS_13basic_istreamIcS2_EE DATA
 0005:000008d0 0000000cH .pdata$_ZNSt3__119istreambuf_iteratorIcNS_11char_traitsIcEEEC2B6v15007Ev DATA
 0005:000008dc 0000000cH .pdata$_ZNKSt3__119istreambuf_iteratorIcNS_11char_traitsIcEEE5equalB6v15007ERKS3_ DATA
 0005:000008e8 0000000cH .pdata$_ZNKSt3__119istreambuf_iteratorIcNS_11char_traitsIcEEE14__test_for_eofB6v15007Ev DATA
 0005:000008f4 0000000cH .pdata$_ZNSt3__125__debug_db_invalidate_allB6v15007INS_12basic_stringIcNS_11char_traitsIcEENS_9allocatorIcEEEEEEvPT_ DATA
 0005:00000900 0000000cH .pdata$_ZNSt3__111char_traitsIcE6assignERcRKc DATA
 0005:0000090c 0000000cH .pdata$_ZNSt3__112basic_stringIcNS_11char_traitsIcEENS_9allocatorIcEEE15__set_long_sizeB6v15007Ey DATA
 0005:00000918 0000000cH .pdata$_ZNSt3__112basic_stringIcNS_11char_traitsIcEENS_9allocatorIcEEE16__set_short_sizeB6v15007Ey DATA
 0005:00000924 0000000cH .pdata$_ZNSt3__116allocator_traitsINS_9allocatorIcEEE8max_sizeB6v15007IS2_vEEyRKS2_ DATA
 0005:00000930 0000000cH .pdata$_ZNKSt3__112basic_stringIcNS_11char_traitsIcEENS_9allocatorIcEEE7__allocB6v15007Ev DATA
 0005:0000093c 0000000cH .pdata$_ZNSt3__114numeric_limitsIyE3maxB6v15007Ev DATA
 0005:00000948 0000000cH .pdata$_ZNKSt3__19allocatorIcE8max_sizeB6v15007Ev DATA
 0005:00000954 0000000cH .pdata$_ZNKSt3__117__compressed_pairINS_12basic_stringIcNS_11char_traitsIcEENS_9allocatorIcEEE5__repES5_E6secondB6v15007Ev DATA
 0005:00000960 0000000cH .pdata$_ZNKSt3__122__compressed_pair_elemINS_9allocatorIcEELi1ELb1EE5__getB6v15007Ev DATA
 0005:0000096c 0000000cH .pdata$_ZNSt3__111char_traitsIcE11to_int_typeEc DATA
 0005:00000978 0000000cH .pdata$_ZNKSt3__18ios_base10exceptionsB6v15007Ev DATA
 0005:00000984 0000000cH .pdata$_ZNSt3__16vectorI9ComponentNS_9allocatorIS1_EEEC2B6v15007Ev DATA
 0005:00000990 0000000cH .pdata$_ZNSt3__117__compressed_pairIP9ComponentNS_9allocatorIS1_EEEC1B6v15007IDnNS_18__default_init_tagEEEOT_OT0_ DATA
 0005:0000099c 0000000cH .pdata$_ZNSt3__119__debug_db_insert_cB6v15007INS_6vectorI9ComponentNS_9allocatorIS2_EEEEEEvPT_ DATA
 0005:000009a8 0000000cH .pdata$_ZNSt3__117__compressed_pairIP9ComponentNS_9allocatorIS1_EEEC2B6v15007IDnNS_18__default_init_tagEEEOT_OT0_ DATA
 0005:000009b4 0000000cH .pdata$_ZNSt3__122__compressed_pair_elemIP9ComponentLi0ELb0EEC2B6v15007IDnvEEOT_ DATA
 0005:000009c0 0000000cH .pdata$_ZNSt3__122__compressed_pair_elemINS_9allocatorI9ComponentEELi1ELb1EEC2B6v15007ENS_18__default_init_tagE DATA
 0005:000009cc 0000000cH .pdata$_ZNSt3__19allocatorI9ComponentEC2B6v15007Ev DATA
 0005:000009d8 0000000cH .pdata$_ZNSt3__116__non_trivial_ifILb1ENS_9allocatorI9ComponentEEEC2B6v15007Ev DATA
 0005:000009e4 0000000cH .pdata$_ZNSt3__16vectorI9ComponentNS_9allocatorIS1_EEED2B6v15007Ev DATA
 0005:000009f0 0000000cH .pdata$_ZNSt3__16vectorI9ComponentNS_9allocatorIS1_EEE16__destroy_vectorC1ERS4_ DATA
 0005:000009fc 0000000cH .pdata$_ZNSt3__16vectorI9ComponentNS_9allocatorIS1_EEE16__destroy_vectorclB6v15007Ev DATA
 0005:00000a08 0000000cH .pdata$_ZNSt3__16vectorI9ComponentNS_9allocatorIS1_EEE16__destroy_vectorC2ERS4_ DATA
 0005:00000a14 0000000cH .pdata$_ZNKSt3__16vectorI9ComponentNS_9allocatorIS1_EEE17__annotate_deleteB6v15007Ev DATA
 0005:00000a20 0000000cH .pdata$_ZNSt3__118__debug_db_erase_cB6v15007INS_6vectorI9ComponentNS_9allocatorIS2_EEEEEEvPT_ DATA
 0005:00000a2c 0000000cH .pdata$_ZNSt3__16vectorI9ComponentNS_9allocatorIS1_EEE7__clearB6v15007Ev DATA
 0005:00000a38 0000000cH .pdata$_ZNSt3__116allocator_traitsINS_9allocatorI9ComponentEEE10deallocateB6v15007ERS3_PS2_y DATA
 0005:00000a44 0000000cH .pdata$_ZNSt3__16vectorI9ComponentNS_9allocatorIS1_EEE7__allocB6v15007Ev DATA
 0005:00000a50 0000000cH .pdata$_ZNKSt3__16vectorI9ComponentNS_9allocatorIS1_EEE8capacityB6v15007Ev DATA
 0005:00000a5c 0000000cH .pdata$_ZNKSt3__16vectorI9ComponentNS_9allocatorIS1_EEE31__annotate_contiguous_containerB6v15007EPKvS6_S6_S6_ DATA
 0005:00000a68 0000000cH .pdata$_ZNKSt3__16vectorI9ComponentNS_9allocatorIS1_EEE4dataB6v15007Ev DATA
 0005:00000a74 0000000cH .pdata$_ZNSt3__112__to_addressB6v15007I9ComponentEEPT_S3_ DATA
 0005:00000a80 0000000cH .pdata$_ZNSt3__16vectorI9ComponentNS_9allocatorIS1_EEE22__base_destruct_at_endB6v15007EPS1_ DATA
 0005:00000a8c 0000000cH .pdata$_ZNSt3__116allocator_traitsINS_9allocatorI9ComponentEEE7destroyB6v15007IS2_vEEvRS3_PT_ DATA
 0005:00000a98 0000000cH .pdata$_ZNSt3__19allocatorI9ComponentE7destroyB6v15007EPS1_ DATA
 0005:00000aa4 0000000cH .pdata$_ZNSt3__19allocatorI9ComponentE10deallocateB6v15007EPS1_y DATA
 0005:00000ab0 0000000cH .pdata$_ZNSt3__119__libcpp_deallocateB6v15007EPvyy DATA
 0005:00000abc 0000000cH .pdata$_ZNSt3__124__is_overaligned_for_newB6v15007Ey DATA
 0005:00000ac8 0000000cH .pdata$_ZNSt3__127__do_deallocate_handle_sizeB6v15007IJSt11align_val_tEEEvPvyDpT_ DATA
 0005:00000ad4 0000000cH .pdata$_ZNSt3__127__do_deallocate_handle_sizeB6v15007IJEEEvPvyDpT_ DATA
 0005:00000ae0 0000000cH .pdata$_ZNSt3__124__libcpp_operator_deleteB6v15007IJPvSt11align_val_tEEEvDpT_ DATA
 0005:00000aec 0000000cH .pdata$_ZNSt3__124__libcpp_operator_deleteB6v15007IJPvEEEvDpT_ DATA
 0005:00000af8 0000000cH .pdata$_ZNSt3__117__compressed_pairIP9ComponentNS_9allocatorIS1_EEE6secondB6v15007Ev DATA
 0005:00000b04 0000000cH .pdata$_ZNSt3__122__compressed_pair_elemINS_9allocatorI9ComponentEELi1ELb1EE5__getB6v15007Ev DATA
 0005:00000b10 0000000cH .pdata$_ZNKSt3__16vectorI9ComponentNS_9allocatorIS1_EEE9__end_capB6v15007Ev DATA
 0005:00000b1c 0000000cH .pdata$_ZNKSt3__117__compressed_pairIP9ComponentNS_9allocatorIS1_EEE5firstB6v15007Ev DATA
 0005:00000b28 0000000cH .pdata$_ZNKSt3__122__compressed_pair_elemIP9ComponentLi0ELb0EE5__getB6v15007Ev DATA
 0005:00000b34 0000000cH .pdata$_ZNSt3__111__wrap_iterIPK9ComponentEC1B6v15007EPKvS3_ DATA
 0005:00000b40 0000000cH .pdata$_ZNSt3__111__wrap_iterIPK9ComponentEC2B6v15007EPKvS3_ DATA
 0005:00000b4c 0000000cH .pdata$_ZNSt3__17getlineIcNS_11char_traitsIcEENS_9allocatorIcEEEERNS_13basic_istreamIT_T0_EES9_RNS_12basic_stringIS6_S7_T1_EES6_ DATA
 0005:00000b58 0000000cH .pdata$_ZNSt3__111char_traitsIcE2eqEcc DATA
 0005:00000b64 0000000cH .pdata$_ZNKSt3__16vectorI9ComponentNS_9allocatorIS1_EEE17__annotate_shrinkB6v15007Ey DATA
 0005:00000b70 0000000cH .pdata$_ZNSt3__125__debug_db_invalidate_allB6v15007INS_6vectorI9ComponentNS_9allocatorIS2_EEEEEEvPT_ DATA
 0005:00000b7c 0000000cH .pdata$_ZNSt3__112basic_stringIcNS_11char_traitsIcEENS_9allocatorIcEEEC2B6v15007IDnEEPKc DATA
 0005:00000b88 0000000cH .pdata$_ZNSt3__16vectorI9ComponentNS_9allocatorIS1_EEE9__end_capB6v15007Ev DATA
 0005:00000b94 0000000cH .pdata$_ZNSt3__16vectorI9ComponentNS_9allocatorIS1_EEE22__construct_one_at_endB6v15007IJRKS1_EEEvDpOT_ DATA
 0005:00000ba0 0000000cH .pdata$_ZNSt3__16vectorI9ComponentNS_9allocatorIS1_EEE21__push_back_slow_pathIRKS1_EEvOT_ DATA
 0005:00000bac 0000000cH .pdata$_ZNSt3__117__compressed_pairIP9ComponentNS_9allocatorIS1_EEE5firstB6v15007Ev DATA
 0005:00000bb8 0000000cH .pdata$_ZNSt3__122__compressed_pair_elemIP9ComponentLi0ELb0EE5__getB6v15007Ev DATA
 0005:00000bc4 0000000cH .pdata$_ZNSt3__16vectorI9ComponentNS_9allocatorIS1_EEE21_ConstructTransactionC1ERS4_y DATA
 0005:00000bd0 0000000cH .pdata$_ZNSt3__116allocator_traitsINS_9allocatorI9ComponentEEE9constructB6v15007IS2_JRKS2_EvEEvRS3_PT_DpOT0_ DATA
 0005:00000bdc 0000000cH .pdata$_ZNSt3__16vectorI9ComponentNS_9allocatorIS1_EEE21_ConstructTransactionD1Ev DATA
 0005:00000be8 0000000cH .pdata$_ZNSt3__16vectorI9ComponentNS_9allocatorIS1_EEE21_ConstructTransactionC2ERS4_y DATA
 0005:00000bf4 0000000cH .pdata$_ZNSt3__19allocatorI9ComponentE9constructB6v15007IS1_JRKS1_EEEvPT_DpOT0_ DATA
 0005:00000c00 0000000cH .pdata$_ZN9ComponentC1ERKS_ DATA
 0005:00000c0c 0000000cH .pdata$_ZN9ComponentC2ERKS_ DATA
 0005:00000c18 0000000cH .pdata$_ZNSt3__16vectorI9ComponentNS_9allocatorIS1_EEE21_ConstructTransactionD2Ev DATA
 0005:00000c24 0000000cH .pdata$_ZNKSt3__16vectorI9ComponentNS_9allocatorIS1_EEE11__recommendB6v15007Ey DATA
 0005:00000c30 0000000cH .pdata$_ZNSt3__114__split_bufferI9ComponentRNS_9allocatorIS1_EEEC1EyyS4_ DATA
 0005:00000c3c 0000000cH .pdata$_ZNSt3__16vectorI9ComponentNS_9allocatorIS1_EEE26__swap_out_circular_bufferERNS_14__split_bufferIS1_RS3_EE DATA
 0005:00000c48 0000000cH .pdata$_ZNSt3__114__split_bufferI9ComponentRNS_9allocatorIS1_EEED1Ev DATA
 0005:00000c54 0000000cH .pdata$_ZNKSt3__16vectorI9ComponentNS_9allocatorIS1_EEE8max_sizeEv DATA
 0005:00000c60 0000000cH .pdata$_ZNKSt3__16vectorI9ComponentNS_9allocatorIS1_EEE20__throw_length_errorB6v15007Ev DATA
 0005:00000c6c 0000000cH .pdata$_ZNSt3__13maxB6v15007IyEERKT_S3_S3_ DATA
 0005:00000c78 0000000cH .pdata$_ZNSt3__13minB6v15007IyEERKT_S3_S3_ DATA
 0005:00000c84 0000000cH .pdata$_ZNSt3__116allocator_traitsINS_9allocatorI9ComponentEEE8max_sizeB6v15007IS3_vEEyRKS3_ DATA
 0005:00000c90 0000000cH .pdata$_ZNKSt3__16vectorI9ComponentNS_9allocatorIS1_EEE7__allocB6v15007Ev DATA
 0005:00000c9c 0000000cH .pdata$_ZNSt3__13minB6v15007IyNS_6__lessIyyEEEERKT_S5_S5_T0_ DATA
 0005:00000ca8 0000000cH .pdata$_ZNKSt3__16__lessIyyEclB6v15007ERKyS3_ DATA
 0005:00000cb4 0000000cH .pdata$_ZNKSt3__19allocatorI9ComponentE8max_sizeB6v15007Ev DATA
 0005:00000cc0 0000000cH .pdata$_ZNKSt3__117__compressed_pairIP9ComponentNS_9allocatorIS1_EEE6secondB6v15007Ev DATA
 0005:00000ccc 0000000cH .pdata$_ZNKSt3__122__compressed_pair_elemINS_9allocatorI9ComponentEELi1ELb1EE5__getB6v15007Ev DATA
 0005:00000cd8 0000000cH .pdata$_ZNSt3__120__throw_length_errorB6v15007EPKc DATA
 0005:00000ce4 0000000cH .pdata$_ZNSt12length_errorC1B6v15007EPKc DATA
 0005:00000cf0 0000000cH .pdata$_ZNSt12length_errorC2B6v15007EPKc DATA
 0005:00000cfc 0000000cH .pdata$_ZNSt3__13maxB6v15007IyNS_6__lessIyyEEEERKT_S5_S5_T0_ DATA
 0005:00000d08 0000000cH .pdata$_ZNSt3__114__split_bufferI9ComponentRNS_9allocatorIS1_EEEC2EyyS4_ DATA
 0005:00000d14 0000000cH .pdata$_ZNSt3__117__compressed_pairIP9ComponentRNS_9allocatorIS1_EEEC1B6v15007IDnS5_EEOT_OT0_ DATA
 0005:00000d20 0000000cH .pdata$_ZNSt3__119__allocate_at_leastB6v15007INS_9allocatorI9ComponentEEEENS_19__allocation_resultINS_16allocator_traitsIT_E7pointerEEERS6_y DATA
 0005:00000d2c 0000000cH .pdata$_ZNSt3__114__split_bufferI9ComponentRNS_9allocatorIS1_EEE7__allocB6v15007Ev DATA
 0005:00000d38 0000000cH .pdata$_ZNSt3__114__split_bufferI9ComponentRNS_9allocatorIS1_EEE9__end_capB6v15007Ev DATA
 0005:00000d44 0000000cH .pdata$_ZNSt3__117__compressed_pairIP9ComponentRNS_9allocatorIS1_EEEC2B6v15007IDnS5_EEOT_OT0_ DATA
 0005:00000d50 0000000cH .pdata$_ZNSt3__122__compressed_pair_elemIRNS_9allocatorI9ComponentEELi1ELb0EEC2B6v15007IS4_vEEOT_ DATA
 0005:00000d5c 0000000cH .pdata$_ZNSt3__19allocatorI9ComponentE8allocateB6v15007Ey DATA
 0005:00000d68 0000000cH .pdata$_ZSt28__throw_bad_array_new_lengthB6v15007v DATA
 0005:00000d74 0000000cH .pdata$_ZNSt3__117__libcpp_allocateB6v15007Eyy DATA
 0005:00000d80 0000000cH .pdata$_ZNSt3__121__libcpp_operator_newB6v15007IJySt11align_val_tEEEPvDpT_ DATA
 0005:00000d8c 0000000cH .pdata$_ZNSt3__121__libcpp_operator_newB6v15007IJyEEEPvDpT_ DATA
 0005:00000d98 0000000cH .pdata$_ZNSt3__117__compressed_pairIP9ComponentRNS_9allocatorIS1_EEE6secondB6v15007Ev DATA
 0005:00000da4 0000000cH .pdata$_ZNSt3__122__compressed_pair_elemIRNS_9allocatorI9ComponentEELi1ELb0EE5__getB6v15007Ev DATA
 0005:00000db0 0000000cH .pdata$_ZNSt3__117__compressed_pairIP9ComponentRNS_9allocatorIS1_EEE5firstB6v15007Ev DATA
 0005:00000dbc 0000000cH .pdata$_ZNSt3__142__uninitialized_allocator_move_if_noexceptB6v15007INS_9allocatorI9ComponentEENS_16reverse_iteratorIPS2_EES6_S6_EET2_RT_T0_T1_S7_ DATA
 0005:00000dc8 0000000cH .pdata$_ZNSt3__116reverse_iteratorIP9ComponentEC1B6v15007ES2_ DATA
 0005:00000dd4 0000000cH .pdata$_ZNKSt3__116reverse_iteratorIP9ComponentE4baseB6v15007Ev DATA
 0005:00000de0 0000000cH .pdata$_ZNSt3__14swapB6v15007IP9ComponentEENS_9enable_ifIXaasr21is_move_constructibleIT_EE5valuesr18is_move_assignableIS4_EE5valueEvE4typeERS4_S7_ DATA
 0005:00000dec 0000000cH .pdata$_ZNKSt3__16vectorI9ComponentNS_9allocatorIS1_EEE14__annotate_newB6v15007Ey DATA
 0005:00000df8 0000000cH .pdata$_ZNSt3__1neB6v15007IP9ComponentS2_EEbRKNS_16reverse_iteratorIT_EERKNS3_IT0_EE DATA
 0005:00000e04 0000000cH .pdata$_ZNSt3__116allocator_traitsINS_9allocatorI9ComponentEEE9constructB6v15007IS2_JS2_EvEEvRS3_PT_DpOT0_ DATA
 0005:00000e10 0000000cH .pdata$_ZNSt3__112__to_addressB6v15007INS_16reverse_iteratorIP9ComponentEEvEENS_5decayIDTclsr19__to_address_helperIT_EE6__callcl7declvalIRKS6_EEEEE4typeES8_ DATA
 0005:00000e1c 0000000cH .pdata$_ZNKSt3__116reverse_iteratorIP9ComponentEdeB6v15007Ev DATA
 0005:00000e28 0000000cH .pdata$_ZNSt3__116reverse_iteratorIP9ComponentEppB6v15007Ev DATA
 0005:00000e34 0000000cH .pdata$_ZNSt3__129_AllocatorDestroyRangeReverseINS_9allocatorI9ComponentEENS_16reverse_iteratorIPS2_EEEC1B6v15007ERS3_RS6_S9_ DATA
 0005:00000e40 0000000cH .pdata$_ZNKSt3__129_AllocatorDestroyRangeReverseINS_9allocatorI9ComponentEENS_16reverse_iteratorIPS2_EEEclB6v15007Ev DATA
 0005:00000e4c 0000000cH .pdata$_ZNSt3__19allocatorI9ComponentE9constructB6v15007IS1_JS1_EEEvPT_DpOT0_ DATA
 0005:00000e58 0000000cH .pdata$_ZN9ComponentC1EOS_ DATA
 0005:00000e64 0000000cH .pdata$_ZN9ComponentC2EOS_ DATA
 0005:00000e70 0000000cH .pdata$_ZNSt3__112basic_stringIcNS_11char_traitsIcEENS_9allocatorIcEEEC1B6v15007EOS5_ DATA
 0005:00000e7c 0000000cH .pdata$_ZNSt3__112basic_stringIcNS_11char_traitsIcEENS_9allocatorIcEEEC2B6v15007EOS5_ DATA
 0005:00000e88 0000000cH .pdata$_ZNSt3__112basic_stringIcNS_11char_traitsIcEENS_9allocatorIcEEE14__default_initB6v15007Ev DATA
 0005:00000e94 0000000cH .pdata$_ZNSt3__115__debug_db_swapB6v15007INS_12basic_stringIcNS_11char_traitsIcEENS_9allocatorIcEEEEEEvPT_S8_ DATA
 0005:00000ea0 0000000cH .pdata$_ZNSt3__112basic_stringIcNS_11char_traitsIcEENS_9allocatorIcEEE6__zeroB6v15007Ev DATA
 0005:00000eac 0000000cH .pdata$_ZNSt3__119__to_address_helperINS_16reverse_iteratorIP9ComponentEEvE6__callB6v15007ERKS4_ DATA
 0005:00000eb8 0000000cH .pdata$_ZNKSt3__116reverse_iteratorIP9ComponentEptB6v15007Ev DATA
 0005:00000ec4 0000000cH .pdata$_ZNSt3__129_AllocatorDestroyRangeReverseINS_9allocatorI9ComponentEENS_16reverse_iteratorIPS2_EEEC2B6v15007ERS3_RS6_S9_ DATA
 0005:00000ed0 0000000cH .pdata$_ZNSt3__119__allocator_destroyB6v15007INS_9allocatorI9ComponentEENS_16reverse_iteratorINS4_IPS2_EEEES7_EEvRT_T0_T1_ DATA
 0005:00000edc 0000000cH .pdata$_ZNSt3__116reverse_iteratorINS0_IP9ComponentEEEC1B6v15007ES3_ DATA
 0005:00000ee8 0000000cH .pdata$_ZNSt3__1neB6v15007INS_16reverse_iteratorIP9ComponentEES4_EEbRKNS1_IT_EERKNS1_IT0_EE DATA
 0005:00000ef4 0000000cH .pdata$_ZNSt3__112__to_addressB6v15007INS_16reverse_iteratorINS1_IP9ComponentEEEEvEENS_5decayIDTclsr19__to_address_helperIT_EE6__callcl7declvalIRKS7_EEEEE4typeES9_ DATA
 0005:00000f00 0000000cH .pdata$_ZNSt3__116reverse_iteratorINS0_IP9ComponentEEEppB6v15007Ev DATA
 0005:00000f0c 0000000cH .pdata$_ZNKSt3__116reverse_iteratorINS0_IP9ComponentEEE4baseB6v15007Ev DATA
 0005:00000f18 0000000cH .pdata$_ZNSt3__119__to_address_helperINS_16reverse_iteratorINS1_IP9ComponentEEEEvE6__callB6v15007ERKS5_ DATA
 0005:00000f24 0000000cH .pdata$_ZNKSt3__116reverse_iteratorINS0_IP9ComponentEEEptB6v15007Ev DATA
 0005:00000f30 0000000cH .pdata$_ZNKSt3__116reverse_iteratorINS0_IP9ComponentEEEdeB6v15007Ev DATA
 0005:00000f3c 0000000cH .pdata$_ZNSt3__116reverse_iteratorIP9ComponentEmmB6v15007Ev DATA
 0005:00000f48 0000000cH .pdata$_ZNSt3__116reverse_iteratorINS0_IP9ComponentEEEC2B6v15007ES3_ DATA
 0005:00000f54 0000000cH .pdata$_ZNSt3__116reverse_iteratorIP9ComponentEC2B6v15007ES2_ DATA
 0005:00000f60 0000000cH .pdata$_ZNSt3__114__split_bufferI9ComponentRNS_9allocatorIS1_EEED2Ev DATA
 0005:00000f6c 0000000cH .pdata$_ZNSt3__114__split_bufferI9ComponentRNS_9allocatorIS1_EEE5clearB6v15007Ev DATA
 0005:00000f78 0000000cH .pdata$_ZNKSt3__114__split_bufferI9ComponentRNS_9allocatorIS1_EEE8capacityB6v15007Ev DATA
 0005:00000f84 0000000cH .pdata$_ZNSt3__114__split_bufferI9ComponentRNS_9allocatorIS1_EEE17__destruct_at_endB6v15007EPS1_ DATA
 0005:00000f90 0000000cH .pdata$_ZNSt3__114__split_bufferI9ComponentRNS_9allocatorIS1_EEE17__destruct_at_endB6v15007EPS1_NS_17integral_constantIbLb0EEE DATA
 0005:00000f9c 0000000cH .pdata$_ZNKSt3__114__split_bufferI9ComponentRNS_9allocatorIS1_EEE9__end_capB6v15007Ev DATA
 0005:00000fa8 0000000cH .pdata$_ZNKSt3__117__compressed_pairIP9ComponentRNS_9allocatorIS1_EEE5firstB6v15007Ev DATA
 0005:00000fb4 0000000cH .pdata$_ZNSt3__111__wrap_iterIP9ComponentEC1B6v15007EPKvS2_ DATA
 0005:00000fc0 0000000cH .pdata$_ZNSt3__111__wrap_iterIP9ComponentEC2B6v15007EPKvS2_ DATA
 0005:00000fcc 0000003cH .pdata                  DATA
 0005:00001008 0000000cH .pdata$_ZNKSt3__112basic_stringIcNS_11char_traitsIcEENS_9allocatorIcEEE5c_strB6v15007Ev DATA
 0005:00001014 0000000cH .pdata$_ZNSt3__16vectorI9ComponentNS_9allocatorIS1_EEEixB6v15007Ey DATA
 0005:00001020 0000000cH .pdata$_ZN6System11AnsiStringTILt0EEC1ERKNS_13UnicodeStringE DATA
 0005:0000102c 0000000cH .pdata$_ZNK6System11AnsiStringTILt0EE5c_strEv DATA
 0005:00001038 0000000cH .pdata$_ZN6System11AnsiStringTILt0EED1Ev DATA
 0005:00001044 0000000cH .pdata$_ZN11TDetailFormD0Ev DATA
 0005:00001050 0000000cH .pdata$_ZN6System11AnsiStringTILt0EEC2ERKNS_13UnicodeStringE DATA
 0005:0000105c 0000000cH .pdata$_ZN6System11AnsiStringTILt0EED2Ev DATA
 0005:00001068 0000000cH .pdata$_ZN6System11AnsiStringTILt0EEC1Ev DATA
 0005:00001074 0000000cH .pdata$_ZN6System11AnsiStringTILt0EEC1ERKS1_ DATA
 0005:00001080 0000000cH .pdata$_ZN6System11AnsiStringTILt0EEC2Ev DATA
 0005:0000108c 0000000cH .pdata$_ZN6System14AnsiStringBaseC2Ev DATA
 0005:00001098 0000000cH .pdata$_ZN6System11AnsiStringTILt0EEC2ERKS1_ DATA
 0005:000010a4 00000084H .pdata                  DATA
 0005:00001128 0000000cH .pdata$_ZNSt3__16vectorI8ComputerNS_9allocatorIS1_EEEC1B6v15007Ev DATA
 0005:00001134 0000000cH .pdata$_ZNSt3__16vectorI8ComputerNS_9allocatorIS1_EEED1B6v15007Ev DATA
 0005:00001140 0000000cH .pdata$_ZNKSt3__16vectorI8ComputerNS_9allocatorIS1_EEE4sizeB6v15007Ev DATA
 0005:0000114c 0000000cH .pdata$_ZNSt3__16vectorI8ComputerNS_9allocatorIS1_EEEixB6v15007Ey DATA
 0005:00001158 0000000cH .pdata$_ZNSt3__114basic_ifstreamIcNS_11char_traitsIcEEEC1EPKcj DATA
 0005:00001164 0000000cH .pdata$_ZNKSt3__19basic_iosIcNS_11char_traitsIcEEEcvbB6v15007Ev DATA
 0005:00001170 0000000cH .pdata$_ZNSt3__16vectorI8ComputerNS_9allocatorIS1_EEE9push_backB6v15007ERKS1_ DATA
 0005:0000117c 0000000cH .pdata$_ZN8ComputerD1Ev DATA
 0005:00001188 0000000cH .pdata$_ZNSt3__114basic_ifstreamIcNS_11char_traitsIcEEE5closeEv DATA
 0005:00001194 0000000cH .pdata$_ZNSt3__1plB6v15007IcNS_11char_traitsIcEENS_9allocatorIcEEEENS_12basic_stringIT_T0_T1_EEPKS6_OS9_ DATA
 0005:000011a0 0000000cH .pdata$_ZNSt3__114basic_ofstreamIcNS_11char_traitsIcEEEC1EPKcj DATA
 0005:000011ac 0000000cH .pdata$_ZNSt3__16vectorI8ComputerNS_9allocatorIS1_EEE5beginB6v15007Ev DATA
 0005:000011b8 0000000cH .pdata$_ZNSt3__16vectorI8ComputerNS_9allocatorIS1_EEE3endB6v15007Ev DATA
 0005:000011c4 0000000cH .pdata$_ZNSt3__1neB6v15007IP8ComputerEEbRKNS_11__wrap_iterIT_EES7_ DATA
 0005:000011d0 0000000cH .pdata$_ZNKSt3__111__wrap_iterIP8ComputerEdeB6v15007Ev DATA
 0005:000011dc 0000000cH .pdata$_ZNSt3__111__wrap_iterIP8ComputerEppB6v15007Ev DATA
 0005:000011e8 0000000cH .pdata$_ZNSt3__114basic_ofstreamIcNS_11char_traitsIcEEE5closeEv DATA
 0005:000011f4 0000000cH .pdata$_ZNSt3__114basic_ofstreamIcNS_11char_traitsIcEEED1Ev DATA
 0005:00001200 0000000cH .pdata$_ZNSt3__114basic_ifstreamIcNS_11char_traitsIcEEED1Ev DATA
 0005:0000120c 0000000cH .pdata$_ZN6System3SetINS_7Uitypes10TMsgDlgBtnELS2_0ELS2_11EEC1Ev DATA
 0005:00001218 0000000cH .pdata$_ZN6System3SetINS_7Uitypes10TMsgDlgBtnELS2_0ELS2_11EElsES2_ DATA
 0005:00001224 0000000cH .pdata$_ZNSt3__16vectorI8ComputerNS_9allocatorIS1_EEE5eraseB6v15007ENS_11__wrap_iterIPKS1_EE DATA
 0005:00001230 0000000cH .pdata$_ZNKSt3__111__wrap_iterIP8ComputerEplB6v15007Ex DATA
 0005:0000123c 0000000cH .pdata$_ZNSt3__111__wrap_iterIPK8ComputerEC1B6v15007IPS1_EERKNS0_IT_EEPNS_9enable_ifIXsr14is_convertibleIS7_S3_EE5valueEvE4typeE DATA
 0005:00001248 0000000cH .pdata$_ZN9THomeFormD0Ev DATA
 0005:00001254 0000000cH .pdata$_ZN8ComputerD2Ev DATA
 0005:00001260 0000000cH .pdata$_ZNSt3__1eqB6v15007IP8ComputerEEbRKNS_11__wrap_iterIT_EES7_ DATA
 0005:0000126c 0000000cH .pdata$_ZNKSt3__111__wrap_iterIP8ComputerE4baseB6v15007Ev DATA
 0005:00001278 0000000cH .pdata$_ZNSt3__114basic_ofstreamIcNS_11char_traitsIcEEED2Ev DATA
 0005:00001284 0000000cH .pdata$_ZTv0_n24_NSt3__114basic_ofstreamIcNS_11char_traitsIcEEED1Ev DATA
 0005:00001290 0000000cH .pdata$_ZNSt3__114basic_ofstreamIcNS_11char_traitsIcEEED0Ev DATA
 0005:0000129c 0000000cH .pdata$_ZTv0_n24_NSt3__114basic_ofstreamIcNS_11char_traitsIcEEED0Ev DATA
 0005:000012a8 0000000cH .pdata$_ZNSt3__113basic_filebufIcNS_11char_traitsIcEEED1Ev DATA
 0005:000012b4 0000000cH .pdata$_ZNSt3__113basic_filebufIcNS_11char_traitsIcEEED2Ev DATA
 0005:000012c0 0000000cH .pdata$_ZNSt3__113basic_filebufIcNS_11char_traitsIcEEE5closeEv DATA
 0005:000012cc 0000000cH .pdata$_ZNSt3__113basic_filebufIcNS_11char_traitsIcEEED0Ev DATA
 0005:000012d8 0000000cH .pdata$_ZNSt3__113basic_filebufIcNS_11char_traitsIcEEE5imbueERKNS_6localeE DATA
 0005:000012e4 0000000cH .pdata$_ZNSt3__113basic_filebufIcNS_11char_traitsIcEEE6setbufEPcx DATA
 0005:000012f0 0000000cH .pdata$_ZNSt3__113basic_filebufIcNS_11char_traitsIcEEE7seekoffExNS_8ios_base7seekdirEj DATA
 0005:000012fc 0000000cH .pdata$_ZNSt3__113basic_filebufIcNS_11char_traitsIcEEE7seekposENS_4fposI9_MbstatetEEj DATA
 0005:00001308 0000000cH .pdata$_ZNSt3__113basic_filebufIcNS_11char_traitsIcEEE4syncEv DATA
 0005:00001314 0000000cH .pdata$_ZNSt3__113basic_filebufIcNS_11char_traitsIcEEE9underflowEv DATA
 0005:00001320 0000000cH .pdata$_ZNSt3__113basic_filebufIcNS_11char_traitsIcEEE9pbackfailEi DATA
 0005:0000132c 0000000cH .pdata$_ZNSt3__113basic_filebufIcNS_11char_traitsIcEEE8overflowEi DATA
 0005:00001338 0000000cH .pdata$_ZNSt3__110unique_ptrI6_iobufPFiPS1_EEC1B6v15007ILb1EvEES2_NS_16__dependent_typeINS_27__unique_ptr_deleter_sfinaeIS4_EEXT_EE20__good_rval_ref_typeE DATA
 0005:00001344 0000000cH .pdata$_ZNSt3__110unique_ptrI6_iobufPFiPS1_EE7releaseB6v15007Ev DATA
 0005:00001350 0000000cH .pdata$_ZNSt3__110unique_ptrI6_iobufPFiPS1_EED1B6v15007Ev DATA
 0005:0000135c 0000000cH .pdata$_ZNSt3__110unique_ptrI6_iobufPFiPS1_EEC2B6v15007ILb1EvEES2_NS_16__dependent_typeINS_27__unique_ptr_deleter_sfinaeIS4_EEXT_EE20__good_rval_ref_typeE DATA
 0005:00001368 0000000cH .pdata$_ZNSt3__117__compressed_pairIP6_iobufPFiS2_EEC1B6v15007IRS2_S4_EEOT_OT0_ DATA
 0005:00001374 0000000cH .pdata$_ZNSt3__117__compressed_pairIP6_iobufPFiS2_EEC2B6v15007IRS2_S4_EEOT_OT0_ DATA
 0005:00001380 0000000cH .pdata$_ZNSt3__122__compressed_pair_elemIP6_iobufLi0ELb0EEC2B6v15007IRS2_vEEOT_ DATA
 0005:0000138c 0000000cH .pdata$_ZNSt3__122__compressed_pair_elemIPFiP6_iobufELi1ELb0EEC2B6v15007IS4_vEEOT_ DATA
 0005:00001398 0000000cH .pdata$_ZNSt3__117__compressed_pairIP6_iobufPFiS2_EE5firstB6v15007Ev DATA
 0005:000013a4 0000000cH .pdata$_ZNSt3__122__compressed_pair_elemIP6_iobufLi0ELb0EE5__getB6v15007Ev DATA
 0005:000013b0 0000000cH .pdata$_ZNSt3__110unique_ptrI6_iobufPFiPS1_EED2B6v15007Ev DATA
 0005:000013bc 0000000cH .pdata$_ZNSt3__110unique_ptrI6_iobufPFiPS1_EE5resetB6v15007ES2_ DATA
 0005:000013c8 0000000cH .pdata$_ZNSt3__117__compressed_pairIP6_iobufPFiS2_EE6secondB6v15007Ev DATA
 0005:000013d4 0000000cH .pdata$_ZNSt3__122__compressed_pair_elemIPFiP6_iobufELi1ELb0EE5__getB6v15007Ev DATA
 0005:000013e0 0000000cH .pdata$_ZNSt3__19use_facetB6v15007INS_7codecvtIcc9_MbstatetEEEERKT_RKNS_6localeE DATA
 0005:000013ec 0000000cH .pdata$_ZNKSt3__17codecvtIcc9_MbstatetE13always_noconvB6v15007Ev DATA
 0005:000013f8 0000000cH .pdata$_ZNSt3__115basic_streambufIcNS_11char_traitsIcEEE4setgB6v15007EPcS4_S4_ DATA
 0005:00001404 0000000cH .pdata$_ZNSt3__115basic_streambufIcNS_11char_traitsIcEEE4setpB6v15007EPcS4_ DATA
 0005:00001410 0000000cH .pdata$_ZNSt3__13maxB6v15007IxEERKT_S3_S3_ DATA
 0005:0000141c 0000000cH .pdata$_ZNSt3__13maxB6v15007IxNS_6__lessIxxEEEERKT_S5_S5_T0_ DATA
 0005:00001428 0000000cH .pdata$_ZNKSt3__16__lessIxxEclB6v15007ERKxS3_ DATA
 0005:00001434 0000000cH .pdata$_ZNSt3__116__throw_bad_castB6v15007Ev DATA
 0005:00001440 0000000cH .pdata$_ZNKSt3__17codecvtIcc9_MbstatetE8encodingB6v15007Ev DATA
 0005:0000144c 0000000cH .pdata$_ZNSt3__14fposI9_MbstatetEC1B6v15007Ex DATA
 0005:00001458 0000000cH .pdata$_ZNSt3__14fposI9_MbstatetE5stateB6v15007ES1_ DATA
 0005:00001464 0000000cH .pdata$_ZNSt3__14fposI9_MbstatetEC2B6v15007Ex DATA
 0005:00001470 0000000cH .pdata$_ZNKSt3__14fposI9_MbstatetEcvxB6v15007Ev DATA
 0005:0000147c 0000000cH .pdata$_ZNKSt3__14fposI9_MbstatetE5stateB6v15007Ev DATA
 0005:00001488 0000000cH .pdata$_ZNKSt3__115basic_streambufIcNS_11char_traitsIcEEE4pptrB6v15007Ev DATA
 0005:00001494 0000000cH .pdata$_ZNKSt3__115basic_streambufIcNS_11char_traitsIcEEE5pbaseB6v15007Ev DATA
 0005:000014a0 0000000cH .pdata$_ZNKSt3__17codecvtIcc9_MbstatetE7unshiftB6v15007ERS1_PcS4_RS4_ DATA
 0005:000014ac 0000000cH .pdata$_ZNKSt3__115basic_streambufIcNS_11char_traitsIcEEE5egptrB6v15007Ev DATA
 0005:000014b8 0000000cH .pdata$_ZNKSt3__115basic_streambufIcNS_11char_traitsIcEEE4gptrB6v15007Ev DATA
 0005:000014c4 0000000cH .pdata$_ZNKSt3__17codecvtIcc9_MbstatetE6lengthB6v15007ERS1_PKcS5_y DATA
 0005:000014d0 0000000cH .pdata$_ZNKSt3__115basic_streambufIcNS_11char_traitsIcEEE5ebackB6v15007Ev DATA
 0005:000014dc 0000000cH .pdata$_ZNSt3__113basic_filebufIcNS_11char_traitsIcEEE11__read_modeEv DATA
 0005:000014e8 0000000cH .pdata$_ZNKSt3__17codecvtIcc9_MbstatetE2inB6v15007ERS1_PKcS5_RS5_PcS7_RS7_ DATA
 0005:000014f4 0000000cH .pdata$_ZNSt3__115basic_streambufIcNS_11char_traitsIcEEE5gbumpB6v15007Ei DATA
 0005:00001500 0000000cH .pdata$_ZNSt3__111char_traitsIcE7not_eofEi DATA
 0005:0000150c 0000000cH .pdata$_ZNSt3__113basic_filebufIcNS_11char_traitsIcEEE12__write_modeEv DATA
 0005:00001518 0000000cH .pdata$_ZNKSt3__115basic_streambufIcNS_11char_traitsIcEEE5epptrB6v15007Ev DATA
 0005:00001524 0000000cH .pdata$_ZNSt3__115basic_streambufIcNS_11char_traitsIcEEE5pbumpB6v15007Ei DATA
 0005:00001530 0000000cH .pdata$_ZNKSt3__17codecvtIcc9_MbstatetE3outB6v15007ERS1_PKcS5_RS5_PcS7_RS7_ DATA
 0005:0000153c 0000000cH .pdata$_ZNSt3__115basic_streambufIcNS_11char_traitsIcEEE7__pbumpB6v15007Ex DATA
 0005:00001548 0000000cH .pdata$_ZNSt3__114basic_ifstreamIcNS_11char_traitsIcEEED2Ev DATA
 0005:00001554 0000000cH .pdata$_ZTv0_n24_NSt3__114basic_ifstreamIcNS_11char_traitsIcEEED1Ev DATA
 0005:00001560 0000000cH .pdata$_ZNSt3__114basic_ifstreamIcNS_11char_traitsIcEEED0Ev DATA
 0005:0000156c 0000000cH .pdata$_ZTv0_n24_NSt3__114basic_ifstreamIcNS_11char_traitsIcEEED0Ev DATA
 0005:00001578 0000000cH .pdata$_ZNSt3__111__wrap_iterIP8ComputerEpLB6v15007Ex DATA
 0005:00001584 0000000cH .pdata$_ZNSt3__111__wrap_iterIPK8ComputerEC2B6v15007IPS1_EERKNS0_IT_EEPNS_9enable_ifIXsr14is_convertibleIS7_S3_EE5valueEvE4typeE DATA
 0005:00001590 0000000cH .pdata$_ZNSt3__16vectorI8ComputerNS_9allocatorIS1_EEEC2B6v15007Ev DATA
 0005:0000159c 0000000cH .pdata$_ZNSt3__117__compressed_pairIP8ComputerNS_9allocatorIS1_EEEC1B6v15007IDnNS_18__default_init_tagEEEOT_OT0_ DATA
 0005:000015a8 0000000cH .pdata$_ZNSt3__119__debug_db_insert_cB6v15007INS_6vectorI8ComputerNS_9allocatorIS2_EEEEEEvPT_ DATA
 0005:000015b4 0000000cH .pdata$_ZNSt3__117__compressed_pairIP8ComputerNS_9allocatorIS1_EEEC2B6v15007IDnNS_18__default_init_tagEEEOT_OT0_ DATA
 0005:000015c0 0000000cH .pdata$_ZNSt3__122__compressed_pair_elemIP8ComputerLi0ELb0EEC2B6v15007IDnvEEOT_ DATA
 0005:000015cc 0000000cH .pdata$_ZNSt3__122__compressed_pair_elemINS_9allocatorI8ComputerEELi1ELb1EEC2B6v15007ENS_18__default_init_tagE DATA
 0005:000015d8 0000000cH .pdata$_ZNSt3__19allocatorI8ComputerEC2B6v15007Ev DATA
 0005:000015e4 0000000cH .pdata$_ZNSt3__116__non_trivial_ifILb1ENS_9allocatorI8ComputerEEEC2B6v15007Ev DATA
 0005:000015f0 0000000cH .pdata$_ZNSt3__16vectorI8ComputerNS_9allocatorIS1_EEED2B6v15007Ev DATA
 0005:000015fc 0000000cH .pdata$_ZNSt3__16vectorI8ComputerNS_9allocatorIS1_EEE16__destroy_vectorC1ERS4_ DATA
 0005:00001608 0000000cH .pdata$_ZNSt3__16vectorI8ComputerNS_9allocatorIS1_EEE16__destroy_vectorclB6v15007Ev DATA
 0005:00001614 0000000cH .pdata$_ZNSt3__16vectorI8ComputerNS_9allocatorIS1_EEE16__destroy_vectorC2ERS4_ DATA
 0005:00001620 0000000cH .pdata$_ZNKSt3__16vectorI8ComputerNS_9allocatorIS1_EEE17__annotate_deleteB6v15007Ev DATA
 0005:0000162c 0000000cH .pdata$_ZNSt3__118__debug_db_erase_cB6v15007INS_6vectorI8ComputerNS_9allocatorIS2_EEEEEEvPT_ DATA
 0005:00001638 0000000cH .pdata$_ZNSt3__16vectorI8ComputerNS_9allocatorIS1_EEE7__clearB6v15007Ev DATA
 0005:00001644 0000000cH .pdata$_ZNSt3__116allocator_traitsINS_9allocatorI8ComputerEEE10deallocateB6v15007ERS3_PS2_y DATA
 0005:00001650 0000000cH .pdata$_ZNSt3__16vectorI8ComputerNS_9allocatorIS1_EEE7__allocB6v15007Ev DATA
 0005:0000165c 0000000cH .pdata$_ZNKSt3__16vectorI8ComputerNS_9allocatorIS1_EEE8capacityB6v15007Ev DATA
 0005:00001668 0000000cH .pdata$_ZNKSt3__16vectorI8ComputerNS_9allocatorIS1_EEE31__annotate_contiguous_containerB6v15007EPKvS6_S6_S6_ DATA
 0005:00001674 0000000cH .pdata$_ZNKSt3__16vectorI8ComputerNS_9allocatorIS1_EEE4dataB6v15007Ev DATA
 0005:00001680 0000000cH .pdata$_ZNSt3__112__to_addressB6v15007I8ComputerEEPT_S3_ DATA
 0005:0000168c 0000000cH .pdata$_ZNSt3__16vectorI8ComputerNS_9allocatorIS1_EEE22__base_destruct_at_endB6v15007EPS1_ DATA
 0005:00001698 0000000cH .pdata$_ZNSt3__116allocator_traitsINS_9allocatorI8ComputerEEE7destroyB6v15007IS2_vEEvRS3_PT_ DATA
 0005:000016a4 0000000cH .pdata$_ZNSt3__19allocatorI8ComputerE7destroyB6v15007EPS1_ DATA
 0005:000016b0 0000000cH .pdata$_ZNSt3__19allocatorI8ComputerE10deallocateB6v15007EPS1_y DATA
 0005:000016bc 0000000cH .pdata$_ZNSt3__117__compressed_pairIP8ComputerNS_9allocatorIS1_EEE6secondB6v15007Ev DATA
 0005:000016c8 0000000cH .pdata$_ZNSt3__122__compressed_pair_elemINS_9allocatorI8ComputerEELi1ELb1EE5__getB6v15007Ev DATA
 0005:000016d4 0000000cH .pdata$_ZNKSt3__16vectorI8ComputerNS_9allocatorIS1_EEE9__end_capB6v15007Ev DATA
 0005:000016e0 0000000cH .pdata$_ZNKSt3__117__compressed_pairIP8ComputerNS_9allocatorIS1_EEE5firstB6v15007Ev DATA
 0005:000016ec 0000000cH .pdata$_ZNKSt3__122__compressed_pair_elemIP8ComputerLi0ELb0EE5__getB6v15007Ev DATA
 0005:000016f8 0000000cH .pdata$_ZNSt3__19basic_iosIcNS_11char_traitsIcEEEC2B6v15007Ev DATA
 0005:00001704 0000000cH .pdata$_ZNSt3__113basic_istreamIcNS_11char_traitsIcEEEC2B6v15007EPNS_15basic_streambufIcS2_EE DATA
 0005:00001710 0000000cH .pdata$_ZNSt3__113basic_filebufIcNS_11char_traitsIcEEEC1Ev DATA
 0005:0000171c 0000000cH .pdata$_ZNSt3__113basic_filebufIcNS_11char_traitsIcEEE4openEPKcj DATA
 0005:00001728 0000000cH .pdata$_ZNSt3__18ios_baseC2B6v15007Ev DATA
 0005:00001734 0000000cH .pdata$_ZNSt3__19basic_iosIcNS_11char_traitsIcEEE4initB6v15007EPNS_15basic_streambufIcS2_EE DATA
 0005:00001740 0000000cH .pdata$_ZNSt3__113basic_filebufIcNS_11char_traitsIcEEEC2Ev DATA
 0005:0000174c 0000000cH .pdata$_ZNSt3__19has_facetB6v15007INS_7codecvtIcc9_MbstatetEEEEbRKNS_6localeE DATA
 0005:00001758 0000000cH .pdata$_ZNKSt3__115basic_streambufIcNS_11char_traitsIcEEE6getlocB6v15007Ev DATA
 0005:00001764 0000000cH .pdata$_ZNSt3__113basic_filebufIcNS_11char_traitsIcEEE15__make_mdstringEj DATA
 0005:00001770 0000000cH .pdata$_ZNKSt3__19basic_iosIcNS_11char_traitsIcEEE4failB6v15007Ev DATA
 0005:0000177c 0000000cH .pdata$_ZNKSt3__18ios_base4failB6v15007Ev DATA
 0005:00001788 0000000cH .pdata$_ZNSt3__16vectorI8ComputerNS_9allocatorIS1_EEE9__end_capB6v15007Ev DATA
 0005:00001794 0000000cH .pdata$_ZNSt3__16vectorI8ComputerNS_9allocatorIS1_EEE22__construct_one_at_endB6v15007IJRKS1_EEEvDpOT_ DATA
 0005:000017a0 0000000cH .pdata$_ZNSt3__16vectorI8ComputerNS_9allocatorIS1_EEE21__push_back_slow_pathIRKS1_EEvOT_ DATA
 0005:000017ac 0000000cH .pdata$_ZNSt3__117__compressed_pairIP8ComputerNS_9allocatorIS1_EEE5firstB6v15007Ev DATA
 0005:000017b8 0000000cH .pdata$_ZNSt3__122__compressed_pair_elemIP8ComputerLi0ELb0EE5__getB6v15007Ev DATA
 0005:000017c4 0000000cH .pdata$_ZNSt3__16vectorI8ComputerNS_9allocatorIS1_EEE21_ConstructTransactionC1ERS4_y DATA
 0005:000017d0 0000000cH .pdata$_ZNSt3__116allocator_traitsINS_9allocatorI8ComputerEEE9constructB6v15007IS2_JRKS2_EvEEvRS3_PT_DpOT0_ DATA
 0005:000017dc 0000000cH .pdata$_ZNSt3__16vectorI8ComputerNS_9allocatorIS1_EEE21_ConstructTransactionD1Ev DATA
 0005:000017e8 0000000cH .pdata$_ZNSt3__16vectorI8ComputerNS_9allocatorIS1_EEE21_ConstructTransactionC2ERS4_y DATA
 0005:000017f4 0000000cH .pdata$_ZNSt3__19allocatorI8ComputerE9constructB6v15007IS1_JRKS1_EEEvPT_DpOT0_ DATA
 0005:00001800 0000000cH .pdata$_ZN8ComputerC1ERKS_ DATA
 0005:0000180c 0000000cH .pdata$_ZN8ComputerC2ERKS_ DATA
 0005:00001818 0000000cH .pdata$_ZNSt3__16vectorI9ComponentNS_9allocatorIS1_EEEC1ERKS4_ DATA
 0005:00001824 0000000cH .pdata$_ZNSt3__16vectorI9ComponentNS_9allocatorIS1_EEEC2ERKS4_ DATA
 0005:00001830 0000000cH .pdata$_ZNSt3__116allocator_traitsINS_9allocatorI9ComponentEEE37select_on_container_copy_constructionB6v15007IS3_vvEES3_RKS3_ DATA
 0005:0000183c 0000000cH .pdata$_ZNSt3__117__compressed_pairIP9ComponentNS_9allocatorIS1_EEEC1B6v15007IDnS4_EEOT_OT0_ DATA
 0005:00001848 0000000cH .pdata$_ZNSt3__118__make_transactionB6v15007INS_6vectorI9ComponentNS_9allocatorIS2_EEE16__destroy_vectorEEENS_13__transactionIT_EES8_ DATA
 0005:00001854 0000000cH .pdata$_ZNSt3__16vectorI9ComponentNS_9allocatorIS1_EEE11__vallocateB6v15007Ey DATA
 0005:00001860 0000000cH .pdata$_ZNSt3__16vectorI9ComponentNS_9allocatorIS1_EEE18__construct_at_endIPS1_EENS_9enable_ifIXsr27__is_cpp17_forward_iteratorIT_EE5valueEvE4typeES8_S8_y DATA
 0005:0000186c 0000000cH .pdata$_ZNSt3__113__transactionINS_6vectorI9ComponentNS_9allocatorIS2_EEE16__destroy_vectorEE10__completeB6v15007Ev DATA
 0005:00001878 0000000cH .pdata$_ZNSt3__113__transactionINS_6vectorI9ComponentNS_9allocatorIS2_EEE16__destroy_vectorEED1B6v15007Ev DATA
 0005:00001884 0000000cH .pdata$_ZNSt3__117__compressed_pairIP9ComponentNS_9allocatorIS1_EEEC2B6v15007IDnS4_EEOT_OT0_ DATA
 0005:00001890 0000000cH .pdata$_ZNSt3__122__compressed_pair_elemINS_9allocatorI9ComponentEELi1ELb1EEC2B6v15007IS3_vEEOT_ DATA
 0005:0000189c 0000000cH .pdata$_ZNSt3__113__transactionINS_6vectorI9ComponentNS_9allocatorIS2_EEE16__destroy_vectorEEC1B6v15007ES6_ DATA
 0005:000018a8 0000000cH .pdata$_ZNSt3__113__transactionINS_6vectorI9ComponentNS_9allocatorIS2_EEE16__destroy_vectorEEC2B6v15007ES6_ DATA
 0005:000018b4 0000000cH .pdata$_ZNSt3__130__uninitialized_allocator_copyB6v15007INS_9allocatorI9ComponentEEPS2_S4_S4_EET2_RT_T0_T1_S5_ DATA
 0005:000018c0 0000000cH .pdata$_ZNSt3__116allocator_traitsINS_9allocatorI9ComponentEEE9constructB6v15007IS2_JRS2_EvEEvRS3_PT_DpOT0_ DATA
 0005:000018cc 0000000cH .pdata$_ZNSt3__129_AllocatorDestroyRangeReverseINS_9allocatorI9ComponentEEPS2_EC1B6v15007ERS3_RS4_S7_ DATA
 0005:000018d8 0000000cH .pdata$_ZNKSt3__129_AllocatorDestroyRangeReverseINS_9allocatorI9ComponentEEPS2_EclB6v15007Ev DATA
 0005:000018e4 0000000cH .pdata$_ZNSt3__19allocatorI9ComponentE9constructB6v15007IS1_JRS1_EEEvPT_DpOT0_ DATA
 0005:000018f0 0000000cH .pdata$_ZNSt3__129_AllocatorDestroyRangeReverseINS_9allocatorI9ComponentEEPS2_EC2B6v15007ERS3_RS4_S7_ DATA
 0005:000018fc 0000000cH .pdata$_ZNSt3__119__allocator_destroyB6v15007INS_9allocatorI9ComponentEENS_16reverse_iteratorIPS2_EES6_EEvRT_T0_T1_ DATA
 0005:00001908 0000000cH .pdata$_ZNSt3__113__transactionINS_6vectorI9ComponentNS_9allocatorIS2_EEE16__destroy_vectorEED2B6v15007Ev DATA
 0005:00001914 0000000cH .pdata$_ZNSt3__16vectorI8ComputerNS_9allocatorIS1_EEE21_ConstructTransactionD2Ev DATA
 0005:00001920 0000000cH .pdata$_ZNKSt3__16vectorI8ComputerNS_9allocatorIS1_EEE11__recommendB6v15007Ey DATA
 0005:0000192c 0000000cH .pdata$_ZNSt3__114__split_bufferI8ComputerRNS_9allocatorIS1_EEEC1EyyS4_ DATA
 0005:00001938 0000000cH .pdata$_ZNSt3__16vectorI8ComputerNS_9allocatorIS1_EEE26__swap_out_circular_bufferERNS_14__split_bufferIS1_RS3_EE DATA
 0005:00001944 0000000cH .pdata$_ZNSt3__114__split_bufferI8ComputerRNS_9allocatorIS1_EEED1Ev DATA
 0005:00001950 0000000cH .pdata$_ZNKSt3__16vectorI8ComputerNS_9allocatorIS1_EEE8max_sizeEv DATA
 0005:0000195c 0000000cH .pdata$_ZNKSt3__16vectorI8ComputerNS_9allocatorIS1_EEE20__throw_length_errorB6v15007Ev DATA
 0005:00001968 0000000cH .pdata$_ZNSt3__116allocator_traitsINS_9allocatorI8ComputerEEE8max_sizeB6v15007IS3_vEEyRKS3_ DATA
 0005:00001974 0000000cH .pdata$_ZNKSt3__16vectorI8ComputerNS_9allocatorIS1_EEE7__allocB6v15007Ev DATA
 0005:00001980 0000000cH .pdata$_ZNKSt3__19allocatorI8ComputerE8max_sizeB6v15007Ev DATA
 0005:0000198c 0000000cH .pdata$_ZNKSt3__117__compressed_pairIP8ComputerNS_9allocatorIS1_EEE6secondB6v15007Ev DATA
 0005:00001998 0000000cH .pdata$_ZNKSt3__122__compressed_pair_elemINS_9allocatorI8ComputerEELi1ELb1EE5__getB6v15007Ev DATA
 0005:000019a4 0000000cH .pdata$_ZNSt3__114__split_bufferI8ComputerRNS_9allocatorIS1_EEEC2EyyS4_ DATA
 0005:000019b0 0000000cH .pdata$_ZNSt3__117__compressed_pairIP8ComputerRNS_9allocatorIS1_EEEC1B6v15007IDnS5_EEOT_OT0_ DATA
 0005:000019bc 0000000cH .pdata$_ZNSt3__119__allocate_at_leastB6v15007INS_9allocatorI8ComputerEEEENS_19__allocation_resultINS_16allocator_traitsIT_E7pointerEEERS6_y DATA
 0005:000019c8 0000000cH .pdata$_ZNSt3__114__split_bufferI8ComputerRNS_9allocatorIS1_EEE7__allocB6v15007Ev DATA
 0005:000019d4 0000000cH .pdata$_ZNSt3__114__split_bufferI8ComputerRNS_9allocatorIS1_EEE9__end_capB6v15007Ev DATA
 0005:000019e0 0000000cH .pdata$_ZNSt3__117__compressed_pairIP8ComputerRNS_9allocatorIS1_EEEC2B6v15007IDnS5_EEOT_OT0_ DATA
 0005:000019ec 0000000cH .pdata$_ZNSt3__122__compressed_pair_elemIRNS_9allocatorI8ComputerEELi1ELb0EEC2B6v15007IS4_vEEOT_ DATA
 0005:000019f8 0000000cH .pdata$_ZNSt3__19allocatorI8ComputerE8allocateB6v15007Ey DATA
 0005:00001a04 0000000cH .pdata$_ZNSt3__117__compressed_pairIP8ComputerRNS_9allocatorIS1_EEE6secondB6v15007Ev DATA
 0005:00001a10 0000000cH .pdata$_ZNSt3__122__compressed_pair_elemIRNS_9allocatorI8ComputerEELi1ELb0EE5__getB6v15007Ev DATA
 0005:00001a1c 0000000cH .pdata$_ZNSt3__117__compressed_pairIP8ComputerRNS_9allocatorIS1_EEE5firstB6v15007Ev DATA
 0005:00001a28 0000000cH .pdata$_ZNSt3__142__uninitialized_allocator_move_if_noexceptB6v15007INS_9allocatorI8ComputerEENS_16reverse_iteratorIPS2_EES6_S6_EET2_RT_T0_T1_S7_ DATA
 0005:00001a34 0000000cH .pdata$_ZNSt3__116reverse_iteratorIP8ComputerEC1B6v15007ES2_ DATA
 0005:00001a40 0000000cH .pdata$_ZNKSt3__116reverse_iteratorIP8ComputerE4baseB6v15007Ev DATA
 0005:00001a4c 0000000cH .pdata$_ZNSt3__14swapB6v15007IP8ComputerEENS_9enable_ifIXaasr21is_move_constructibleIT_EE5valuesr18is_move_assignableIS4_EE5valueEvE4typeERS4_S7_ DATA
 0005:00001a58 0000000cH .pdata$_ZNKSt3__16vectorI8ComputerNS_9allocatorIS1_EEE14__annotate_newB6v15007Ey DATA
 0005:00001a64 0000000cH .pdata$_ZNSt3__125__debug_db_invalidate_allB6v15007INS_6vectorI8ComputerNS_9allocatorIS2_EEEEEEvPT_ DATA
 0005:00001a70 0000000cH .pdata$_ZNSt3__1neB6v15007IP8ComputerS2_EEbRKNS_16reverse_iteratorIT_EERKNS3_IT0_EE DATA
 0005:00001a7c 0000000cH .pdata$_ZNSt3__116allocator_traitsINS_9allocatorI8ComputerEEE9constructB6v15007IS2_JS2_EvEEvRS3_PT_DpOT0_ DATA
 0005:00001a88 0000000cH .pdata$_ZNSt3__112__to_addressB6v15007INS_16reverse_iteratorIP8ComputerEEvEENS_5decayIDTclsr19__to_address_helperIT_EE6__callcl7declvalIRKS6_EEEEE4typeES8_ DATA
 0005:00001a94 0000000cH .pdata$_ZNKSt3__116reverse_iteratorIP8ComputerEdeB6v15007Ev DATA
 0005:00001aa0 0000000cH .pdata$_ZNSt3__116reverse_iteratorIP8ComputerEppB6v15007Ev DATA
 0005:00001aac 0000000cH .pdata$_ZNSt3__129_AllocatorDestroyRangeReverseINS_9allocatorI8ComputerEENS_16reverse_iteratorIPS2_EEEC1B6v15007ERS3_RS6_S9_ DATA
 0005:00001ab8 0000000cH .pdata$_ZNKSt3__129_AllocatorDestroyRangeReverseINS_9allocatorI8ComputerEENS_16reverse_iteratorIPS2_EEEclB6v15007Ev DATA
 0005:00001ac4 0000000cH .pdata$_ZNSt3__19allocatorI8ComputerE9constructB6v15007IS1_JS1_EEEvPT_DpOT0_ DATA
 0005:00001ad0 0000000cH .pdata$_ZN8ComputerC1EOS_ DATA
 0005:00001adc 0000000cH .pdata$_ZN8ComputerC2EOS_ DATA
 0005:00001ae8 0000000cH .pdata$_ZNSt3__16vectorI9ComponentNS_9allocatorIS1_EEEC1B6v15007EOS4_ DATA
 0005:00001af4 0000000cH .pdata$_ZNSt3__16vectorI9ComponentNS_9allocatorIS1_EEEC2B6v15007EOS4_ DATA
 0005:00001b00 0000000cH .pdata$_ZNSt3__115__debug_db_swapB6v15007INS_6vectorI9ComponentNS_9allocatorIS2_EEEEEEvPT_S7_ DATA
 0005:00001b0c 0000000cH .pdata$_ZNSt3__119__to_address_helperINS_16reverse_iteratorIP8ComputerEEvE6__callB6v15007ERKS4_ DATA
 0005:00001b18 0000000cH .pdata$_ZNKSt3__116reverse_iteratorIP8ComputerEptB6v15007Ev DATA
 0005:00001b24 0000000cH .pdata$_ZNSt3__129_AllocatorDestroyRangeReverseINS_9allocatorI8ComputerEENS_16reverse_iteratorIPS2_EEEC2B6v15007ERS3_RS6_S9_ DATA
 0005:00001b30 0000000cH .pdata$_ZNSt3__119__allocator_destroyB6v15007INS_9allocatorI8ComputerEENS_16reverse_iteratorINS4_IPS2_EEEES7_EEvRT_T0_T1_ DATA
 0005:00001b3c 0000000cH .pdata$_ZNSt3__116reverse_iteratorINS0_IP8ComputerEEEC1B6v15007ES3_ DATA
 0005:00001b48 0000000cH .pdata$_ZNSt3__1neB6v15007INS_16reverse_iteratorIP8ComputerEES4_EEbRKNS1_IT_EERKNS1_IT0_EE DATA
 0005:00001b54 0000000cH .pdata$_ZNSt3__112__to_addressB6v15007INS_16reverse_iteratorINS1_IP8ComputerEEEEvEENS_5decayIDTclsr19__to_address_helperIT_EE6__callcl7declvalIRKS7_EEEEE4typeES9_ DATA
 0005:00001b60 0000000cH .pdata$_ZNSt3__116reverse_iteratorINS0_IP8ComputerEEEppB6v15007Ev DATA
 0005:00001b6c 0000000cH .pdata$_ZNKSt3__116reverse_iteratorINS0_IP8ComputerEEE4baseB6v15007Ev DATA
 0005:00001b78 0000000cH .pdata$_ZNSt3__119__to_address_helperINS_16reverse_iteratorINS1_IP8ComputerEEEEvE6__callB6v15007ERKS5_ DATA
 0005:00001b84 0000000cH .pdata$_ZNKSt3__116reverse_iteratorINS0_IP8ComputerEEEptB6v15007Ev DATA
 0005:00001b90 0000000cH .pdata$_ZNKSt3__116reverse_iteratorINS0_IP8ComputerEEEdeB6v15007Ev DATA
 0005:00001b9c 0000000cH .pdata$_ZNSt3__116reverse_iteratorIP8ComputerEmmB6v15007Ev DATA
 0005:00001ba8 0000000cH .pdata$_ZNSt3__116reverse_iteratorINS0_IP8ComputerEEEC2B6v15007ES3_ DATA
 0005:00001bb4 0000000cH .pdata$_ZNSt3__116reverse_iteratorIP8ComputerEC2B6v15007ES2_ DATA
 0005:00001bc0 0000000cH .pdata$_ZNSt3__114__split_bufferI8ComputerRNS_9allocatorIS1_EEED2Ev DATA
 0005:00001bcc 0000000cH .pdata$_ZNSt3__114__split_bufferI8ComputerRNS_9allocatorIS1_EEE5clearB6v15007Ev DATA
 0005:00001bd8 0000000cH .pdata$_ZNKSt3__114__split_bufferI8ComputerRNS_9allocatorIS1_EEE8capacityB6v15007Ev DATA
 0005:00001be4 0000000cH .pdata$_ZNSt3__114__split_bufferI8ComputerRNS_9allocatorIS1_EEE17__destruct_at_endB6v15007EPS1_ DATA
 0005:00001bf0 0000000cH .pdata$_ZNSt3__114__split_bufferI8ComputerRNS_9allocatorIS1_EEE17__destruct_at_endB6v15007EPS1_NS_17integral_constantIbLb0EEE DATA
 0005:00001bfc 0000000cH .pdata$_ZNKSt3__114__split_bufferI8ComputerRNS_9allocatorIS1_EEE9__end_capB6v15007Ev DATA
 0005:00001c08 0000000cH .pdata$_ZNKSt3__117__compressed_pairIP8ComputerRNS_9allocatorIS1_EEE5firstB6v15007Ev DATA
 0005:00001c14 0000000cH .pdata$_ZNSt3__113basic_ostreamIcNS_11char_traitsIcEEEC2B6v15007EPNS_15basic_streambufIcS2_EE DATA
 0005:00001c20 0000000cH .pdata$_ZNSt3__111__wrap_iterIP8ComputerEC1B6v15007EPKvS2_ DATA
 0005:00001c2c 0000000cH .pdata$_ZNSt3__111__wrap_iterIP8ComputerEC2B6v15007EPKvS2_ DATA
 0005:00001c38 0000000cH .pdata$_ZN6System3SetINS_7Uitypes10TMsgDlgBtnELS2_0ELS2_11EEC2Ev DATA
 0005:00001c44 0000000cH .pdata$_ZNSt3__1miB6v15007IPK8ComputerS3_EEDTmicldtfp_4baseEcldtfp0_4baseEERKNS_11__wrap_iterIT_EERKNS5_IT0_EE DATA
 0005:00001c50 0000000cH .pdata$_ZNKSt3__16vectorI8ComputerNS_9allocatorIS1_EEE6cbeginB6v15007Ev DATA
 0005:00001c5c 0000000cH .pdata$_ZNSt3__16vectorI8ComputerNS_9allocatorIS1_EEE17__destruct_at_endB6v15007EPS1_ DATA
 0005:00001c68 0000000cH .pdata$_ZNSt3__14moveB6v15007IP8ComputerS2_EET0_T_S4_S3_ DATA
 0005:00001c74 0000000cH .pdata$_ZNSt3__16vectorI8ComputerNS_9allocatorIS1_EEE27__invalidate_iterators_pastB6v15007EPS1_ DATA
 0005:00001c80 0000000cH .pdata$_ZNKSt3__111__wrap_iterIPK8ComputerE4baseB6v15007Ev DATA
 0005:00001c8c 0000000cH .pdata$_ZNKSt3__16vectorI8ComputerNS_9allocatorIS1_EEE5beginB6v15007Ev DATA
 0005:00001c98 0000000cH .pdata$_ZNSt3__111__wrap_iterIPK8ComputerEC1B6v15007EPKvS3_ DATA
 0005:00001ca4 0000000cH .pdata$_ZNSt3__111__wrap_iterIPK8ComputerEC2B6v15007EPKvS3_ DATA
 0005:00001cb0 0000000cH .pdata$_ZNKSt3__16vectorI8ComputerNS_9allocatorIS1_EEE17__annotate_shrinkB6v15007Ey DATA
 0005:00001cbc 0000000cH .pdata$_ZNSt3__16__moveB6v15007INS_17_ClassicAlgPolicyEP8ComputerS3_S3_EENS_9enable_ifIXaaaasr21is_copy_constructibleIT0_EE5valuesr21is_copy_constructibleIT1_EE5valuesr21is_copy_constructibleIT2_EE5valueENS_4pairIS5_S7_EEE4typeES5_S6_S7_ DATA
 0005:00001cc8 0000000cH .pdata$_ZNSt3__111__move_implB6v15007INS_17_ClassicAlgPolicyEP8ComputerS3_S3_EENS_4pairIT0_T2_EES5_T1_S6_ DATA
 0005:00001cd4 0000000cH .pdata$_ZNSt3__113__unwrap_iterB6v15007IP8ComputerNS_18__unwrap_iter_implIS2_Lb1EEELi0EEEDTclsrT0_8__unwrapclsr3stdE7declvalIT_EEEES6_ DATA
 0005:00001ce0 0000000cH .pdata$_ZNSt3__19make_pairB6v15007IP8ComputerS2_EENS_4pairINS_18__unwrap_ref_decayIT_E4typeENS4_IT0_E4typeEEEOS5_OS8_ DATA
 0005:00001cec 0000000cH .pdata$_ZNSt3__113__rewrap_iterB6v15007IP8ComputerS2_NS_18__unwrap_iter_implIS2_Lb1EEEEET_S5_T0_ DATA
 0005:00001cf8 0000000cH .pdata$_ZNSt3__18_IterOpsINS_17_ClassicAlgPolicyEE11__iter_moveB6v15007IRP8ComputerEENS_9enable_ifIXsr12is_referenceIDTdeclsr3stdE7declvalIRT_EEEEE5valueEDTclsr3stdE4movedeclsr3stdE7declvalIS9_EEEEE4typeEOS8_ DATA
 0005:00001d04 0000000cH .pdata$_ZN8ComputeraSEOS_ DATA
 0005:00001d10 0000000cH .pdata$_ZNSt3__16vectorI9ComponentNS_9allocatorIS1_EEEaSB6v15007EOS4_ DATA
 0005:00001d1c 0000000cH .pdata$_ZNSt3__112basic_stringIcNS_11char_traitsIcEENS_9allocatorIcEEEaSB6v15007EOS5_ DATA
 0005:00001d28 0000000cH .pdata$_ZNSt3__16vectorI9ComponentNS_9allocatorIS1_EEE13__move_assignERS4_NS_17integral_constantIbLb1EEE DATA
 0005:00001d34 0000000cH .pdata$_ZNSt3__16vectorI9ComponentNS_9allocatorIS1_EEE13__vdeallocateEv DATA
 0005:00001d40 0000000cH .pdata$_ZNSt3__16vectorI9ComponentNS_9allocatorIS1_EEE19__move_assign_allocB6v15007ERS4_ DATA
 0005:00001d4c 0000000cH .pdata$_ZNSt3__16vectorI9ComponentNS_9allocatorIS1_EEE19__move_assign_allocB6v15007ERS4_NS_17integral_constantIbLb1EEE DATA
 0005:00001d58 0000000cH .pdata$_ZNSt3__112basic_stringIcNS_11char_traitsIcEENS_9allocatorIcEEE13__move_assignB6v15007ERS5_NS_17integral_constantIbLb1EEE DATA
 0005:00001d64 0000000cH .pdata$_ZNSt3__116allocator_traitsINS_9allocatorIcEEE10deallocateB6v15007ERS2_Pcy DATA
 0005:00001d70 0000000cH .pdata$_ZNSt3__112basic_stringIcNS_11char_traitsIcEENS_9allocatorIcEEE7__allocB6v15007Ev DATA
 0005:00001d7c 0000000cH .pdata$_ZNKSt3__112basic_stringIcNS_11char_traitsIcEENS_9allocatorIcEEE14__get_long_capB6v15007Ev DATA
 0005:00001d88 0000000cH .pdata$_ZNSt3__112basic_stringIcNS_11char_traitsIcEENS_9allocatorIcEEE19__move_assign_allocB6v15007ERS5_ DATA
 0005:00001d94 0000000cH .pdata$_ZNSt3__19allocatorIcE10deallocateB6v15007EPcy DATA
 0005:00001da0 0000000cH .pdata$_ZNSt3__117__compressed_pairINS_12basic_stringIcNS_11char_traitsIcEENS_9allocatorIcEEE5__repES5_E6secondB6v15007Ev DATA
 0005:00001dac 0000000cH .pdata$_ZNSt3__122__compressed_pair_elemINS_9allocatorIcEELi1ELb1EE5__getB6v15007Ev DATA
 0005:00001db8 0000000cH .pdata$_ZNSt3__112basic_stringIcNS_11char_traitsIcEENS_9allocatorIcEEE19__move_assign_allocB6v15007ERS5_NS_17integral_constantIbLb1EEE DATA
 0005:00001dc4 0000000cH .pdata$_ZNSt3__118__unwrap_iter_implIP8ComputerLb1EE8__unwrapB6v15007ES2_ DATA
 0005:00001dd0 0000000cH .pdata$_ZNSt3__14pairIP8ComputerS2_EC1B6v15007IS2_S2_LPv0EEEOT_OT0_ DATA
 0005:00001ddc 0000000cH .pdata$_ZNSt3__14pairIP8ComputerS2_EC2B6v15007IS2_S2_LPv0EEEOT_OT0_ DATA
 0005:00001de8 0000000cH .pdata$_ZNSt3__118__unwrap_iter_implIP8ComputerLb1EE8__rewrapB6v15007ES2_S2_ DATA
 0005:00001df4 0000000cH .pdata                  DATA
 0005:00001e00 0000000cH .pdata$_ZN6System7Classes15TComponentClassC1EPNS_10TMetaClassE DATA
 0005:00001e0c 0000000cH .pdata$_ZN6System7Classes15TComponentClassC2EPNS_10TMetaClassE DATA
 0005:00001e18 0000000cH .pdata$_ZN6System15DelphiMetaClassINS_7Classes15TComponentClassEEC2EPNS_10TMetaClassE DATA
 0005:00001e24 000004d4H .pdata                  DATA
 0005:000022f8 0000000cH .pdata$_ZN6System8Sysutils11ERangeErrorC3ENS_13UnicodeStringE DATA
 0005:00002304 0000000cH .pdata$_ZN6System8Sysutils11ERangeErrorD0Ev DATA
 0005:00002310 0000000cH .pdata$_ZN6System8_CharLenIwEEiPKT_ DATA
 0005:0000231c 0000000cH .pdata$_ZN6System8_CharLenIDsEEiPKT_ DATA
 0005:00002328 0000000cH .pdata$_ZN6System14AnsiStringBaseC2ILt0EEEONS_11AnsiStringTIXT_EEE DATA
 0005:00002334 0000000cH .pdata$_ZN6System13UnicodeStringC2ILt0EEERKNS_11AnsiStringTIXT_EEE DATA
 0005:00002340 0000000cH .pdata$_ZNK6System14AnsiStringBase8CodePageEv DATA
 0005:0000234c 0000000cH .pdata$_ZNK6System14AnsiStringBaseixEi DATA
 0005:00002358 0000000cH .pdata$_ZN6System8Sysutils9EIntErrorC3ENS_13UnicodeStringE DATA
 0005:00002364 0000000cH .pdata$_ZN6System8Sysutils9EExternalC3ENS_13UnicodeStringE DATA
 0005:00002370 0000000cH .pdata$_ZN6System8Sysutils9EIntErrorD0Ev DATA
 0005:0000237c 0000000cH .pdata$_ZN6System8Sysutils9EExternalD0Ev DATA
 0005:00002388 00000180H .pdata                  DATA
 0005:00002508 0000000cH .pdata$_ZN6System15DelphiInterfaceINS_10IInterfaceEEadEv DATA
 0005:00002514 0000000cH .pdata$_ZN6System15DelphiInterfaceINS_10IInterfaceEED2Ev DATA
 0005:00002520 0000000cH .pdata$_ZNSt3__110lock_guardINS_5mutexEEC2B6v15007ERS1_ DATA
 0005:0000252c 0000000cH .pdata$_ZNSt3__113unordered_mapIPN6System7Typinfo9TTypeInfoEPSt9type_infoNS_4hashIS4_EENS_8equal_toIS4_EENS_9allocatorINS_4pairIKS4_S6_EEEEEC2B6v15007Ev DATA
 0005:00002538 0000000cH .pdata$_ZNSt3__113unordered_mapIPN6System7Typinfo9TTypeInfoEPSt9type_infoNS_4hashIS4_EENS_8equal_toIS4_EENS_9allocatorINS_4pairIKS4_S6_EEEEED2B6v15007Ev DATA
 0005:00002544 0000000cH .pdata$_ZNSt3__113unordered_mapIPN6System7Typinfo9TTypeInfoEPSt9type_infoNS_4hashIS4_EENS_8equal_toIS4_EENS_9allocatorINS_4pairIKS4_S6_EEEEEixERSD_ DATA
 0005:00002550 0000000cH .pdata$_ZN6System11AnsiStringTILt65001EEC2ERKNS_13UnicodeStringE DATA
 0005:0000255c 0000000cH .pdata$_ZNK6System11AnsiStringTILt65001EEplERKS1_ DATA
 0005:00002568 0000000cH .pdata$_ZN6System11AnsiStringTILt65001EEC2EPKc DATA
 0005:00002574 0000000cH .pdata$_ZN6System11AnsiStringTILt65001EEC2Ev DATA
 0005:00002580 0000000cH .pdata$_ZN6System11AnsiStringTILt65001EEaSERKS1_ DATA
 0005:0000258c 0000000cH .pdata$_ZN6System11AnsiStringTILt65001EED2Ev DATA
 0005:00002598 0000000cH .pdata$_ZN10__cxxabiv117__class_type_infoC2Ev DATA
 0005:000025a4 0000000cH .pdata$_ZNK6System11AnsiStringTILt65001EE5c_strEv DATA
 0005:000025b0 0000000cH .pdata$_ZNSt3__110lock_guardINS_5mutexEED2B6v15007Ev DATA
 0005:000025bc 0000000cH .pdata$_ZN10__cxxabiv116__shim_type_infoC2Ev DATA
 0005:000025c8 0000000cH .pdata$_ZNSt3__112__hash_tableINS_17__hash_value_typeIPN6System7Typinfo9TTypeInfoEPSt9type_infoEENS_22__unordered_map_hasherIS5_S8_NS_4hashIS5_EENS_8equal_toIS5_EELb1EEENS_21__unordered_map_equalIS5_S8_SD_SB_Lb1EEENS_9allocatorIS8_EEEC2Ev DATA
 0005:000025d4 0000000cH .pdata$_ZNSt3__119__debug_db_insert_cB6v15007INS_13unordered_mapIPN6System7Typinfo9TTypeInfoEPSt9type_infoNS_4hashIS5_EENS_8equal_toIS5_EENS_9allocatorINS_4pairIKS5_S7_EEEEEEEEvPT_ DATA
 0005:000025e0 0000000cH .pdata$_ZNSt3__110unique_ptrIA_PNS_16__hash_node_baseIPNS_11__hash_nodeINS_17__hash_value_typeIPN6System7Typinfo9TTypeInfoEPSt9type_infoEEPvEEEENS_25__bucket_list_deallocatorINS_9allocatorISF_EEEEEC2B6v15007ILb1EvEEv DATA
 0005:000025ec 0000000cH .pdata$_ZNSt3__117__compressed_pairINS_16__hash_node_baseIPNS_11__hash_nodeINS_17__hash_value_typeIPN6System7Typinfo9TTypeInfoEPSt9type_infoEEPvEEEENS_9allocatorISC_EEEC2B6v15007ILb1EvEEv DATA
 0005:000025f8 0000000cH .pdata$_ZNSt3__117__compressed_pairIyNS_22__unordered_map_hasherIPN6System7Typinfo9TTypeInfoENS_17__hash_value_typeIS5_PSt9type_infoEENS_4hashIS5_EENS_8equal_toIS5_EELb1EEEEC2B6v15007IiNS_18__default_init_tagEEEOT_OT0_ DATA
 0005:00002604 0000000cH .pdata$_ZNSt3__117__compressed_pairIfNS_21__unordered_map_equalIPN6System7Typinfo9TTypeInfoENS_17__hash_value_typeIS5_PSt9type_infoEENS_8equal_toIS5_EENS_4hashIS5_EELb1EEEEC2B6v15007IfNS_18__default_init_tagEEEOT_OT0_ DATA
 0005:00002610 0000000cH .pdata$_ZNSt3__117__compressed_pairIPPNS_16__hash_node_baseIPNS_11__hash_nodeINS_17__hash_value_typeIPN6System7Typinfo9TTypeInfoEPSt9type_infoEEPvEEEENS_25__bucket_list_deallocatorINS_9allocatorISF_EEEEEC2B6v15007INS_16__value_init_tagESN_EEOT_OT0_ DATA
 0005:0000261c 0000000cH .pdata$_ZNSt3__122__compressed_pair_elemIPPNS_16__hash_node_baseIPNS_11__hash_nodeINS_17__hash_value_typeIPN6System7Typinfo9TTypeInfoEPSt9type_infoEEPvEEEELi0ELb0EEC2B6v15007ENS_16__value_init_tagE DATA
 0005:00002628 0000000cH .pdata$_ZNSt3__122__compressed_pair_elemINS_25__bucket_list_deallocatorINS_9allocatorIPNS_16__hash_node_baseIPNS_11__hash_nodeINS_17__hash_value_typeIPN6System7Typinfo9TTypeInfoEPSt9type_infoEEPvEEEEEEEELi1ELb0EEC2B6v15007ENS_16__value_init_tagE DATA
 0005:00002634 0000000cH .pdata$_ZNSt3__125__bucket_list_deallocatorINS_9allocatorIPNS_16__hash_node_baseIPNS_11__hash_nodeINS_17__hash_value_typeIPN6System7Typinfo9TTypeInfoEPSt9type_infoEEPvEEEEEEEC2B6v15007Ev DATA
 0005:00002640 0000000cH .pdata$_ZNSt3__117__compressed_pairIyNS_9allocatorIPNS_16__hash_node_baseIPNS_11__hash_nodeINS_17__hash_value_typeIPN6System7Typinfo9TTypeInfoEPSt9type_infoEEPvEEEEEEEC2B6v15007IiNS_18__default_init_tagEEEOT_OT0_ DATA
 0005:0000264c 0000000cH .pdata$_ZNSt3__122__compressed_pair_elemIyLi0ELb0EEC2B6v15007IivEEOT_ DATA
 0005:00002658 0000000cH .pdata$_ZNSt3__122__compressed_pair_elemINS_9allocatorIPNS_16__hash_node_baseIPNS_11__hash_nodeINS_17__hash_value_typeIPN6System7Typinfo9TTypeInfoEPSt9type_infoEEPvEEEEEELi1ELb1EEC2B6v15007ENS_18__default_init_tagE DATA
 0005:00002664 0000000cH .pdata$_ZNSt3__19allocatorIPNS_16__hash_node_baseIPNS_11__hash_nodeINS_17__hash_value_typeIPN6System7Typinfo9TTypeInfoEPSt9type_infoEEPvEEEEEC2B6v15007Ev DATA
 0005:00002670 0000000cH .pdata$_ZNSt3__116__non_trivial_ifILb1ENS_9allocatorIPNS_16__hash_node_baseIPNS_11__hash_nodeINS_17__hash_value_typeIPN6System7Typinfo9TTypeInfoEPSt9type_infoEEPvEEEEEEEC2B6v15007Ev DATA
 0005:0000267c 0000000cH .pdata$_ZNSt3__122__compressed_pair_elemINS_16__hash_node_baseIPNS_11__hash_nodeINS_17__hash_value_typeIPN6System7Typinfo9TTypeInfoEPSt9type_infoEEPvEEEELi0ELb0EEC2B6v15007ENS_16__value_init_tagE DATA
 0005:00002688 0000000cH .pdata$_ZNSt3__122__compressed_pair_elemINS_9allocatorINS_11__hash_nodeINS_17__hash_value_typeIPN6System7Typinfo9TTypeInfoEPSt9type_infoEEPvEEEELi1ELb1EEC2B6v15007ENS_16__value_init_tagE DATA
 0005:00002694 0000000cH .pdata$_ZNSt3__116__hash_node_baseIPNS_11__hash_nodeINS_17__hash_value_typeIPN6System7Typinfo9TTypeInfoEPSt9type_infoEEPvEEEC2B6v15007Ev DATA
 0005:000026a0 0000000cH .pdata$_ZNSt3__19allocatorINS_11__hash_nodeINS_17__hash_value_typeIPN6System7Typinfo9TTypeInfoEPSt9type_infoEEPvEEEC2B6v15007Ev DATA
 0005:000026ac 0000000cH .pdata$_ZNSt3__116__non_trivial_ifILb1ENS_9allocatorINS_11__hash_nodeINS_17__hash_value_typeIPN6System7Typinfo9TTypeInfoEPSt9type_infoEEPvEEEEEC2B6v15007Ev DATA
 0005:000026b8 0000000cH .pdata$_ZNSt3__122__compressed_pair_elemINS_22__unordered_map_hasherIPN6System7Typinfo9TTypeInfoENS_17__hash_value_typeIS5_PSt9type_infoEENS_4hashIS5_EENS_8equal_toIS5_EELb1EEELi1ELb1EEC2B6v15007ENS_18__default_init_tagE DATA
 0005:000026c4 0000000cH .pdata$_ZNSt3__122__unordered_map_hasherIPN6System7Typinfo9TTypeInfoENS_17__hash_value_typeIS4_PSt9type_infoEENS_4hashIS4_EENS_8equal_toIS4_EELb1EEC2B6v15007Ev DATA
 0005:000026d0 0000000cH .pdata$_ZNSt3__122__compressed_pair_elemIfLi0ELb0EEC2B6v15007IfvEEOT_ DATA
 0005:000026dc 0000000cH .pdata$_ZNSt3__122__compressed_pair_elemINS_21__unordered_map_equalIPN6System7Typinfo9TTypeInfoENS_17__hash_value_typeIS5_PSt9type_infoEENS_8equal_toIS5_EENS_4hashIS5_EELb1EEELi1ELb1EEC2B6v15007ENS_18__default_init_tagE DATA
 0005:000026e8 0000000cH .pdata$_ZNSt3__121__unordered_map_equalIPN6System7Typinfo9TTypeInfoENS_17__hash_value_typeIS4_PSt9type_infoEENS_8equal_toIS4_EENS_4hashIS4_EELb1EEC2B6v15007Ev DATA
 0005:000026f4 0000000cH .pdata$_ZNSt3__112__hash_tableINS_17__hash_value_typeIPN6System7Typinfo9TTypeInfoEPSt9type_infoEENS_22__unordered_map_hasherIS5_S8_NS_4hashIS5_EENS_8equal_toIS5_EELb1EEENS_21__unordered_map_equalIS5_S8_SD_SB_Lb1EEENS_9allocatorIS8_EEED2Ev DATA
 0005:00002700 0000000cH .pdata$_ZNSt3__112__hash_tableINS_17__hash_value_typeIPN6System7Typinfo9TTypeInfoEPSt9type_infoEENS_22__unordered_map_hasherIS5_S8_NS_4hashIS5_EENS_8equal_toIS5_EELb1EEENS_21__unordered_map_equalIS5_S8_SD_SB_Lb1EEENS_9allocatorIS8_EEE17__deallocate_nodeEPNS_16__hash_node_baseIPNS_11__hash_nodeIS8_PvEEEE DATA
 0005:0000270c 0000000cH .pdata$_ZNSt3__117__compressed_pairINS_16__hash_node_baseIPNS_11__hash_nodeINS_17__hash_value_typeIPN6System7Typinfo9TTypeInfoEPSt9type_infoEEPvEEEENS_9allocatorISC_EEE5firstB6v15007Ev DATA
 0005:00002718 0000000cH .pdata$_ZNSt3__118__debug_db_erase_cB6v15007INS_12__hash_tableINS_17__hash_value_typeIPN6System7Typinfo9TTypeInfoEPSt9type_infoEENS_22__unordered_map_hasherIS6_S9_NS_4hashIS6_EENS_8equal_toIS6_EELb1EEENS_21__unordered_map_equalIS6_S9_SE_SC_Lb1EEENS_9allocatorIS9_EEEEEEvPT_ DATA
 0005:00002724 0000000cH .pdata$_ZNSt3__110unique_ptrIA_PNS_16__hash_node_baseIPNS_11__hash_nodeINS_17__hash_value_typeIPN6System7Typinfo9TTypeInfoEPSt9type_infoEEPvEEEENS_25__bucket_list_deallocatorINS_9allocatorISF_EEEEED2B6v15007Ev DATA
 0005:00002730 0000000cH .pdata$_ZNSt3__112__hash_tableINS_17__hash_value_typeIPN6System7Typinfo9TTypeInfoEPSt9type_infoEENS_22__unordered_map_hasherIS5_S8_NS_4hashIS5_EENS_8equal_toIS5_EELb1EEENS_21__unordered_map_equalIS5_S8_SD_SB_Lb1EEENS_9allocatorIS8_EEE12__node_allocB6v15007Ev DATA
 0005:0000273c 0000000cH .pdata$_ZNSt3__116__hash_node_baseIPNS_11__hash_nodeINS_17__hash_value_typeIPN6System7Typinfo9TTypeInfoEPSt9type_infoEEPvEEE8__upcastB6v15007Ev DATA
 0005:00002748 0000000cH .pdata$_ZNSt3__116allocator_traitsINS_9allocatorINS_11__hash_nodeINS_17__hash_value_typeIPN6System7Typinfo9TTypeInfoEPSt9type_infoEEPvEEEEE7destroyB6v15007INS_4pairIKS7_S9_EEvvEEvRSD_PT_ DATA
 0005:00002754 0000000cH .pdata$_ZNSt3__122__hash_key_value_typesINS_17__hash_value_typeIPN6System7Typinfo9TTypeInfoEPSt9type_infoEEE9__get_ptrB6v15007ERS8_ DATA
 0005:00002760 0000000cH .pdata$_ZNSt3__116allocator_traitsINS_9allocatorINS_11__hash_nodeINS_17__hash_value_typeIPN6System7Typinfo9TTypeInfoEPSt9type_infoEEPvEEEEE10deallocateB6v15007ERSD_PSC_y DATA
 0005:0000276c 0000000cH .pdata$_ZNSt3__117__compressed_pairINS_16__hash_node_baseIPNS_11__hash_nodeINS_17__hash_value_typeIPN6System7Typinfo9TTypeInfoEPSt9type_infoEEPvEEEENS_9allocatorISC_EEE6secondB6v15007Ev DATA
 0005:00002778 0000000cH .pdata$_ZNSt3__122__compressed_pair_elemINS_9allocatorINS_11__hash_nodeINS_17__hash_value_typeIPN6System7Typinfo9TTypeInfoEPSt9type_infoEEPvEEEELi1ELb1EE5__getB6v15007Ev DATA
 0005:00002784 0000000cH .pdata$_ZNSt3__114pointer_traitsIPNS_16__hash_node_baseIPNS_11__hash_nodeINS_17__hash_value_typeIPN6System7Typinfo9TTypeInfoEPSt9type_infoEEPvEEEEE10pointer_toB6v15007ERSE_ DATA
 0005:00002790 0000000cH .pdata$_ZNSt3__117__hash_value_typeIPN6System7Typinfo9TTypeInfoEPSt9type_infoE11__get_valueB6v15007Ev DATA
 0005:0000279c 0000000cH .pdata$_ZNSt3__17launderB6v15007INS_4pairIKPN6System7Typinfo9TTypeInfoEPSt9type_infoEEEEPT_SB_ DATA
 0005:000027a8 0000000cH .pdata$_ZNSt3__19__launderB6v15007INS_4pairIKPN6System7Typinfo9TTypeInfoEPSt9type_infoEEEEPT_SB_ DATA
 0005:000027b4 0000000cH .pdata$_ZNSt3__19allocatorINS_11__hash_nodeINS_17__hash_value_typeIPN6System7Typinfo9TTypeInfoEPSt9type_infoEEPvEEE10deallocateB6v15007EPSB_y DATA
 0005:000027c0 0000000cH .pdata$_ZNSt3__122__compressed_pair_elemINS_16__hash_node_baseIPNS_11__hash_nodeINS_17__hash_value_typeIPN6System7Typinfo9TTypeInfoEPSt9type_infoEEPvEEEELi0ELb0EE5__getB6v15007Ev DATA
 0005:000027cc 0000000cH .pdata$_ZNSt3__110unique_ptrIA_PNS_16__hash_node_baseIPNS_11__hash_nodeINS_17__hash_value_typeIPN6System7Typinfo9TTypeInfoEPSt9type_infoEEPvEEEENS_25__bucket_list_deallocatorINS_9allocatorISF_EEEEE5resetB6v15007EDn DATA
 0005:000027d8 0000000cH .pdata$_ZNSt3__117__compressed_pairIPPNS_16__hash_node_baseIPNS_11__hash_nodeINS_17__hash_value_typeIPN6System7Typinfo9TTypeInfoEPSt9type_infoEEPvEEEENS_25__bucket_list_deallocatorINS_9allocatorISF_EEEEE5firstB6v15007Ev DATA
 0005:000027e4 0000000cH .pdata$_ZNSt3__117__compressed_pairIPPNS_16__hash_node_baseIPNS_11__hash_nodeINS_17__hash_value_typeIPN6System7Typinfo9TTypeInfoEPSt9type_infoEEPvEEEENS_25__bucket_list_deallocatorINS_9allocatorISF_EEEEE6secondB6v15007Ev DATA
 0005:000027f0 0000000cH .pdata$_ZNSt3__125__bucket_list_deallocatorINS_9allocatorIPNS_16__hash_node_baseIPNS_11__hash_nodeINS_17__hash_value_typeIPN6System7Typinfo9TTypeInfoEPSt9type_infoEEPvEEEEEEEclB6v15007EPSG_ DATA
 0005:000027fc 0000000cH .pdata$_ZNSt3__122__compressed_pair_elemIPPNS_16__hash_node_baseIPNS_11__hash_nodeINS_17__hash_value_typeIPN6System7Typinfo9TTypeInfoEPSt9type_infoEEPvEEEELi0ELb0EE5__getB6v15007Ev DATA
 0005:00002808 0000000cH .pdata$_ZNSt3__122__compressed_pair_elemINS_25__bucket_list_deallocatorINS_9allocatorIPNS_16__hash_node_baseIPNS_11__hash_nodeINS_17__hash_value_typeIPN6System7Typinfo9TTypeInfoEPSt9type_infoEEPvEEEEEEEELi1ELb0EE5__getB6v15007Ev DATA
 0005:00002814 0000000cH .pdata$_ZNSt3__116allocator_traitsINS_9allocatorIPNS_16__hash_node_baseIPNS_11__hash_nodeINS_17__hash_value_typeIPN6System7Typinfo9TTypeInfoEPSt9type_infoEEPvEEEEEEE10deallocateB6v15007ERSH_PSG_y DATA
 0005:00002820 0000000cH .pdata$_ZNSt3__125__bucket_list_deallocatorINS_9allocatorIPNS_16__hash_node_baseIPNS_11__hash_nodeINS_17__hash_value_typeIPN6System7Typinfo9TTypeInfoEPSt9type_infoEEPvEEEEEEE7__allocB6v15007Ev DATA
 0005:0000282c 0000000cH .pdata$_ZNSt3__125__bucket_list_deallocatorINS_9allocatorIPNS_16__hash_node_baseIPNS_11__hash_nodeINS_17__hash_value_typeIPN6System7Typinfo9TTypeInfoEPSt9type_infoEEPvEEEEEEE4sizeB6v15007Ev DATA
 0005:00002838 0000000cH .pdata$_ZNSt3__19allocatorIPNS_16__hash_node_baseIPNS_11__hash_nodeINS_17__hash_value_typeIPN6System7Typinfo9TTypeInfoEPSt9type_infoEEPvEEEEE10deallocateB6v15007EPSF_y DATA
 0005:00002844 0000000cH .pdata$_ZNSt3__117__compressed_pairIyNS_9allocatorIPNS_16__hash_node_baseIPNS_11__hash_nodeINS_17__hash_value_typeIPN6System7Typinfo9TTypeInfoEPSt9type_infoEEPvEEEEEEE6secondB6v15007Ev DATA
 0005:00002850 0000000cH .pdata$_ZNSt3__122__compressed_pair_elemINS_9allocatorIPNS_16__hash_node_baseIPNS_11__hash_nodeINS_17__hash_value_typeIPN6System7Typinfo9TTypeInfoEPSt9type_infoEEPvEEEEEELi1ELb1EE5__getB6v15007Ev DATA
 0005:0000285c 0000000cH .pdata$_ZNSt3__117__compressed_pairIyNS_9allocatorIPNS_16__hash_node_baseIPNS_11__hash_nodeINS_17__hash_value_typeIPN6System7Typinfo9TTypeInfoEPSt9type_infoEEPvEEEEEEE5firstB6v15007Ev DATA
 0005:00002868 0000000cH .pdata$_ZNSt3__122__compressed_pair_elemIyLi0ELb0EE5__getB6v15007Ev DATA
 0005:00002874 0000000cH .pdata$_ZNSt3__112__hash_tableINS_17__hash_value_typeIPN6System7Typinfo9TTypeInfoEPSt9type_infoEENS_22__unordered_map_hasherIS5_S8_NS_4hashIS5_EENS_8equal_toIS5_EELb1EEENS_21__unordered_map_equalIS5_S8_SD_SB_Lb1EEENS_9allocatorIS8_EEE25__emplace_unique_key_argsIS5_JRKNS_21piecewise_construct_tENS_5tupleIJRKS5_EEENSO_IJEEEEEENS_4pairINS_15__hash_iteratorIPNS_11__hash_nodeIS8_PvEEEEbEERKT_DpOT0_ DATA
 0005:00002880 0000000cH .pdata$_ZNSt3__116forward_as_tupleB6v15007IJRKPN6System7Typinfo9TTypeInfoEEEENS_5tupleIJDpOT_EEESA_ DATA
 0005:0000288c 0000000cH .pdata$_ZNSt3__116forward_as_tupleB6v15007IJEEENS_5tupleIJDpOT_EEES4_ DATA
 0005:00002898 0000000cH .pdata$_ZNKSt3__115__hash_iteratorIPNS_11__hash_nodeINS_17__hash_value_typeIPN6System7Typinfo9TTypeInfoEPSt9type_infoEEPvEEEptB6v15007Ev DATA
 0005:000028a4 0000000cH .pdata$_ZNSt3__112__hash_tableINS_17__hash_value_typeIPN6System7Typinfo9TTypeInfoEPSt9type_infoEENS_22__unordered_map_hasherIS5_S8_NS_4hashIS5_EENS_8equal_toIS5_EELb1EEENS_21__unordered_map_equalIS5_S8_SD_SB_Lb1EEENS_9allocatorIS8_EEE13hash_functionB6v15007Ev DATA
 0005:000028b0 0000000cH .pdata$_ZNKSt3__122__unordered_map_hasherIPN6System7Typinfo9TTypeInfoENS_17__hash_value_typeIS4_PSt9type_infoEENS_4hashIS4_EENS_8equal_toIS4_EELb1EEclB6v15007ERKS4_ DATA
 0005:000028bc 0000000cH .pdata$_ZNKSt3__112__hash_tableINS_17__hash_value_typeIPN6System7Typinfo9TTypeInfoEPSt9type_infoEENS_22__unordered_map_hasherIS5_S8_NS_4hashIS5_EENS_8equal_toIS5_EELb1EEENS_21__unordered_map_equalIS5_S8_SD_SB_Lb1EEENS_9allocatorIS8_EEE12bucket_countB6v15007Ev DATA
 0005:000028c8 0000000cH .pdata$_ZNSt3__116__constrain_hashB6v15007Eyy DATA
 0005:000028d4 0000000cH .pdata$_ZNKSt3__110unique_ptrIA_PNS_16__hash_node_baseIPNS_11__hash_nodeINS_17__hash_value_typeIPN6System7Typinfo9TTypeInfoEPSt9type_infoEEPvEEEENS_25__bucket_list_deallocatorINS_9allocatorISF_EEEEEixB6v15007Ey DATA
 0005:000028e0 0000000cH .pdata$_ZNKSt3__116__hash_node_baseIPNS_11__hash_nodeINS_17__hash_value_typeIPN6System7Typinfo9TTypeInfoEPSt9type_infoEEPvEEE6__hashB6v15007Ev DATA
 0005:000028ec 0000000cH .pdata$_ZNSt3__112__hash_tableINS_17__hash_value_typeIPN6System7Typinfo9TTypeInfoEPSt9type_infoEENS_22__unordered_map_hasherIS5_S8_NS_4hashIS5_EENS_8equal_toIS5_EELb1EEENS_21__unordered_map_equalIS5_S8_SD_SB_Lb1EEENS_9allocatorIS8_EEE6key_eqB6v15007Ev DATA
 0005:000028f8 0000000cH .pdata$_ZNKSt3__121__unordered_map_equalIPN6System7Typinfo9TTypeInfoENS_17__hash_value_typeIS4_PSt9type_infoEENS_8equal_toIS4_EENS_4hashIS4_EELb1EEclB6v15007ERKS8_RKS4_ DATA
 0005:00002904 0000000cH .pdata$_ZNSt3__112__hash_tableINS_17__hash_value_typeIPN6System7Typinfo9TTypeInfoEPSt9type_infoEENS_22__unordered_map_hasherIS5_S8_NS_4hashIS5_EENS_8equal_toIS5_EELb1EEENS_21__unordered_map_equalIS5_S8_SD_SB_Lb1EEENS_9allocatorIS8_EEE21__construct_node_hashIRKNS_21piecewise_construct_tEJNS_5tupleIJRKS5_EEENSO_IJEEEEEENS_10unique_ptrINS_11__hash_nodeIS8_PvEENS_22__hash_node_destructorINSH_ISW_EEEEEEyOT_DpOT0_ DATA
 0005:00002910 0000000cH .pdata$_ZNSt3__112__hash_tableINS_17__hash_value_typeIPN6System7Typinfo9TTypeInfoEPSt9type_infoEENS_22__unordered_map_hasherIS5_S8_NS_4hashIS5_EENS_8equal_toIS5_EELb1EEENS_21__unordered_map_equalIS5_S8_SD_SB_Lb1EEENS_9allocatorIS8_EEE4sizeB6v15007Ev DATA
 0005:0000291c 0000000cH .pdata$_ZNSt3__112__hash_tableINS_17__hash_value_typeIPN6System7Typinfo9TTypeInfoEPSt9type_infoEENS_22__unordered_map_hasherIS5_S8_NS_4hashIS5_EENS_8equal_toIS5_EELb1EEENS_21__unordered_map_equalIS5_S8_SD_SB_Lb1EEENS_9allocatorIS8_EEE15max_load_factorB6v15007Ev DATA
 0005:00002928 0000000cH .pdata$_ZNSt3__112__hash_tableINS_17__hash_value_typeIPN6System7Typinfo9TTypeInfoEPSt9type_infoEENS_22__unordered_map_hasherIS5_S8_NS_4hashIS5_EENS_8equal_toIS5_EELb1EEENS_21__unordered_map_equalIS5_S8_SD_SB_Lb1EEENS_9allocatorIS8_EEE15__rehash_uniqueB6v15007Ey DATA
 0005:00002934 0000000cH .pdata$_ZNSt3__116__is_hash_power2B6v15007Ey DATA
 0005:00002940 0000000cH .pdata$_Z4ceilB6v15007f DATA
 0005:0000294c 0000000cH .pdata$_ZNSt3__116__hash_node_baseIPNS_11__hash_nodeINS_17__hash_value_typeIPN6System7Typinfo9TTypeInfoEPSt9type_infoEEPvEEE5__ptrB6v15007Ev DATA
 0005:00002958 0000000cH .pdata$_ZNKSt3__110unique_ptrINS_11__hash_nodeINS_17__hash_value_typeIPN6System7Typinfo9TTypeInfoEPSt9type_infoEEPvEENS_22__hash_node_destructorINS_9allocatorISB_EEEEEptB6v15007Ev DATA
 0005:00002964 0000000cH .pdata$_ZNKSt3__110unique_ptrINS_11__hash_nodeINS_17__hash_value_typeIPN6System7Typinfo9TTypeInfoEPSt9type_infoEEPvEENS_22__hash_node_destructorINS_9allocatorISB_EEEEE3getB6v15007Ev DATA
 0005:00002970 0000000cH .pdata$_ZNSt3__110unique_ptrINS_11__hash_nodeINS_17__hash_value_typeIPN6System7Typinfo9TTypeInfoEPSt9type_infoEEPvEENS_22__hash_node_destructorINS_9allocatorISB_EEEEE7releaseB6v15007Ev DATA
 0005:0000297c 0000000cH .pdata$_ZNSt3__110unique_ptrINS_11__hash_nodeINS_17__hash_value_typeIPN6System7Typinfo9TTypeInfoEPSt9type_infoEEPvEENS_22__hash_node_destructorINS_9allocatorISB_EEEEED2B6v15007Ev DATA
 0005:00002988 0000000cH .pdata$_ZNSt3__115__hash_iteratorIPNS_11__hash_nodeINS_17__hash_value_typeIPN6System7Typinfo9TTypeInfoEPSt9type_infoEEPvEEEC2B6v15007EPNS_16__hash_node_baseISC_EEPKv DATA
 0005:00002994 0000000cH .pdata$_ZNSt3__14pairINS_15__hash_iteratorIPNS_11__hash_nodeINS_17__hash_value_typeIPN6System7Typinfo9TTypeInfoEPSt9type_infoEEPvEEEEbEC2B6v15007ISE_RbLSB_0EEEOT_OT0_ DATA
 0005:000029a0 0000000cH .pdata$_ZNSt3__117__compressed_pairIyNS_22__unordered_map_hasherIPN6System7Typinfo9TTypeInfoENS_17__hash_value_typeIS5_PSt9type_infoEENS_4hashIS5_EENS_8equal_toIS5_EELb1EEEE6secondB6v15007Ev DATA
 0005:000029ac 0000000cH .pdata$_ZNSt3__122__compressed_pair_elemINS_22__unordered_map_hasherIPN6System7Typinfo9TTypeInfoENS_17__hash_value_typeIS5_PSt9type_infoEENS_4hashIS5_EENS_8equal_toIS5_EELb1EEELi1ELb1EE5__getB6v15007Ev DATA
 0005:000029b8 0000000cH .pdata$_ZNKSt3__14hashIPN6System7Typinfo9TTypeInfoEEclB6v15007ES4_ DATA
 0005:000029c4 0000000cH .pdata$_ZNSt3__121__murmur2_or_cityhashIyLy64EEclEPKvy DATA
 0005:000029d0 0000000cH .pdata$_ZNSt3__121__murmur2_or_cityhashIyLy64EE18__hash_len_0_to_16EPKcy DATA
 0005:000029dc 0000000cH .pdata$_ZNSt3__121__murmur2_or_cityhashIyLy64EE19__hash_len_17_to_32EPKcy DATA
 0005:000029e8 0000000cH .pdata$_ZNSt3__121__murmur2_or_cityhashIyLy64EE19__hash_len_33_to_64EPKcy DATA
 0005:000029f4 0000000cH .pdata$_ZNSt3__110__loadwordB6v15007IyEET_PKv DATA
 0005:00002a00 0000000cH .pdata$_ZNSt3__121__murmur2_or_cityhashIyLy64EE13__hash_len_16Eyy DATA
 0005:00002a0c 0000000cH .pdata$_ZNSt3__121__murmur2_or_cityhashIyLy64EE29__weak_hash_len_32_with_seedsEPKcyy DATA
 0005:00002a18 0000000cH .pdata$_ZNSt3__121__murmur2_or_cityhashIyLy64EE8__rotateEyi DATA
 0005:00002a24 0000000cH .pdata$_ZNSt3__14pairIyyEaSB6v15007EOS1_ DATA
 0005:00002a30 0000000cH .pdata$_ZNSt3__14swapB6v15007IyEENS_9enable_ifIXaasr21is_move_constructibleIT_EE5valuesr18is_move_assignableIS2_EE5valueEvE4typeERS2_S5_ DATA
 0005:00002a3c 0000000cH .pdata$_ZNSt3__121__murmur2_or_cityhashIyLy64EE11__shift_mixEy DATA
 0005:00002a48 0000000cH .pdata$_ZNSt3__121__murmur2_or_cityhashIyLy64EE22__rotate_by_at_least_1Eyi DATA
 0005:00002a54 0000000cH .pdata$_ZNSt3__110__loadwordB6v15007IjEET_PKv DATA
 0005:00002a60 0000000cH .pdata$_ZNSt3__121__murmur2_or_cityhashIyLy64EE29__weak_hash_len_32_with_seedsEyyyyyy DATA
 0005:00002a6c 0000000cH .pdata$_ZNSt3__14pairIyyEC2B6v15007IyyLPv0EEEOT_OT0_ DATA
 0005:00002a78 0000000cH .pdata$_ZNKSt3__110unique_ptrIA_PNS_16__hash_node_baseIPNS_11__hash_nodeINS_17__hash_value_typeIPN6System7Typinfo9TTypeInfoEPSt9type_infoEEPvEEEENS_25__bucket_list_deallocatorINS_9allocatorISF_EEEEE11get_deleterB6v15007Ev DATA
 0005:00002a84 0000000cH .pdata$_ZNKSt3__125__bucket_list_deallocatorINS_9allocatorIPNS_16__hash_node_baseIPNS_11__hash_nodeINS_17__hash_value_typeIPN6System7Typinfo9TTypeInfoEPSt9type_infoEEPvEEEEEEE4sizeB6v15007Ev DATA
 0005:00002a90 0000000cH .pdata$_ZNKSt3__117__compressed_pairIPPNS_16__hash_node_baseIPNS_11__hash_nodeINS_17__hash_value_typeIPN6System7Typinfo9TTypeInfoEPSt9type_infoEEPvEEEENS_25__bucket_list_deallocatorINS_9allocatorISF_EEEEE6secondB6v15007Ev DATA
 0005:00002a9c 0000000cH .pdata$_ZNKSt3__122__compressed_pair_elemINS_25__bucket_list_deallocatorINS_9allocatorIPNS_16__hash_node_baseIPNS_11__hash_nodeINS_17__hash_value_typeIPN6System7Typinfo9TTypeInfoEPSt9type_infoEEPvEEEEEEEELi1ELb0EE5__getB6v15007Ev DATA
 0005:00002aa8 0000000cH .pdata$_ZNKSt3__117__compressed_pairIyNS_9allocatorIPNS_16__hash_node_baseIPNS_11__hash_nodeINS_17__hash_value_typeIPN6System7Typinfo9TTypeInfoEPSt9type_infoEEPvEEEEEEE5firstB6v15007Ev DATA
 0005:00002ab4 0000000cH .pdata$_ZNKSt3__122__compressed_pair_elemIyLi0ELb0EE5__getB6v15007Ev DATA
 0005:00002ac0 0000000cH .pdata$_ZNKSt3__117__compressed_pairIPPNS_16__hash_node_baseIPNS_11__hash_nodeINS_17__hash_value_typeIPN6System7Typinfo9TTypeInfoEPSt9type_infoEEPvEEEENS_25__bucket_list_deallocatorINS_9allocatorISF_EEEEE5firstB6v15007Ev DATA
 0005:00002acc 0000000cH .pdata$_ZNKSt3__122__compressed_pair_elemIPPNS_16__hash_node_baseIPNS_11__hash_nodeINS_17__hash_value_typeIPN6System7Typinfo9TTypeInfoEPSt9type_infoEEPvEEEELi0ELb0EE5__getB6v15007Ev DATA
 0005:00002ad8 0000000cH .pdata$_ZNSt3__117__compressed_pairIfNS_21__unordered_map_equalIPN6System7Typinfo9TTypeInfoENS_17__hash_value_typeIS5_PSt9type_infoEENS_8equal_toIS5_EENS_4hashIS5_EELb1EEEE6secondB6v15007Ev DATA
 0005:00002ae4 0000000cH .pdata$_ZNSt3__122__compressed_pair_elemINS_21__unordered_map_equalIPN6System7Typinfo9TTypeInfoENS_17__hash_value_typeIS5_PSt9type_infoEENS_8equal_toIS5_EENS_4hashIS5_EELb1EEELi1ELb1EE5__getB6v15007Ev DATA
 0005:00002af0 0000000cH .pdata$_ZNKSt3__18equal_toIPN6System7Typinfo9TTypeInfoEEclB6v15007ERKS4_S7_ DATA
 0005:00002afc 0000000cH .pdata$_ZNKSt3__117__hash_value_typeIPN6System7Typinfo9TTypeInfoEPSt9type_infoE11__get_valueB6v15007Ev DATA
 0005:00002b08 0000000cH .pdata$_ZNSt3__17launderB6v15007IKNS_4pairIKPN6System7Typinfo9TTypeInfoEPSt9type_infoEEEEPT_SC_ DATA
 0005:00002b14 0000000cH .pdata$_ZNSt3__19__launderB6v15007IKNS_4pairIKPN6System7Typinfo9TTypeInfoEPSt9type_infoEEEEPT_SC_ DATA
 0005:00002b20 0000000cH .pdata$_ZNSt3__116allocator_traitsINS_9allocatorINS_11__hash_nodeINS_17__hash_value_typeIPN6System7Typinfo9TTypeInfoEPSt9type_infoEEPvEEEEE8allocateB6v15007ERSD_y DATA
 0005:00002b2c 0000000cH .pdata$_ZNSt3__122__hash_node_destructorINS_9allocatorINS_11__hash_nodeINS_17__hash_value_typeIPN6System7Typinfo9TTypeInfoEPSt9type_infoEEPvEEEEEC2B6v15007ERSD_b DATA
 0005:00002b38 0000000cH .pdata$_ZNSt3__110unique_ptrINS_11__hash_nodeINS_17__hash_value_typeIPN6System7Typinfo9TTypeInfoEPSt9type_infoEEPvEENS_22__hash_node_destructorINS_9allocatorISB_EEEEEC2B6v15007ILb1EvEEPSB_NS_16__dependent_typeINS_27__unique_ptr_deleter_sfinaeISF_EEXT_EE20__good_rval_ref_typeE DATA
 0005:00002b44 0000000cH .pdata$_ZNSt3__116allocator_traitsINS_9allocatorINS_11__hash_nodeINS_17__hash_value_typeIPN6System7Typinfo9TTypeInfoEPSt9type_infoEEPvEEEEE9constructB6v15007INS_4pairIKS7_S9_EEJRKNS_21piecewise_construct_tENS_5tupleIJRSH_EEENSM_IJEEEEvEEvRSD_PT_DpOT0_ DATA
 0005:00002b50 0000000cH .pdata$_ZNSt3__110unique_ptrINS_11__hash_nodeINS_17__hash_value_typeIPN6System7Typinfo9TTypeInfoEPSt9type_infoEEPvEENS_22__hash_node_destructorINS_9allocatorISB_EEEEE11get_deleterB6v15007Ev DATA
 0005:00002b5c 0000000cH .pdata$_ZNSt3__19allocatorINS_11__hash_nodeINS_17__hash_value_typeIPN6System7Typinfo9TTypeInfoEPSt9type_infoEEPvEEE8allocateB6v15007Ey DATA
 0005:00002b68 0000000cH .pdata$_ZNSt3__116allocator_traitsINS_9allocatorINS_11__hash_nodeINS_17__hash_value_typeIPN6System7Typinfo9TTypeInfoEPSt9type_infoEEPvEEEEE8max_sizeB6v15007ISD_vEEyRKSD_ DATA
 0005:00002b74 0000000cH .pdata$_ZNKSt3__19allocatorINS_11__hash_nodeINS_17__hash_value_typeIPN6System7Typinfo9TTypeInfoEPSt9type_infoEEPvEEE8max_sizeB6v15007Ev DATA
 0005:00002b80 0000000cH .pdata$_ZNSt3__117__compressed_pairIPNS_11__hash_nodeINS_17__hash_value_typeIPN6System7Typinfo9TTypeInfoEPSt9type_infoEEPvEENS_22__hash_node_destructorINS_9allocatorISB_EEEEEC2B6v15007IRSC_SG_EEOT_OT0_ DATA
 0005:00002b8c 0000000cH .pdata$_ZNSt3__122__compressed_pair_elemIPNS_11__hash_nodeINS_17__hash_value_typeIPN6System7Typinfo9TTypeInfoEPSt9type_infoEEPvEELi0ELb0EEC2B6v15007IRSC_vEEOT_ DATA
 0005:00002b98 0000000cH .pdata$_ZNSt3__122__compressed_pair_elemINS_22__hash_node_destructorINS_9allocatorINS_11__hash_nodeINS_17__hash_value_typeIPN6System7Typinfo9TTypeInfoEPSt9type_infoEEPvEEEEEELi1ELb0EEC2B6v15007ISF_vEEOT_ DATA
 0005:00002ba4 0000000cH .pdata$_ZNSt3__19allocatorINS_11__hash_nodeINS_17__hash_value_typeIPN6System7Typinfo9TTypeInfoEPSt9type_infoEEPvEEE9constructB6v15007INS_4pairIKS6_S8_EEJRKNS_21piecewise_construct_tENS_5tupleIJRSF_EEENSK_IJEEEEEEvPT_DpOT0_ DATA
 0005:00002bb0 0000000cH .pdata$_ZNSt3__14pairIKPN6System7Typinfo9TTypeInfoEPSt9type_infoEC2B6v15007IJRS5_EJEEENS_21piecewise_construct_tENS_5tupleIJDpT_EEENSC_IJDpT0_EEE DATA
 0005:00002bbc 0000000cH .pdata$_ZNSt3__14pairIKPN6System7Typinfo9TTypeInfoEPSt9type_infoEC2B6v15007IJRS5_EJEJLy0EEJEEENS_21piecewise_construct_tERNS_5tupleIJDpT_EEERNSC_IJDpT0_EEENS_15__tuple_indicesIJXspT1_EEEENSL_IJXspT2_EEEE DATA
 0005:00002bc8 0000000cH .pdata$_ZNSt3__13getB6v15007ILy0EJRKPN6System7Typinfo9TTypeInfoEEEERNS_13tuple_elementIXT_ENS_5tupleIJDpT0_EEEE4typeERSB_ DATA
 0005:00002bd4 0000000cH .pdata$_ZNSt3__112__tuple_leafILy0ERKPN6System7Typinfo9TTypeInfoELb0EE3getB6v15007Ev DATA
 0005:00002be0 0000000cH .pdata$_ZNSt3__117__compressed_pairIPNS_11__hash_nodeINS_17__hash_value_typeIPN6System7Typinfo9TTypeInfoEPSt9type_infoEEPvEENS_22__hash_node_destructorINS_9allocatorISB_EEEEE6secondB6v15007Ev DATA
 0005:00002bec 0000000cH .pdata$_ZNSt3__122__compressed_pair_elemINS_22__hash_node_destructorINS_9allocatorINS_11__hash_nodeINS_17__hash_value_typeIPN6System7Typinfo9TTypeInfoEPSt9type_infoEEPvEEEEEELi1ELb0EE5__getB6v15007Ev DATA
 0005:00002bf8 0000000cH .pdata$_ZNSt3__117__compressed_pairIyNS_22__unordered_map_hasherIPN6System7Typinfo9TTypeInfoENS_17__hash_value_typeIS5_PSt9type_infoEENS_4hashIS5_EENS_8equal_toIS5_EELb1EEEE5firstB6v15007Ev DATA
 0005:00002c04 0000000cH .pdata$_ZNSt3__117__compressed_pairIfNS_21__unordered_map_equalIPN6System7Typinfo9TTypeInfoENS_17__hash_value_typeIS5_PSt9type_infoEENS_8equal_toIS5_EENS_4hashIS5_EELb1EEEE5firstB6v15007Ev DATA
 0005:00002c10 0000000cH .pdata$_ZNSt3__122__compressed_pair_elemIfLi0ELb0EE5__getB6v15007Ev DATA
 0005:00002c1c 0000000cH .pdata$_ZNSt3__112__hash_tableINS_17__hash_value_typeIPN6System7Typinfo9TTypeInfoEPSt9type_infoEENS_22__unordered_map_hasherIS5_S8_NS_4hashIS5_EENS_8equal_toIS5_EELb1EEENS_21__unordered_map_equalIS5_S8_SD_SB_Lb1EEENS_9allocatorIS8_EEE8__rehashILb1EEEvy DATA
 0005:00002c28 0000000cH .pdata$_ZNSt3__112__hash_tableINS_17__hash_value_typeIPN6System7Typinfo9TTypeInfoEPSt9type_infoEENS_22__unordered_map_hasherIS5_S8_NS_4hashIS5_EENS_8equal_toIS5_EELb1EEENS_21__unordered_map_equalIS5_S8_SD_SB_Lb1EEENS_9allocatorIS8_EEE11__do_rehashILb1EEEvy DATA
 0005:00002c34 0000000cH .pdata$_ZNSt3__116__next_hash_pow2B6v15007Ey DATA
 0005:00002c40 0000000cH .pdata$_ZNSt3__125__debug_db_invalidate_allB6v15007INS_12__hash_tableINS_17__hash_value_typeIPN6System7Typinfo9TTypeInfoEPSt9type_infoEENS_22__unordered_map_hasherIS6_S9_NS_4hashIS6_EENS_8equal_toIS6_EELb1EEENS_21__unordered_map_equalIS6_S9_SE_SC_Lb1EEENS_9allocatorIS9_EEEEEEvPT_ DATA
 0005:00002c4c 0000000cH .pdata$_ZNSt3__110unique_ptrIA_PNS_16__hash_node_baseIPNS_11__hash_nodeINS_17__hash_value_typeIPN6System7Typinfo9TTypeInfoEPSt9type_infoEEPvEEEENS_25__bucket_list_deallocatorINS_9allocatorISF_EEEEE11get_deleterB6v15007Ev DATA
 0005:00002c58 0000000cH .pdata$_ZNSt3__110unique_ptrIA_PNS_16__hash_node_baseIPNS_11__hash_nodeINS_17__hash_value_typeIPN6System7Typinfo9TTypeInfoEPSt9type_infoEEPvEEEENS_25__bucket_list_deallocatorINS_9allocatorISF_EEEEE5resetB6v15007IPSF_EENS_9enable_ifIXsr28_CheckArrayPointerConversionIT_EE5valueEvE4typeESP_ DATA
 0005:00002c64 0000000cH .pdata$_ZNSt3__116allocator_traitsINS_9allocatorIPNS_16__hash_node_baseIPNS_11__hash_nodeINS_17__hash_value_typeIPN6System7Typinfo9TTypeInfoEPSt9type_infoEEPvEEEEEEE8allocateB6v15007ERSH_y DATA
 0005:00002c70 0000000cH .pdata$_ZNSt3__19allocatorIPNS_16__hash_node_baseIPNS_11__hash_nodeINS_17__hash_value_typeIPN6System7Typinfo9TTypeInfoEPSt9type_infoEEPvEEEEE8allocateB6v15007Ey DATA
 0005:00002c7c 0000000cH .pdata$_ZNSt3__116allocator_traitsINS_9allocatorIPNS_16__hash_node_baseIPNS_11__hash_nodeINS_17__hash_value_typeIPN6System7Typinfo9TTypeInfoEPSt9type_infoEEPvEEEEEEE8max_sizeB6v15007ISH_vEEyRKSH_ DATA
 0005:00002c88 0000000cH .pdata$_ZNKSt3__19allocatorIPNS_16__hash_node_baseIPNS_11__hash_nodeINS_17__hash_value_typeIPN6System7Typinfo9TTypeInfoEPSt9type_infoEEPvEEEEE8max_sizeB6v15007Ev DATA
 0005:00002c94 0000000cH .pdata$_ZNSt3__112__libcpp_clzB6v15007Ey DATA
 0005:00002ca0 0000000cH .pdata$_ZNKSt3__117__compressed_pairIPNS_11__hash_nodeINS_17__hash_value_typeIPN6System7Typinfo9TTypeInfoEPSt9type_infoEEPvEENS_22__hash_node_destructorINS_9allocatorISB_EEEEE5firstB6v15007Ev DATA
 0005:00002cac 0000000cH .pdata$_ZNKSt3__122__compressed_pair_elemIPNS_11__hash_nodeINS_17__hash_value_typeIPN6System7Typinfo9TTypeInfoEPSt9type_infoEEPvEELi0ELb0EE5__getB6v15007Ev DATA
 0005:00002cb8 0000000cH .pdata$_ZNSt3__117__compressed_pairIPNS_11__hash_nodeINS_17__hash_value_typeIPN6System7Typinfo9TTypeInfoEPSt9type_infoEEPvEENS_22__hash_node_destructorINS_9allocatorISB_EEEEE5firstB6v15007Ev DATA
 0005:00002cc4 0000000cH .pdata$_ZNSt3__122__compressed_pair_elemIPNS_11__hash_nodeINS_17__hash_value_typeIPN6System7Typinfo9TTypeInfoEPSt9type_infoEEPvEELi0ELb0EE5__getB6v15007Ev DATA
 0005:00002cd0 0000000cH .pdata$_ZNSt3__110unique_ptrINS_11__hash_nodeINS_17__hash_value_typeIPN6System7Typinfo9TTypeInfoEPSt9type_infoEEPvEENS_22__hash_node_destructorINS_9allocatorISB_EEEEE5resetB6v15007EPSB_ DATA
 0005:00002cdc 0000000cH .pdata$_ZNSt3__122__hash_node_destructorINS_9allocatorINS_11__hash_nodeINS_17__hash_value_typeIPN6System7Typinfo9TTypeInfoEPSt9type_infoEEPvEEEEEclB6v15007EPSC_ DATA
 0005:00002ce8 0000000cH .pdata$_ZNSt3__15tupleIJRKPN6System7Typinfo9TTypeInfoEEEC2B6v15007INS_4_AndELi0EEES6_ DATA
 0005:00002cf4 0000000cH .pdata$_ZNSt3__112__tuple_implINS_15__tuple_indicesIJLy0EEEEJRKPN6System7Typinfo9TTypeInfoEEEC2B6v15007IJLy0EEJS8_EJEJEJS8_EEENS1_IJXspT_EEEENS_13__tuple_typesIJDpT0_EEENS1_IJXspT1_EEEENSC_IJDpT2_EEEDpOT3_ DATA
 0005:00002d00 0000000cH .pdata$_ZNSt3__112__tuple_leafILy0ERKPN6System7Typinfo9TTypeInfoELb0EEC2B6v15007IS6_vEEOT_ DATA
 0005:00002d0c 0000000cH .pdata$_ZNSt3__114pointer_traitsIPNS_17__hash_value_typeIPN6System7Typinfo9TTypeInfoEPSt9type_infoEEE10pointer_toB6v15007ERS8_ DATA
 0005:00002d18 0000054cH .pdata                  DATA
 0005:00003264 0000000cH .pdata$_ZN6System11WideCharLenIwEEiPKT_ DATA
 0005:00003270 0000000cH .pdata$_ZN6System11WideCharLenIDsEEiPKT_ DATA
 0005:0000327c 0000000cH .pdata$_ZN6System11AnsiStringTILt0EEC2EPKci DATA
 0005:00003288 000004e0H .pdata                  DATA
 0006:00000000 0000002cH .embtexi                DATA
 0007:00000000 00000008H .embti$x                DATA
 0007:00000008 00000088H .embti$y                DATA
 0007:00000090 00000008H .embti$z                DATA
 0008:00000000 0000002cH .embtini                DATA
 0009:00000000 00000108H .embtinit               DATA
 000a:00000000 00000008H .tls                    DATA
 000a:00000008 00000008H .tls$ZZZ                DATA
 000a:00000010 00000001H .tls$zzz                DATA
 000b:00000000 00000408H .rsrc$01                DATA
 000b:00000410 00020970H .rsrc$02                DATA

  Address         Publics by Value              Rva+Base               Lib:Object

 0000:00000000       .absolut                   0000000000000000     <absolute>
 0000:ffffffb0       vtAfterConstruction        00000000ffffffb0     <absolute>
 0000:ffffffb8       vtBeforeDestruction        00000000ffffffb8     <absolute>
 0000:ffffffd0       vtNewInstance              00000000ffffffd0     <absolute>
 0000:ffffffd8       vtFreeInstance             00000000ffffffd8     <absolute>
 0000:00000000       __ImageBase                0000000140000000     <linker-defined>
 0000:00000000       __ImageBase                0000000140000000     <linker-defined>
 0000:00000000       __ImageBase                0000000140000000     <linker-defined>
 0001:00000100       WinMainCRTStartup          0000000140001100     crt2u.o
 0001:00000350       mainCRTStartup             0000000140001350     crt2u.o
 0001:00000380       atexit                     0000000140001380     crt2u.o
 0001:00000620       __System__GetTls           0000000140001620     crtbegin.o
 0001:00000636       _ZN7Sysinit7_GetTlsEv      0000000140001636     crtbegin.o
 0001:00000650       .weak._ZN7Sysinit7_GetTlsEv.default 0000000140001650     sysinit.o
 0001:000006b0       _ZN7Sysinit17SetDliNotifyHook2EPFPv15dliNotificationP13DelayLoadInfoE 00000001400016b0     sysinit.o
 0001:000006c0       _ZN7Sysinit14DliNotifyHook2Ev 00000001400016c0     sysinit.o
 0001:000006d0       _ZN7Sysinit18SetDliFailureHook2EPFPv15dliNotificationP13DelayLoadInfoE 00000001400016d0     sysinit.o
 0001:000006e0       _ZN7Sysinit15DliFailureHook2Ev 00000001400016e0     sysinit.o
 0001:000006f0       _ZN7Sysinit17_DelayLoadHelper2ERPvS0_ 00000001400016f0     sysinit.o
 0001:00000700       _ZN7Sysinit21UnloadDelayLoadedDLL2EPc 0000000140001700     sysinit.o
 0001:00000710       _ZN7Sysinit20LoadAllImportsForDllEPc 0000000140001710     sysinit.o
 0001:00000720       _ZN7Sysinit7VclInitEbbyb   0000000140001720     sysinit.o
 0001:00000800       _ZN7Sysinit7VclExitEv      0000000140001800     sysinit.o
 0001:00000850       _ZN7Sysinit8_InitPkgEyiPv  0000000140001850     sysinit.o
 0001:000008d0       _ZN7Sysinit12_PackageLoadEPN6System16PackageInfoTableE 00000001400018d0     sysinit.o
 0001:000008f0       _ZN7Sysinit14_PackageUnloadEPN6System16PackageInfoTableE 00000001400018f0     sysinit.o
 0001:00000910       _ZN7Sysinit8_InitLibEPN6System12TInitContextEPNS0_16PackageInfoTableEyjPv 0000000140001910     sysinit.o
 0001:000009c0       _ZN7Sysinit8_InitExeEPv    00000001400019c0     sysinit.o
 0001:00000a50       _ZN7Sysinit18__delayLoadHelper2Ev 0000000140001a50     sysinit.o
 0001:00000d30       _ZN7Sysinit24__FUnloadDelayLoadedDLL2Ev 0000000140001d30     sysinit.o
 0001:000013e0       _ZN7Sysinit24__HrLoadAllImportsForDllEv 00000001400023e0     sysinit.o
 0001:00001870       _ZN7Sysinit12FinalizationEv 0000000140002870     sysinit.o
 0001:00001890       _ZN7Sysinit14initializationEv 0000000140002890     sysinit.o
 0001:00002220       _ZN16TAddComputerFormC3EPN6System7Classes10TComponentE 0000000140003220     AddComputer.o
 0001:000022a0       _ZN16TAddComputerForm13ButtonOkClickEPN6System7TObjectE 00000001400032a0     AddComputer.o
 0001:000024a0       _ZN16TAddComputerForm17ButtonCancelClickEPN6System7TObjectE 00000001400034a0     AddComputer.o
 0001:000024d0       _ZN3Vcl5Forms5TFormC3EPN6System7Classes10TComponentE 00000001400034d0     AddComputer.o
 0001:00002550       _ZNK6System13UnicodeString7IsEmptyEv 0000000140003550     AddComputer.o
 0001:00002570       _ZN16TAddComputerFormD0Ev  0000000140003570     AddComputer.o
 0001:000025c0       _ZN3Vcl5Forms5TFormC3EPN6System7Classes10TComponentEi 00000001400035c0     AddComputer.o
 0001:00002640       _ZN3Vcl5Forms5TFormC3EPN6System7Classes10TComponentEii 0000000140003640     AddComputer.o
 0001:000026e0       _ZN3Vcl5Forms5TFormD0Ev    00000001400036e0     AddComputer.o
 0001:00002730       _ZN9ComponentC2ENSt3__112basic_stringIcNS0_11char_traitsIcEENS0_9allocatorIcEEEEii 0000000140003730     Computer.o
 0001:00002780       _ZN9ComponentC1ENSt3__112basic_stringIcNS0_11char_traitsIcEENS0_9allocatorIcEEEEii 0000000140003780     Computer.o
 0001:000027b0       _ZNK9Component10SaveToFileERNSt3__114basic_ofstreamIcNS0_11char_traitsIcEEEE 00000001400037b0     Computer.o
 0001:00002850       _ZN9Component12LoadFromFileERNSt3__114basic_ifstreamIcNS0_11char_traitsIcEEEE 0000000140003850     Computer.o
 0001:000028b0       _ZN9Component7PowerOnEv    00000001400038b0     Computer.o
 0001:000028c0       _ZN9Component8PowerOffEv   00000001400038c0     Computer.o
 0001:000028d0       _ZNK9Component11IsPoweredOnEv 00000001400038d0     Computer.o
 0001:000028f0       _ZNK9Component11GetCpuUsageEv 00000001400038f0     Computer.o
 0001:00002900       _ZNK9Component11GetRamUsageEv 0000000140003900     Computer.o
 0001:00002910       _ZNK9Component7GetTypeEv   0000000140003910     Computer.o
 0001:00002940       _ZN8ComputerC2ERKNSt3__112basic_stringIcNS0_11char_traitsIcEENS0_9allocatorIcEEEES8_i 0000000140003940     Computer.o
 0001:00002a20       _ZN8ComputerC1ERKNSt3__112basic_stringIcNS0_11char_traitsIcEENS0_9allocatorIcEEEES8_i 0000000140003a20     Computer.o
 0001:00002a60       _ZNK8Computer10SaveToFileERNSt3__114basic_ofstreamIcNS0_11char_traitsIcEEEE 0000000140003a60     Computer.o
 0001:00002c00       _ZN8Computer12LoadFromFileERNSt3__114basic_ifstreamIcNS0_11char_traitsIcEEEE 0000000140003c00     Computer.o
 0001:00002dd0       _ZN8Computer7PowerOnEv     0000000140003dd0     Computer.o
 0001:00002de0       _ZN8Computer8PowerOffEv    0000000140003de0     Computer.o
 0001:00002df0       _ZNK8Computer11IsPoweredOnEv 0000000140003df0     Computer.o
 0001:00002e10       _ZN8Computer7ConnectEv     0000000140003e10     Computer.o
 0001:00002e20       _ZN8Computer10DisconnectEv 0000000140003e20     Computer.o
 0001:00002e30       _ZNK8Computer11IsConnectedEv 0000000140003e30     Computer.o
 0001:00002e50       _ZN8Computer7SetNameERKNSt3__112basic_stringIcNS0_11char_traitsIcEENS0_9allocatorIcEEEE 0000000140003e50     Computer.o
 0001:00002e80       _ZNK8Computer12GetIpAddressEv 0000000140003e80     Computer.o
 0001:00002ec0       _ZNK8Computer7GetNameEv    0000000140003ec0     Computer.o
 0001:00002f00       _ZNK8Computer11GetTotalRamEv 0000000140003f00     Computer.o
 0001:00002f10       _ZNK8Computer11GetCpuUsageEv 0000000140003f10     Computer.o
 0001:00002f20       _ZNK8Computer11GetRamUsageEv 0000000140003f20     Computer.o
 0001:00002f30       _ZN9Component22RandomlyFluctuateUsageEv 0000000140003f30     Computer.o
 0001:000030d0       _ZN8Computer11UpdateUsageEv 00000001400040d0     Computer.o
 0001:000030f0       _ZN8Computer14CalculateUsageEv 00000001400040f0     Computer.o
 0001:00003240       _ZN9Component20UpdateUsageComponentEv 0000000140004240     Computer.o
 0001:00003260       _ZNSt3__1lsINS_11char_traitsIcEEEERNS_13basic_ostreamIcT_EES6_PKc 0000000140004260     Computer.o
 0001:000032b0       _ZNSt3__1lsIcNS_11char_traitsIcEENS_9allocatorIcEEEERNS_13basic_ostreamIT_T0_EES9_RKNS_12basic_stringIS6_S7_T1_EE 00000001400042b0     Computer.o
 0001:00003300       _ZNSt3__1rsIcNS_11char_traitsIcEENS_9allocatorIcEEEERNS_13basic_istreamIT_T0_EES9_RNS_12basic_stringIS6_S7_T1_EE 0000000140004300     Computer.o
 0001:00003660       _ZNSt3__16vectorI9ComponentNS_9allocatorIS1_EEEC1B6v15007Ev 0000000140004660     Computer.o
 0001:00003680       _ZNSt3__16vectorI9ComponentNS_9allocatorIS1_EEED1B6v15007Ev 0000000140004680     Computer.o
 0001:000036a0       _ZNKSt3__16vectorI9ComponentNS_9allocatorIS1_EEE4sizeB6v15007Ev 00000001400046a0     Computer.o
 0001:000036c0       _ZNKSt3__16vectorI9ComponentNS_9allocatorIS1_EEE5beginB6v15007Ev 00000001400046c0     Computer.o
 0001:000036f0       _ZNKSt3__16vectorI9ComponentNS_9allocatorIS1_EEE3endB6v15007Ev 00000001400046f0     Computer.o
 0001:00003720       _ZNSt3__1neB6v15007IPK9ComponentEEbRKNS_11__wrap_iterIT_EES8_ 0000000140004720     Computer.o
 0001:00003750       _ZNKSt3__111__wrap_iterIPK9ComponentEdeB6v15007Ev 0000000140004750     Computer.o
 0001:00003760       _ZNSt3__111__wrap_iterIPK9ComponentEppB6v15007Ev 0000000140004760     Computer.o
 0001:00003780       _ZNSt3__113basic_istreamIcNS_11char_traitsIcEEErsB6v15007EPFRS3_S4_E 0000000140004780     Computer.o
 0001:000037a0       _ZNSt3__12wsIcNS_11char_traitsIcEEEERNS_13basic_istreamIT_T0_EES7_ 00000001400047a0     Computer.o
 0001:00003a10       _ZNSt3__17getlineB6v15007IcNS_11char_traitsIcEENS_9allocatorIcEEEERNS_13basic_istreamIT_T0_EES9_RNS_12basic_stringIS6_S7_T1_EE 0000000140004a10     Computer.o
 0001:00003a60       _ZNSt3__16vectorI9ComponentNS_9allocatorIS1_EEE5clearB6v15007Ev 0000000140004a60     Computer.o
 0001:00003ac0       _ZNSt3__112basic_stringIcNS_11char_traitsIcEENS_9allocatorIcEEEC1B6v15007IDnEEPKc 0000000140004ac0     Computer.o
 0001:00003af0       _ZNSt3__16vectorI9ComponentNS_9allocatorIS1_EEE9push_backB6v15007ERKS1_ 0000000140004af0     Computer.o
 0001:00003b50       _ZN9ComponentD1Ev          0000000140004b50     Computer.o
 0001:00003b70       _ZNSt3__16vectorI9ComponentNS_9allocatorIS1_EEE5beginB6v15007Ev 0000000140004b70     Computer.o
 0001:00003ba0       _ZNSt3__16vectorI9ComponentNS_9allocatorIS1_EEE3endB6v15007Ev 0000000140004ba0     Computer.o
 0001:00003bd0       _ZNSt3__1neB6v15007IP9ComponentEEbRKNS_11__wrap_iterIT_EES7_ 0000000140004bd0     Computer.o
 0001:00003c00       _ZNKSt3__111__wrap_iterIP9ComponentEdeB6v15007Ev 0000000140004c00     Computer.o
 0001:00003c10       _ZNSt3__111__wrap_iterIP9ComponentEppB6v15007Ev 0000000140004c10     Computer.o
 0001:00003c30       _ZNSt3__1eqB6v15007IPK9ComponentEEbRKNS_11__wrap_iterIT_EES8_ 0000000140004c30     Computer.o
 0001:00003c70       _ZNKSt3__111__wrap_iterIPK9ComponentE4baseB6v15007Ev 0000000140004c70     Computer.o
 0001:00003c80       _ZN9ComponentD2Ev          0000000140004c80     Computer.o
 0001:00003ca0       _ZNSt3__1eqB6v15007IP9ComponentEEbRKNS_11__wrap_iterIT_EES7_ 0000000140004ca0     Computer.o
 0001:00003ce0       _ZNKSt3__111__wrap_iterIP9ComponentE4baseB6v15007Ev 0000000140004ce0     Computer.o
 0001:00003cf0       _ZNSt3__124__put_character_sequenceIcNS_11char_traitsIcEEEERNS_13basic_ostreamIT_T0_EES7_PKS4_y 0000000140004cf0     Computer.o
 0001:00003f60       _ZNSt3__111char_traitsIcE6lengthEPKc 0000000140004f60     Computer.o
 0001:00003f80       _ZNSt3__113basic_ostreamIcNS_11char_traitsIcEEE6sentryC1ERS3_ 0000000140004f80     Computer.o
 0001:00003fb0       _ZNKSt3__113basic_ostreamIcNS_11char_traitsIcEEE6sentrycvbB6v15007Ev 0000000140004fb0     Computer.o
 0001:00003fd0       _ZNSt3__116__pad_and_outputIcNS_11char_traitsIcEEEENS_19ostreambuf_iteratorIT_T0_EES6_PKS4_S8_S8_RNS_8ios_baseES4_ 0000000140004fd0     Computer.o
 0001:00004280       _ZNSt3__119ostreambuf_iteratorIcNS_11char_traitsIcEEEC1B6v15007ERNS_13basic_ostreamIcS2_EE 0000000140005280     Computer.o
 0001:000042b0       _ZNKSt3__18ios_base5flagsB6v15007Ev 00000001400052b0     Computer.o
 0001:000042c0       _ZNKSt3__19basic_iosIcNS_11char_traitsIcEEE4fillB6v15007Ev 00000001400052c0     Computer.o
 0001:00004330       _ZNKSt3__119ostreambuf_iteratorIcNS_11char_traitsIcEEE6failedB6v15007Ev 0000000140005330     Computer.o
 0001:00004350       _ZNSt3__19basic_iosIcNS_11char_traitsIcEEE8setstateB6v15007Ej 0000000140005350     Computer.o
 0001:00004380       _ZNSt3__113basic_ostreamIcNS_11char_traitsIcEEE6sentryD1Ev 0000000140005380     Computer.o
 0001:000043a0       __clang_call_terminate     00000001400053a0     Computer.o
 0001:000043b0       _ZNSt3__113basic_ostreamIcNS_11char_traitsIcEEE6sentryC2ERS3_ 00000001400053b0     Computer.o
 0001:00004440       _ZNKSt3__19basic_iosIcNS_11char_traitsIcEEE4goodB6v15007Ev 0000000140005440     Computer.o
 0001:00004460       _ZNKSt3__19basic_iosIcNS_11char_traitsIcEEE3tieB6v15007Ev 0000000140005460     Computer.o
 0001:00004480       _ZNKSt3__18ios_base4goodB6v15007Ev 0000000140005480     Computer.o
 0001:000044a0       _ZNKSt3__18ios_base5widthB6v15007Ev 00000001400054a0     Computer.o
 0001:000044b0       _ZNSt3__115basic_streambufIcNS_11char_traitsIcEEE5sputnB6v15007EPKcx 00000001400054b0     Computer.o
 0001:000044e0       _ZNSt3__112basic_stringIcNS_11char_traitsIcEENS_9allocatorIcEEEC1B6v15007Eyc 00000001400054e0     Computer.o
 0001:00004510       _ZNSt3__112basic_stringIcNS_11char_traitsIcEENS_9allocatorIcEEE4dataB6v15007Ev 0000000140005510     Computer.o
 0001:00004540       _ZNSt3__18ios_base5widthB6v15007Ex 0000000140005540     Computer.o
 0001:00004570       _ZNSt3__112basic_stringIcNS_11char_traitsIcEENS_9allocatorIcEEEC2B6v15007Eyc 0000000140005570     Computer.o
 0001:000045c0       _ZNSt3__117__compressed_pairINS_12basic_stringIcNS_11char_traitsIcEENS_9allocatorIcEEE5__repES5_EC1B6v15007INS_18__default_init_tagESA_EEOT_OT0_ 00000001400055c0     Computer.o
 0001:000045f0       _ZNSt3__119__debug_db_insert_cB6v15007INS_12basic_stringIcNS_11char_traitsIcEENS_9allocatorIcEEEEEEvPT_ 00000001400055f0     Computer.o
 0001:00004600       _ZNSt3__117__compressed_pairINS_12basic_stringIcNS_11char_traitsIcEENS_9allocatorIcEEE5__repES5_EC2B6v15007INS_18__default_init_tagESA_EEOT_OT0_ 0000000140005600     Computer.o
 0001:00004640       _ZNSt3__122__compressed_pair_elemINS_12basic_stringIcNS_11char_traitsIcEENS_9allocatorIcEEE5__repELi0ELb0EEC2B6v15007ENS_18__default_init_tagE 0000000140005640     Computer.o
 0001:00004660       _ZNSt3__122__compressed_pair_elemINS_9allocatorIcEELi1ELb1EEC2B6v15007ENS_18__default_init_tagE 0000000140005660     Computer.o
 0001:00004680       _ZNSt3__19allocatorIcEC2B6v15007Ev 0000000140005680     Computer.o
 0001:000046a0       _ZNSt3__116__non_trivial_ifILb1ENS_9allocatorIcEEEC2B6v15007Ev 00000001400056a0     Computer.o
 0001:000046b0       _ZNSt3__112__to_addressB6v15007IcEEPT_S2_ 00000001400056b0     Computer.o
 0001:000046c0       _ZNSt3__112basic_stringIcNS_11char_traitsIcEENS_9allocatorIcEEE13__get_pointerB6v15007Ev 00000001400056c0     Computer.o
 0001:00004720       _ZNKSt3__112basic_stringIcNS_11char_traitsIcEENS_9allocatorIcEEE9__is_longB6v15007Ev 0000000140005720     Computer.o
 0001:00004750       _ZNSt3__112basic_stringIcNS_11char_traitsIcEENS_9allocatorIcEEE18__get_long_pointerB6v15007Ev 0000000140005750     Computer.o
 0001:00004770       _ZNSt3__112basic_stringIcNS_11char_traitsIcEENS_9allocatorIcEEE19__get_short_pointerB6v15007Ev 0000000140005770     Computer.o
 0001:000047a0       _ZNKSt3__117__compressed_pairINS_12basic_stringIcNS_11char_traitsIcEENS_9allocatorIcEEE5__repES5_E5firstB6v15007Ev 00000001400057a0     Computer.o
 0001:000047c0       _ZNKSt3__122__compressed_pair_elemINS_12basic_stringIcNS_11char_traitsIcEENS_9allocatorIcEEE5__repELi0ELb0EE5__getB6v15007Ev 00000001400057c0     Computer.o
 0001:000047d0       _ZNSt3__117__compressed_pairINS_12basic_stringIcNS_11char_traitsIcEENS_9allocatorIcEEE5__repES5_E5firstB6v15007Ev 00000001400057d0     Computer.o
 0001:000047f0       _ZNSt3__122__compressed_pair_elemINS_12basic_stringIcNS_11char_traitsIcEENS_9allocatorIcEEE5__repELi0ELb0EE5__getB6v15007Ev 00000001400057f0     Computer.o
 0001:00004800       _ZNSt3__114pointer_traitsIPcE10pointer_toB6v15007ERc 0000000140005800     Computer.o
 0001:00004810       _ZNSt3__119ostreambuf_iteratorIcNS_11char_traitsIcEEEC2B6v15007ERNS_13basic_ostreamIcS2_EE 0000000140005810     Computer.o
 0001:00004870       _ZNKSt3__19basic_iosIcNS_11char_traitsIcEEE5rdbufB6v15007Ev 0000000140005870     Computer.o
 0001:00004890       _ZNKSt3__18ios_base5rdbufB6v15007Ev 0000000140005890     Computer.o
 0001:000048a0       _ZNSt3__111char_traitsIcE11eq_int_typeEii 00000001400058a0     Computer.o
 0001:000048c0       _ZNSt3__111char_traitsIcE3eofEv 00000001400058c0     Computer.o
 0001:000048d0       _ZNKSt3__19basic_iosIcNS_11char_traitsIcEEE5widenB6v15007Ec 00000001400058d0     Computer.o
 0001:00004960       _ZNSt3__19use_facetB6v15007INS_5ctypeIcEEEERKT_RKNS_6localeE 0000000140005960     Computer.o
 0001:00004980       _ZNKSt3__15ctypeIcE5widenB6v15007Ec 0000000140005980     Computer.o
 0001:000049b0       _ZNSt3__18ios_base8setstateB6v15007Ej 00000001400059b0     Computer.o
 0001:000049e0       _ZNSt3__113basic_ostreamIcNS_11char_traitsIcEEE6sentryD2Ev 00000001400059e0     Computer.o
 0001:00004b30       _ZNSt3__115basic_streambufIcNS_11char_traitsIcEEE7pubsyncB6v15007Ev 0000000140005b30     Computer.o
 0001:00004b50       _ZNKSt3__112basic_stringIcNS_11char_traitsIcEENS_9allocatorIcEEE4dataB6v15007Ev 0000000140005b50     Computer.o
 0001:00004b80       _ZNKSt3__112basic_stringIcNS_11char_traitsIcEENS_9allocatorIcEEE4sizeB6v15007Ev 0000000140005b80     Computer.o
 0001:00004be0       _ZNSt3__112__to_addressB6v15007IKcEEPT_S3_ 0000000140005be0     Computer.o
 0001:00004bf0       _ZNKSt3__112basic_stringIcNS_11char_traitsIcEENS_9allocatorIcEEE13__get_pointerB6v15007Ev 0000000140005bf0     Computer.o
 0001:00004c50       _ZNKSt3__112basic_stringIcNS_11char_traitsIcEENS_9allocatorIcEEE18__get_long_pointerB6v15007Ev 0000000140005c50     Computer.o
 0001:00004c70       _ZNKSt3__112basic_stringIcNS_11char_traitsIcEENS_9allocatorIcEEE19__get_short_pointerB6v15007Ev 0000000140005c70     Computer.o
 0001:00004ca0       _ZNSt3__114pointer_traitsIPKcE10pointer_toB6v15007ERS1_ 0000000140005ca0     Computer.o
 0001:00004cb0       _ZNKSt3__112basic_stringIcNS_11char_traitsIcEENS_9allocatorIcEEE15__get_long_sizeB6v15007Ev 0000000140005cb0     Computer.o
 0001:00004cd0       _ZNKSt3__112basic_stringIcNS_11char_traitsIcEENS_9allocatorIcEEE16__get_short_sizeB6v15007Ev 0000000140005cd0     Computer.o
 0001:00004cf0       _ZNSt3__113basic_istreamIcNS_11char_traitsIcEEE6sentryC1ERS3_b 0000000140005cf0     Computer.o
 0001:00004d30       _ZNKSt3__113basic_istreamIcNS_11char_traitsIcEEE6sentrycvbB6v15007Ev 0000000140005d30     Computer.o
 0001:00004d50       _ZNSt3__112basic_stringIcNS_11char_traitsIcEENS_9allocatorIcEEE5clearB6v15007Ev 0000000140005d50     Computer.o
 0001:00004df0       _ZNKSt3__112basic_stringIcNS_11char_traitsIcEENS_9allocatorIcEEE8max_sizeB6v15007Ev 0000000140005df0     Computer.o
 0001:00004e90       _ZNSt3__114numeric_limitsIxE3maxB6v15007Ev 0000000140005e90     Computer.o
 0001:00004ea0       _ZNSt3__115basic_streambufIcNS_11char_traitsIcEEE5sgetcB6v15007Ev 0000000140005ea0     Computer.o
 0001:00004f00       _ZNSt3__111char_traitsIcE12to_char_typeEi 0000000140005f00     Computer.o
 0001:00004f10       _ZNKSt3__15ctypeIcE2isB6v15007Etc 0000000140005f10     Computer.o
 0001:00004f90       _ZNSt3__115basic_streambufIcNS_11char_traitsIcEEE6sbumpcB6v15007Ev 0000000140005f90     Computer.o
 0001:00004ff0       _ZNSt3__18ios_base18__setstate_nothrowB6v15007Ej 0000000140005ff0     Computer.o
 0001:00005040       _ZNKSt3__19basic_iosIcNS_11char_traitsIcEEE10exceptionsB6v15007Ev 0000000140006040     Computer.o
 0001:00005060       _ZNSt3__113basic_istreamIcNS_11char_traitsIcEEE6sentryC2ERS3_b 0000000140006060     Computer.o
 0001:00005270       _ZNSt3__119istreambuf_iteratorIcNS_11char_traitsIcEEEC1B6v15007ERNS_13basic_istreamIcS2_EE 0000000140006270     Computer.o
 0001:000052a0       _ZNSt3__119istreambuf_iteratorIcNS_11char_traitsIcEEEC1B6v15007Ev 00000001400062a0     Computer.o
 0001:000052c0       _ZNSt3__1neB6v15007IcNS_11char_traitsIcEEEEbRKNS_19istreambuf_iteratorIT_T0_EES8_ 00000001400062c0     Computer.o
 0001:000052f0       _ZNKSt3__119istreambuf_iteratorIcNS_11char_traitsIcEEEdeB6v15007Ev 00000001400062f0     Computer.o
 0001:00005310       _ZNSt3__119istreambuf_iteratorIcNS_11char_traitsIcEEEppB6v15007Ev 0000000140006310     Computer.o
 0001:00005340       _ZNSt3__1eqB6v15007IcNS_11char_traitsIcEEEEbRKNS_19istreambuf_iteratorIT_T0_EES8_ 0000000140006340     Computer.o
 0001:00005370       _ZNSt3__119istreambuf_iteratorIcNS_11char_traitsIcEEEC2B6v15007ERNS_13basic_istreamIcS2_EE 0000000140006370     Computer.o
 0001:000053d0       _ZNSt3__119istreambuf_iteratorIcNS_11char_traitsIcEEEC2B6v15007Ev 00000001400063d0     Computer.o
 0001:000053f0       _ZNKSt3__119istreambuf_iteratorIcNS_11char_traitsIcEEE5equalB6v15007ERKS3_ 00000001400063f0     Computer.o
 0001:00005440       _ZNKSt3__119istreambuf_iteratorIcNS_11char_traitsIcEEE14__test_for_eofB6v15007Ev 0000000140006440     Computer.o
 0001:000054b0       _ZNSt3__125__debug_db_invalidate_allB6v15007INS_12basic_stringIcNS_11char_traitsIcEENS_9allocatorIcEEEEEEvPT_ 00000001400064b0     Computer.o
 0001:000054c0       _ZNSt3__111char_traitsIcE6assignERcRKc 00000001400064c0     Computer.o
 0001:000054e0       _ZNSt3__112basic_stringIcNS_11char_traitsIcEENS_9allocatorIcEEE15__set_long_sizeB6v15007Ey 00000001400064e0     Computer.o
 0001:00005510       _ZNSt3__112basic_stringIcNS_11char_traitsIcEENS_9allocatorIcEEE16__set_short_sizeB6v15007Ey 0000000140006510     Computer.o
 0001:00005570       _ZNSt3__116allocator_traitsINS_9allocatorIcEEE8max_sizeB6v15007IS2_vEEyRKS2_ 0000000140006570     Computer.o
 0001:00005590       _ZNKSt3__112basic_stringIcNS_11char_traitsIcEENS_9allocatorIcEEE7__allocB6v15007Ev 0000000140006590     Computer.o
 0001:000055b0       _ZNSt3__114numeric_limitsIyE3maxB6v15007Ev 00000001400065b0     Computer.o
 0001:000055c0       _ZNKSt3__19allocatorIcE8max_sizeB6v15007Ev 00000001400065c0     Computer.o
 0001:000055d0       _ZNKSt3__117__compressed_pairINS_12basic_stringIcNS_11char_traitsIcEENS_9allocatorIcEEE5__repES5_E6secondB6v15007Ev 00000001400065d0     Computer.o
 0001:000055f0       _ZNKSt3__122__compressed_pair_elemINS_9allocatorIcEELi1ELb1EE5__getB6v15007Ev 00000001400065f0     Computer.o
 0001:00005600       _ZNSt3__123__libcpp_numeric_limitsIyLb1EE3maxB6v15007Ev 0000000140006600     Computer.o
 0001:00005610       _ZNSt3__123__libcpp_numeric_limitsIxLb1EE3maxB6v15007Ev 0000000140006610     Computer.o
 0001:00005620       _ZNSt3__111char_traitsIcE11to_int_typeEc 0000000140006620     Computer.o
 0001:00005630       _ZNKSt3__18ios_base10exceptionsB6v15007Ev 0000000140006630     Computer.o
 0001:00005640       _ZNSt3__16vectorI9ComponentNS_9allocatorIS1_EEEC2B6v15007Ev 0000000140006640     Computer.o
 0001:000056a0       _ZNSt3__117__compressed_pairIP9ComponentNS_9allocatorIS1_EEEC1B6v15007IDnNS_18__default_init_tagEEEOT_OT0_ 00000001400066a0     Computer.o
 0001:000056d0       _ZNSt3__119__debug_db_insert_cB6v15007INS_6vectorI9ComponentNS_9allocatorIS2_EEEEEEvPT_ 00000001400066d0     Computer.o
 0001:000056e0       _ZNSt3__117__compressed_pairIP9ComponentNS_9allocatorIS1_EEEC2B6v15007IDnNS_18__default_init_tagEEEOT_OT0_ 00000001400066e0     Computer.o
 0001:00005720       _ZNSt3__122__compressed_pair_elemIP9ComponentLi0ELb0EEC2B6v15007IDnvEEOT_ 0000000140006720     Computer.o
 0001:00005740       _ZNSt3__122__compressed_pair_elemINS_9allocatorI9ComponentEELi1ELb1EEC2B6v15007ENS_18__default_init_tagE 0000000140006740     Computer.o
 0001:00005760       _ZNSt3__19allocatorI9ComponentEC2B6v15007Ev 0000000140006760     Computer.o
 0001:00005780       _ZNSt3__116__non_trivial_ifILb1ENS_9allocatorI9ComponentEEEC2B6v15007Ev 0000000140006780     Computer.o
 0001:00005790       _ZNSt3__16vectorI9ComponentNS_9allocatorIS1_EEED2B6v15007Ev 0000000140006790     Computer.o
 0001:000057d0       _ZNSt3__16vectorI9ComponentNS_9allocatorIS1_EEE16__destroy_vectorC1ERS4_ 00000001400067d0     Computer.o
 0001:00005800       _ZNSt3__16vectorI9ComponentNS_9allocatorIS1_EEE16__destroy_vectorclB6v15007Ev 0000000140006800     Computer.o
 0001:00005890       _ZNSt3__16vectorI9ComponentNS_9allocatorIS1_EEE16__destroy_vectorC2ERS4_ 0000000140006890     Computer.o
 0001:000058b0       _ZNKSt3__16vectorI9ComponentNS_9allocatorIS1_EEE17__annotate_deleteB6v15007Ev 00000001400068b0     Computer.o
 0001:00005980       _ZNSt3__118__debug_db_erase_cB6v15007INS_6vectorI9ComponentNS_9allocatorIS2_EEEEEEvPT_ 0000000140006980     Computer.o
 0001:00005990       _ZNSt3__16vectorI9ComponentNS_9allocatorIS1_EEE7__clearB6v15007Ev 0000000140006990     Computer.o
 0001:000059b0       _ZNSt3__116allocator_traitsINS_9allocatorI9ComponentEEE10deallocateB6v15007ERS3_PS2_y 00000001400069b0     Computer.o
 0001:000059e0       _ZNSt3__16vectorI9ComponentNS_9allocatorIS1_EEE7__allocB6v15007Ev 00000001400069e0     Computer.o
 0001:00005a00       _ZNKSt3__16vectorI9ComponentNS_9allocatorIS1_EEE8capacityB6v15007Ev 0000000140006a00     Computer.o
 0001:00005a40       _ZNKSt3__16vectorI9ComponentNS_9allocatorIS1_EEE31__annotate_contiguous_containerB6v15007EPKvS6_S6_S6_ 0000000140006a40     Computer.o
 0001:00005a70       _ZNKSt3__16vectorI9ComponentNS_9allocatorIS1_EEE4dataB6v15007Ev 0000000140006a70     Computer.o
 0001:00005a90       _ZNSt3__112__to_addressB6v15007I9ComponentEEPT_S3_ 0000000140006a90     Computer.o
 0001:00005aa0       _ZNSt3__16vectorI9ComponentNS_9allocatorIS1_EEE22__base_destruct_at_endB6v15007EPS1_ 0000000140006aa0     Computer.o
 0001:00005b30       _ZNSt3__116allocator_traitsINS_9allocatorI9ComponentEEE7destroyB6v15007IS2_vEEvRS3_PT_ 0000000140006b30     Computer.o
 0001:00005b60       _ZNSt3__19allocatorI9ComponentE7destroyB6v15007EPS1_ 0000000140006b60     Computer.o
 0001:00005b80       _ZNSt3__19allocatorI9ComponentE10deallocateB6v15007EPS1_y 0000000140006b80     Computer.o
 0001:00005bd0       _ZNSt3__119__libcpp_deallocateB6v15007EPvyy 0000000140006bd0     Computer.o
 0001:00005c40       _ZNSt3__124__is_overaligned_for_newB6v15007Ey 0000000140006c40     Computer.o
 0001:00005c60       _ZNSt3__127__do_deallocate_handle_sizeB6v15007IJSt11align_val_tEEEvPvyDpT_ 0000000140006c60     Computer.o
 0001:00005c90       _ZNSt3__127__do_deallocate_handle_sizeB6v15007IJEEEvPvyDpT_ 0000000140006c90     Computer.o
 0001:00005cb0       _ZNSt3__124__libcpp_operator_deleteB6v15007IJPvSt11align_val_tEEEvDpT_ 0000000140006cb0     Computer.o
 0001:00005ce0       _ZNSt3__124__libcpp_operator_deleteB6v15007IJPvEEEvDpT_ 0000000140006ce0     Computer.o
 0001:00005d00       _ZNSt3__117__compressed_pairIP9ComponentNS_9allocatorIS1_EEE6secondB6v15007Ev 0000000140006d00     Computer.o
 0001:00005d20       _ZNSt3__122__compressed_pair_elemINS_9allocatorI9ComponentEELi1ELb1EE5__getB6v15007Ev 0000000140006d20     Computer.o
 0001:00005d30       _ZNKSt3__16vectorI9ComponentNS_9allocatorIS1_EEE9__end_capB6v15007Ev 0000000140006d30     Computer.o
 0001:00005d50       _ZNKSt3__117__compressed_pairIP9ComponentNS_9allocatorIS1_EEE5firstB6v15007Ev 0000000140006d50     Computer.o
 0001:00005d70       _ZNKSt3__122__compressed_pair_elemIP9ComponentLi0ELb0EE5__getB6v15007Ev 0000000140006d70     Computer.o
 0001:00005d80       _ZNSt3__111__wrap_iterIPK9ComponentEC1B6v15007EPKvS3_ 0000000140006d80     Computer.o
 0001:00005db0       _ZNSt3__111__wrap_iterIPK9ComponentEC2B6v15007EPKvS3_ 0000000140006db0     Computer.o
 0001:00005de0       _ZNSt3__17getlineIcNS_11char_traitsIcEENS_9allocatorIcEEEERNS_13basic_istreamIT_T0_EES9_RNS_12basic_stringIS6_S7_T1_EES6_ 0000000140006de0     Computer.o
 0001:00006040       _ZNSt3__111char_traitsIcE2eqEcc 0000000140007040     Computer.o
 0001:00006060       _ZNKSt3__16vectorI9ComponentNS_9allocatorIS1_EEE17__annotate_shrinkB6v15007Ey 0000000140007060     Computer.o
 0001:00006120       _ZNSt3__125__debug_db_invalidate_allB6v15007INS_6vectorI9ComponentNS_9allocatorIS2_EEEEEEvPT_ 0000000140007120     Computer.o
 0001:00006130       _ZNSt3__112basic_stringIcNS_11char_traitsIcEENS_9allocatorIcEEEC2B6v15007IDnEEPKc 0000000140007130     Computer.o
 0001:00006190       _ZNSt3__16vectorI9ComponentNS_9allocatorIS1_EEE9__end_capB6v15007Ev 0000000140007190     Computer.o
 0001:000061b0       _ZNSt3__16vectorI9ComponentNS_9allocatorIS1_EEE22__construct_one_at_endB6v15007IJRKS1_EEEvDpOT_ 00000001400071b0     Computer.o
 0001:00006250       _ZNSt3__16vectorI9ComponentNS_9allocatorIS1_EEE21__push_back_slow_pathIRKS1_EEvOT_ 0000000140007250     Computer.o
 0001:00006340       _ZNSt3__117__compressed_pairIP9ComponentNS_9allocatorIS1_EEE5firstB6v15007Ev 0000000140007340     Computer.o
 0001:00006360       _ZNSt3__122__compressed_pair_elemIP9ComponentLi0ELb0EE5__getB6v15007Ev 0000000140007360     Computer.o
 0001:00006370       _ZNSt3__16vectorI9ComponentNS_9allocatorIS1_EEE21_ConstructTransactionC1ERS4_y 0000000140007370     Computer.o
 0001:000063a0       _ZNSt3__116allocator_traitsINS_9allocatorI9ComponentEEE9constructB6v15007IS2_JRKS2_EvEEvRS3_PT_DpOT0_ 00000001400073a0     Computer.o
 0001:000063d0       _ZNSt3__16vectorI9ComponentNS_9allocatorIS1_EEE21_ConstructTransactionD1Ev 00000001400073d0     Computer.o
 0001:000063f0       _ZNSt3__16vectorI9ComponentNS_9allocatorIS1_EEE21_ConstructTransactionC2ERS4_y 00000001400073f0     Computer.o
 0001:00006440       _ZNSt3__19allocatorI9ComponentE9constructB6v15007IS1_JRKS1_EEEvPT_DpOT0_ 0000000140007440     Computer.o
 0001:00006470       _ZN9ComponentC1ERKS_       0000000140007470     Computer.o
 0001:000064a0       _ZN9ComponentC2ERKS_       00000001400074a0     Computer.o
 0001:000064f0       _ZNSt3__16vectorI9ComponentNS_9allocatorIS1_EEE21_ConstructTransactionD2Ev 00000001400074f0     Computer.o
 0001:00006510       _ZNKSt3__16vectorI9ComponentNS_9allocatorIS1_EEE11__recommendB6v15007Ey 0000000140007510     Computer.o
 0001:000065b0       _ZNSt3__114__split_bufferI9ComponentRNS_9allocatorIS1_EEEC1EyyS4_ 00000001400075b0     Computer.o
 0001:000065f0       _ZNSt3__16vectorI9ComponentNS_9allocatorIS1_EEE26__swap_out_circular_bufferERNS_14__split_bufferIS1_RS3_EE 00000001400075f0     Computer.o
 0001:00006740       _ZNSt3__114__split_bufferI9ComponentRNS_9allocatorIS1_EEED1Ev 0000000140007740     Computer.o
 0001:00006760       _ZNKSt3__16vectorI9ComponentNS_9allocatorIS1_EEE8max_sizeEv 0000000140007760     Computer.o
 0001:000067c0       _ZNKSt3__16vectorI9ComponentNS_9allocatorIS1_EEE20__throw_length_errorB6v15007Ev 00000001400077c0     Computer.o
 0001:000067e0       _ZNSt3__13maxB6v15007IyEERKT_S3_S3_ 00000001400077e0     Computer.o
 0001:00006810       _ZNSt3__13minB6v15007IyEERKT_S3_S3_ 0000000140007810     Computer.o
 0001:00006840       _ZNSt3__116allocator_traitsINS_9allocatorI9ComponentEEE8max_sizeB6v15007IS3_vEEyRKS3_ 0000000140007840     Computer.o
 0001:00006860       _ZNKSt3__16vectorI9ComponentNS_9allocatorIS1_EEE7__allocB6v15007Ev 0000000140007860     Computer.o
 0001:00006880       _ZNSt3__13minB6v15007IyNS_6__lessIyyEEEERKT_S5_S5_T0_ 0000000140007880     Computer.o
 0001:000068e0       _ZNKSt3__16__lessIyyEclB6v15007ERKyS3_ 00000001400078e0     Computer.o
 0001:00006910       _ZNKSt3__19allocatorI9ComponentE8max_sizeB6v15007Ev 0000000140007910     Computer.o
 0001:00006930       _ZNKSt3__117__compressed_pairIP9ComponentNS_9allocatorIS1_EEE6secondB6v15007Ev 0000000140007930     Computer.o
 0001:00006950       _ZNKSt3__122__compressed_pair_elemINS_9allocatorI9ComponentEELi1ELb1EE5__getB6v15007Ev 0000000140007950     Computer.o
 0001:00006960       _ZNSt3__120__throw_length_errorB6v15007EPKc 0000000140007960     Computer.o
 0001:000069d0       _ZNSt12length_errorC1B6v15007EPKc 00000001400079d0     Computer.o
 0001:00006a00       _ZNSt12length_errorC2B6v15007EPKc 0000000140007a00     Computer.o
 0001:00006a40       _ZNSt3__13maxB6v15007IyNS_6__lessIyyEEEERKT_S5_S5_T0_ 0000000140007a40     Computer.o
 0001:00006aa0       _ZNSt3__114__split_bufferI9ComponentRNS_9allocatorIS1_EEEC2EyyS4_ 0000000140007aa0     Computer.o
 0001:00006b70       _ZNSt3__117__compressed_pairIP9ComponentRNS_9allocatorIS1_EEEC1B6v15007IDnS5_EEOT_OT0_ 0000000140007b70     Computer.o
 0001:00006ba0       _ZNSt3__119__allocate_at_leastB6v15007INS_9allocatorI9ComponentEEEENS_19__allocation_resultINS_16allocator_traitsIT_E7pointerEEERS6_y 0000000140007ba0     Computer.o
 0001:00006bf0       _ZNSt3__114__split_bufferI9ComponentRNS_9allocatorIS1_EEE7__allocB6v15007Ev 0000000140007bf0     Computer.o
 0001:00006c10       _ZNSt3__114__split_bufferI9ComponentRNS_9allocatorIS1_EEE9__end_capB6v15007Ev 0000000140007c10     Computer.o
 0001:00006c30       _ZNSt3__117__compressed_pairIP9ComponentRNS_9allocatorIS1_EEEC2B6v15007IDnS5_EEOT_OT0_ 0000000140007c30     Computer.o
 0001:00006c70       _ZNSt3__122__compressed_pair_elemIRNS_9allocatorI9ComponentEELi1ELb0EEC2B6v15007IS4_vEEOT_ 0000000140007c70     Computer.o
 0001:00006c90       _ZNSt3__19allocatorI9ComponentE8allocateB6v15007Ey 0000000140007c90     Computer.o
 0001:00006ce0       _ZSt28__throw_bad_array_new_lengthB6v15007v 0000000140007ce0     Computer.o
 0001:00006d20       _ZNSt3__117__libcpp_allocateB6v15007Eyy 0000000140007d20     Computer.o
 0001:00006d90       _ZNSt3__121__libcpp_operator_newB6v15007IJySt11align_val_tEEEPvDpT_ 0000000140007d90     Computer.o
 0001:00006dc0       _ZNSt3__121__libcpp_operator_newB6v15007IJyEEEPvDpT_ 0000000140007dc0     Computer.o
 0001:00006de0       _ZNSt3__117__compressed_pairIP9ComponentRNS_9allocatorIS1_EEE6secondB6v15007Ev 0000000140007de0     Computer.o
 0001:00006e00       _ZNSt3__122__compressed_pair_elemIRNS_9allocatorI9ComponentEELi1ELb0EE5__getB6v15007Ev 0000000140007e00     Computer.o
 0001:00006e10       _ZNSt3__117__compressed_pairIP9ComponentRNS_9allocatorIS1_EEE5firstB6v15007Ev 0000000140007e10     Computer.o
 0001:00006e30       _ZNSt3__142__uninitialized_allocator_move_if_noexceptB6v15007INS_9allocatorI9ComponentEENS_16reverse_iteratorIPS2_EES6_S6_EET2_RT_T0_T1_S7_ 0000000140007e30     Computer.o
 0001:00006fe0       _ZNSt3__116reverse_iteratorIP9ComponentEC1B6v15007ES2_ 0000000140007fe0     Computer.o
 0001:00007010       _ZNKSt3__116reverse_iteratorIP9ComponentE4baseB6v15007Ev 0000000140008010     Computer.o
 0001:00007020       _ZNSt3__14swapB6v15007IP9ComponentEENS_9enable_ifIXaasr21is_move_constructibleIT_EE5valuesr18is_move_assignableIS4_EE5valueEvE4typeERS4_S7_ 0000000140008020     Computer.o
 0001:00007060       _ZNKSt3__16vectorI9ComponentNS_9allocatorIS1_EEE14__annotate_newB6v15007Ey 0000000140008060     Computer.o
 0001:00007120       _ZNSt3__1neB6v15007IP9ComponentS2_EEbRKNS_16reverse_iteratorIT_EERKNS3_IT0_EE 0000000140008120     Computer.o
 0001:00007160       _ZNSt3__116allocator_traitsINS_9allocatorI9ComponentEEE9constructB6v15007IS2_JS2_EvEEvRS3_PT_DpOT0_ 0000000140008160     Computer.o
 0001:00007190       _ZNSt3__112__to_addressB6v15007INS_16reverse_iteratorIP9ComponentEEvEENS_5decayIDTclsr19__to_address_helperIT_EE6__callcl7declvalIRKS6_EEEEE4typeES8_ 0000000140008190     Computer.o
 0001:000071b0       _ZNKSt3__116reverse_iteratorIP9ComponentEdeB6v15007Ev 00000001400081b0     Computer.o
 0001:000071e0       _ZNSt3__116reverse_iteratorIP9ComponentEppB6v15007Ev 00000001400081e0     Computer.o
 0001:00007200       _ZNSt3__129_AllocatorDestroyRangeReverseINS_9allocatorI9ComponentEENS_16reverse_iteratorIPS2_EEEC1B6v15007ERS3_RS6_S9_ 0000000140008200     Computer.o
 0001:00007240       _ZNKSt3__129_AllocatorDestroyRangeReverseINS_9allocatorI9ComponentEENS_16reverse_iteratorIPS2_EEEclB6v15007Ev 0000000140008240     Computer.o
 0001:000072d0       _ZNSt3__19allocatorI9ComponentE9constructB6v15007IS1_JS1_EEEvPT_DpOT0_ 00000001400082d0     Computer.o
 0001:00007300       _ZN9ComponentC1EOS_        0000000140008300     Computer.o
 0001:00007330       _ZN9ComponentC2EOS_        0000000140008330     Computer.o
 0001:00007380       _ZNSt3__112basic_stringIcNS_11char_traitsIcEENS_9allocatorIcEEEC1B6v15007EOS5_ 0000000140008380     Computer.o
 0001:000073b0       _ZNSt3__112basic_stringIcNS_11char_traitsIcEENS_9allocatorIcEEEC2B6v15007EOS5_ 00000001400083b0     Computer.o
 0001:00007440       _ZNSt3__112basic_stringIcNS_11char_traitsIcEENS_9allocatorIcEEE14__default_initB6v15007Ev 0000000140008440     Computer.o
 0001:00007460       _ZNSt3__115__debug_db_swapB6v15007INS_12basic_stringIcNS_11char_traitsIcEENS_9allocatorIcEEEEEEvPT_S8_ 0000000140008460     Computer.o
 0001:00007480       _ZNSt3__112basic_stringIcNS_11char_traitsIcEENS_9allocatorIcEEE6__zeroB6v15007Ev 0000000140008480     Computer.o
 0001:000074d0       _ZNSt3__119__to_address_helperINS_16reverse_iteratorIP9ComponentEEvE6__callB6v15007ERKS4_ 00000001400084d0     Computer.o
 0001:00007510       _ZNKSt3__116reverse_iteratorIP9ComponentEptB6v15007Ev 0000000140008510     Computer.o
 0001:00007530       _ZNSt3__129_AllocatorDestroyRangeReverseINS_9allocatorI9ComponentEENS_16reverse_iteratorIPS2_EEEC2B6v15007ERS3_RS6_S9_ 0000000140008530     Computer.o
 0001:00007570       _ZNSt3__119__allocator_destroyB6v15007INS_9allocatorI9ComponentEENS_16reverse_iteratorINS4_IPS2_EEEES7_EEvRT_T0_T1_ 0000000140008570     Computer.o
 0001:000075e0       _ZNSt3__116reverse_iteratorINS0_IP9ComponentEEEC1B6v15007ES3_ 00000001400085e0     Computer.o
 0001:00007600       _ZNSt3__1neB6v15007INS_16reverse_iteratorIP9ComponentEES4_EEbRKNS1_IT_EERKNS1_IT0_EE 0000000140008600     Computer.o
 0001:00007650       _ZNSt3__112__to_addressB6v15007INS_16reverse_iteratorINS1_IP9ComponentEEEEvEENS_5decayIDTclsr19__to_address_helperIT_EE6__callcl7declvalIRKS7_EEEEE4typeES9_ 0000000140008650     Computer.o
 0001:00007670       _ZNSt3__116reverse_iteratorINS0_IP9ComponentEEEppB6v15007Ev 0000000140008670     Computer.o
 0001:000076a0       _ZNKSt3__116reverse_iteratorINS0_IP9ComponentEEE4baseB6v15007Ev 00000001400086a0     Computer.o
 0001:000076d0       _ZNSt3__119__to_address_helperINS_16reverse_iteratorINS1_IP9ComponentEEEEvE6__callB6v15007ERKS5_ 00000001400086d0     Computer.o
 0001:00007710       _ZNKSt3__116reverse_iteratorINS0_IP9ComponentEEEptB6v15007Ev 0000000140008710     Computer.o
 0001:00007730       _ZNKSt3__116reverse_iteratorINS0_IP9ComponentEEEdeB6v15007Ev 0000000140008730     Computer.o
 0001:00007770       _ZNSt3__116reverse_iteratorIP9ComponentEmmB6v15007Ev 0000000140008770     Computer.o
 0001:00007790       _ZNSt3__116reverse_iteratorINS0_IP9ComponentEEEC2B6v15007ES3_ 0000000140008790     Computer.o
 0001:000077c0       _ZNSt3__116reverse_iteratorIP9ComponentEC2B6v15007ES2_ 00000001400087c0     Computer.o
 0001:000077f0       _ZNSt3__114__split_bufferI9ComponentRNS_9allocatorIS1_EEED2Ev 00000001400087f0     Computer.o
 0001:00007870       _ZNSt3__114__split_bufferI9ComponentRNS_9allocatorIS1_EEE5clearB6v15007Ev 0000000140008870     Computer.o
 0001:00007890       _ZNKSt3__114__split_bufferI9ComponentRNS_9allocatorIS1_EEE8capacityB6v15007Ev 0000000140008890     Computer.o
 0001:000078d0       _ZNSt3__114__split_bufferI9ComponentRNS_9allocatorIS1_EEE17__destruct_at_endB6v15007EPS1_ 00000001400088d0     Computer.o
 0001:00007900       _ZNSt3__114__split_bufferI9ComponentRNS_9allocatorIS1_EEE17__destruct_at_endB6v15007EPS1_NS_17integral_constantIbLb0EEE 0000000140008900     Computer.o
 0001:00007980       _ZNKSt3__114__split_bufferI9ComponentRNS_9allocatorIS1_EEE9__end_capB6v15007Ev 0000000140008980     Computer.o
 0001:000079a0       _ZNKSt3__117__compressed_pairIP9ComponentRNS_9allocatorIS1_EEE5firstB6v15007Ev 00000001400089a0     Computer.o
 0001:000079c0       _ZNSt3__111__wrap_iterIP9ComponentEC1B6v15007EPKvS2_ 00000001400089c0     Computer.o
 0001:000079f0       _ZNSt3__111__wrap_iterIP9ComponentEC2B6v15007EPKvS2_ 00000001400089f0     Computer.o
 0001:00007a20       _ZN11TDetailFormC3EPN6System7Classes10TComponentEP8Computer 0000000140008a20     Detail.o
 0001:000083a0       _ZN11TDetailForm22UpdateTimerDetailTimerEPN6System7TObjectE 00000001400093a0     Detail.o
 0001:00008440       _ZN11TDetailForm15FieldNameChangeEPN6System7TObjectE 0000000140009440     Detail.o
 0001:000085c0       _ZNKSt3__112basic_stringIcNS_11char_traitsIcEENS_9allocatorIcEEE5c_strB6v15007Ev 00000001400095c0     Detail.o
 0001:000085e0       _ZNSt3__16vectorI9ComponentNS_9allocatorIS1_EEEixB6v15007Ey 00000001400095e0     Detail.o
 0001:00008610       _ZN6System11AnsiStringTILt0EEC1ERKNS_13UnicodeStringE 0000000140009610     Detail.o
 0001:00008660       _ZNK6System11AnsiStringTILt0EE5c_strEv 0000000140009660     Detail.o
 0001:000086b0       _ZN6System11AnsiStringTILt0EED1Ev 00000001400096b0     Detail.o
 0001:000086d0       _ZN11TDetailFormD0Ev       00000001400096d0     Detail.o
 0001:00008720       _ZN6System11AnsiStringTILt0EEC2ERKNS_13UnicodeStringE 0000000140009720     Detail.o
 0001:00008770       _ZN6System11AnsiStringTILt0EED2Ev 0000000140009770     Detail.o
 0001:00008860       _ZN6System11AnsiStringTILt0EEC1Ev 0000000140009860     Detail.o
 0001:00008890       _ZN6System11AnsiStringTILt0EEC1ERKS1_ 0000000140009890     Detail.o
 0001:000088c0       _ZN6System11AnsiStringTILt0EEC2Ev 00000001400098c0     Detail.o
 0001:000088f0       _ZN6System14AnsiStringBaseC2Ev 00000001400098f0     Detail.o
 0001:00008910       _ZN6System11AnsiStringTILt0EEC2ERKS1_ 0000000140009910     Detail.o
 0001:00008940       _ZN9THomeFormC3EPN6System7Classes10TComponentE 0000000140009940     Home.o
 0001:00008a50       _ZN9THomeForm16UpdateTimerTimerEPN6System7TObjectE 0000000140009a50     Home.o
 0001:00008db0       _ZN9THomeForm10FormCreateEPN6System7TObjectE 0000000140009db0     Home.o
 0001:00009e60       _ZN9THomeForm24ComputerListViewDblClickEPN6System7TObjectE 000000014000ae60     Home.o
 0001:00009f20       _ZN9THomeForm19MenuItemDeleteClickEPN6System7TObjectE 000000014000af20     Home.o
 0001:0000a280       _ZN9THomeForm11Panel5ClickEPN6System7TObjectE 000000014000b280     Home.o
 0001:0000ac80       _ZN9THomeForm10Edit1ClickEPN6System7TObjectE 000000014000bc80     Home.o
 0001:0000add0       _ZNSt3__16vectorI8ComputerNS_9allocatorIS1_EEEC1B6v15007Ev 000000014000bdd0     Home.o
 0001:0000adf0       _ZNSt3__16vectorI8ComputerNS_9allocatorIS1_EEED1B6v15007Ev 000000014000bdf0     Home.o
 0001:0000ae10       _ZNKSt3__16vectorI8ComputerNS_9allocatorIS1_EEE4sizeB6v15007Ev 000000014000be10     Home.o
 0001:0000ae30       _ZNSt3__16vectorI8ComputerNS_9allocatorIS1_EEEixB6v15007Ey 000000014000be30     Home.o
 0001:0000ae60       _ZNSt3__114basic_ifstreamIcNS_11char_traitsIcEEEC1EPKcj 000000014000be60     Home.o
 0001:0000afd0       _ZNKSt3__19basic_iosIcNS_11char_traitsIcEEEcvbB6v15007Ev 000000014000bfd0     Home.o
 0001:0000aff0       _ZNSt3__16vectorI8ComputerNS_9allocatorIS1_EEE9push_backB6v15007ERKS1_ 000000014000bff0     Home.o
 0001:0000b050       _ZN8ComputerD1Ev           000000014000c050     Home.o
 0001:0000b070       _ZNSt3__114basic_ifstreamIcNS_11char_traitsIcEEE5closeEv 000000014000c070     Home.o
 0001:0000b0c0       _ZNSt3__1plB6v15007IcNS_11char_traitsIcEENS_9allocatorIcEEEENS_12basic_stringIT_T0_T1_EEPKS6_OS9_ 000000014000c0c0     Home.o
 0001:0000b110       _ZNSt3__114basic_ofstreamIcNS_11char_traitsIcEEEC1EPKcj 000000014000c110     Home.o
 0001:0000b280       _ZNSt3__16vectorI8ComputerNS_9allocatorIS1_EEE5beginB6v15007Ev 000000014000c280     Home.o
 0001:0000b2b0       _ZNSt3__16vectorI8ComputerNS_9allocatorIS1_EEE3endB6v15007Ev 000000014000c2b0     Home.o
 0001:0000b2e0       _ZNSt3__1neB6v15007IP8ComputerEEbRKNS_11__wrap_iterIT_EES7_ 000000014000c2e0     Home.o
 0001:0000b310       _ZNKSt3__111__wrap_iterIP8ComputerEdeB6v15007Ev 000000014000c310     Home.o
 0001:0000b320       _ZNSt3__111__wrap_iterIP8ComputerEppB6v15007Ev 000000014000c320     Home.o
 0001:0000b340       _ZNSt3__114basic_ofstreamIcNS_11char_traitsIcEEE5closeEv 000000014000c340     Home.o
 0001:0000b390       _ZNSt3__114basic_ofstreamIcNS_11char_traitsIcEEED1Ev 000000014000c390     Home.o
 0001:0000b3d0       _ZNSt3__114basic_ifstreamIcNS_11char_traitsIcEEED1Ev 000000014000c3d0     Home.o
 0001:0000b410       _ZN6System3SetINS_7Uitypes10TMsgDlgBtnELS2_0ELS2_11EEC1Ev 000000014000c410     Home.o
 0001:0000b440       _ZN6System3SetINS_7Uitypes10TMsgDlgBtnELS2_0ELS2_11EElsES2_ 000000014000c440     Home.o
 0001:0000b4c0       _ZNSt3__16vectorI8ComputerNS_9allocatorIS1_EEE5eraseB6v15007ENS_11__wrap_iterIPKS1_EE 000000014000c4c0     Home.o
 0001:0000b570       _ZNKSt3__111__wrap_iterIP8ComputerEplB6v15007Ex 000000014000c570     Home.o
 0001:0000b5b0       _ZNSt3__111__wrap_iterIPK8ComputerEC1B6v15007IPS1_EERKNS0_IT_EEPNS_9enable_ifIXsr14is_convertibleIS7_S3_EE5valueEvE4typeE 000000014000c5b0     Home.o
 0001:0000b5e0       _ZN9THomeFormD0Ev          000000014000c5e0     Home.o
 0001:0000b640       _ZN8ComputerD2Ev           000000014000c640     Home.o
 0001:0000b680       _ZNSt3__1eqB6v15007IP8ComputerEEbRKNS_11__wrap_iterIT_EES7_ 000000014000c680     Home.o
 0001:0000b6c0       _ZNKSt3__111__wrap_iterIP8ComputerE4baseB6v15007Ev 000000014000c6c0     Home.o
 0001:0000b6d0       _ZNSt3__114basic_ofstreamIcNS_11char_traitsIcEEED2Ev 000000014000c6d0     Home.o
 0001:0000b730       _ZTv0_n24_NSt3__114basic_ofstreamIcNS_11char_traitsIcEEED1Ev 000000014000c730     Home.o
 0001:0000b750       _ZNSt3__114basic_ofstreamIcNS_11char_traitsIcEEED0Ev 000000014000c750     Home.o
 0001:0000b780       _ZTv0_n24_NSt3__114basic_ofstreamIcNS_11char_traitsIcEEED0Ev 000000014000c780     Home.o
 0001:0000b7a0       _ZNSt3__113basic_filebufIcNS_11char_traitsIcEEED1Ev 000000014000c7a0     Home.o
 0001:0000b7c0       _ZNSt3__113basic_filebufIcNS_11char_traitsIcEEED2Ev 000000014000c7c0     Home.o
 0001:0000b8a0       _ZNSt3__113basic_filebufIcNS_11char_traitsIcEEE5closeEv 000000014000c8a0     Home.o
 0001:0000b9c0       _ZNSt3__113basic_filebufIcNS_11char_traitsIcEEED0Ev 000000014000c9c0     Home.o
 0001:0000b9f0       _ZNSt3__113basic_filebufIcNS_11char_traitsIcEEE5imbueERKNS_6localeE 000000014000c9f0     Home.o
 0001:0000bbc0       _ZNSt3__113basic_filebufIcNS_11char_traitsIcEEE6setbufEPcx 000000014000cbc0     Home.o
 0001:0000bdd0       _ZNSt3__113basic_filebufIcNS_11char_traitsIcEEE7seekoffExNS_8ios_base7seekdirEj 000000014000cdd0     Home.o
 0001:0000bfc0       _ZNSt3__113basic_filebufIcNS_11char_traitsIcEEE7seekposENS_4fposI9_MbstatetEEj 000000014000cfc0     Home.o
 0001:0000c0b0       _ZNSt3__113basic_filebufIcNS_11char_traitsIcEEE4syncEv 000000014000d0b0     Home.o
 0001:0000c4f0       _ZNSt3__113basic_filebufIcNS_11char_traitsIcEEE9underflowEv 000000014000d4f0     Home.o
 0001:0000cb90       _ZNSt3__113basic_filebufIcNS_11char_traitsIcEEE9pbackfailEi 000000014000db90     Home.o
 0001:0000ccc0       _ZNSt3__113basic_filebufIcNS_11char_traitsIcEEE8overflowEi 000000014000dcc0     Home.o
 0001:0000d190       _ZNSt3__110unique_ptrI6_iobufPFiPS1_EEC1B6v15007ILb1EvEES2_NS_16__dependent_typeINS_27__unique_ptr_deleter_sfinaeIS4_EEXT_EE20__good_rval_ref_typeE 000000014000e190     Home.o
 0001:0000d1c0       _ZNSt3__110unique_ptrI6_iobufPFiPS1_EE7releaseB6v15007Ev 000000014000e1c0     Home.o
 0001:0000d200       _ZNSt3__110unique_ptrI6_iobufPFiPS1_EED1B6v15007Ev 000000014000e200     Home.o
 0001:0000d220       _ZNSt3__110unique_ptrI6_iobufPFiPS1_EEC2B6v15007ILb1EvEES2_NS_16__dependent_typeINS_27__unique_ptr_deleter_sfinaeIS4_EEXT_EE20__good_rval_ref_typeE 000000014000e220     Home.o
 0001:0000d260       _ZNSt3__117__compressed_pairIP6_iobufPFiS2_EEC1B6v15007IRS2_S4_EEOT_OT0_ 000000014000e260     Home.o
 0001:0000d290       _ZNSt3__117__compressed_pairIP6_iobufPFiS2_EEC2B6v15007IRS2_S4_EEOT_OT0_ 000000014000e290     Home.o
 0001:0000d2d0       _ZNSt3__122__compressed_pair_elemIP6_iobufLi0ELb0EEC2B6v15007IRS2_vEEOT_ 000000014000e2d0     Home.o
 0001:0000d300       _ZNSt3__122__compressed_pair_elemIPFiP6_iobufELi1ELb0EEC2B6v15007IS4_vEEOT_ 000000014000e300     Home.o
 0001:0000d330       _ZNSt3__117__compressed_pairIP6_iobufPFiS2_EE5firstB6v15007Ev 000000014000e330     Home.o
 0001:0000d350       _ZNSt3__122__compressed_pair_elemIP6_iobufLi0ELb0EE5__getB6v15007Ev 000000014000e350     Home.o
 0001:0000d360       _ZNSt3__110unique_ptrI6_iobufPFiPS1_EED2B6v15007Ev 000000014000e360     Home.o
 0001:0000d380       _ZNSt3__110unique_ptrI6_iobufPFiPS1_EE5resetB6v15007ES2_ 000000014000e380     Home.o
 0001:0000d400       _ZNSt3__117__compressed_pairIP6_iobufPFiS2_EE6secondB6v15007Ev 000000014000e400     Home.o
 0001:0000d420       _ZNSt3__122__compressed_pair_elemIPFiP6_iobufELi1ELb0EE5__getB6v15007Ev 000000014000e420     Home.o
 0001:0000d430       _ZNSt3__19use_facetB6v15007INS_7codecvtIcc9_MbstatetEEEERKT_RKNS_6localeE 000000014000e430     Home.o
 0001:0000d450       _ZNKSt3__17codecvtIcc9_MbstatetE13always_noconvB6v15007Ev 000000014000e450     Home.o
 0001:0000d470       _ZNSt3__115basic_streambufIcNS_11char_traitsIcEEE4setgB6v15007EPcS4_S4_ 000000014000e470     Home.o
 0001:0000d4b0       _ZNSt3__115basic_streambufIcNS_11char_traitsIcEEE4setpB6v15007EPcS4_ 000000014000e4b0     Home.o
 0001:0000d4f0       _ZNSt3__13maxB6v15007IxEERKT_S3_S3_ 000000014000e4f0     Home.o
 0001:0000d520       _ZNSt3__13maxB6v15007IxNS_6__lessIxxEEEERKT_S5_S5_T0_ 000000014000e520     Home.o
 0001:0000d580       _ZNKSt3__16__lessIxxEclB6v15007ERKxS3_ 000000014000e580     Home.o
 0001:0000d5b0       _ZNSt3__116__throw_bad_castB6v15007Ev 000000014000e5b0     Home.o
 0001:0000d5f0       _ZNKSt3__17codecvtIcc9_MbstatetE8encodingB6v15007Ev 000000014000e5f0     Home.o
 0001:0000d610       _ZNSt3__14fposI9_MbstatetEC1B6v15007Ex 000000014000e610     Home.o
 0001:0000d640       _ZNSt3__14fposI9_MbstatetE5stateB6v15007ES1_ 000000014000e640     Home.o
 0001:0000d660       _ZNSt3__14fposI9_MbstatetEC2B6v15007Ex 000000014000e660     Home.o
 0001:0000d6a0       _ZNKSt3__14fposI9_MbstatetEcvxB6v15007Ev 000000014000e6a0     Home.o
 0001:0000d6b0       _ZNKSt3__14fposI9_MbstatetE5stateB6v15007Ev 000000014000e6b0     Home.o
 0001:0000d6d0       _ZNKSt3__115basic_streambufIcNS_11char_traitsIcEEE4pptrB6v15007Ev 000000014000e6d0     Home.o
 0001:0000d6e0       _ZNKSt3__115basic_streambufIcNS_11char_traitsIcEEE5pbaseB6v15007Ev 000000014000e6e0     Home.o
 0001:0000d6f0       _ZNKSt3__17codecvtIcc9_MbstatetE7unshiftB6v15007ERS1_PcS4_RS4_ 000000014000e6f0     Home.o
 0001:0000d740       _ZNKSt3__115basic_streambufIcNS_11char_traitsIcEEE5egptrB6v15007Ev 000000014000e740     Home.o
 0001:0000d750       _ZNKSt3__115basic_streambufIcNS_11char_traitsIcEEE4gptrB6v15007Ev 000000014000e750     Home.o
 0001:0000d760       _ZNKSt3__17codecvtIcc9_MbstatetE6lengthB6v15007ERS1_PKcS5_y 000000014000e760     Home.o
 0001:0000d7b0       _ZNKSt3__115basic_streambufIcNS_11char_traitsIcEEE5ebackB6v15007Ev 000000014000e7b0     Home.o
 0001:0000d7c0       _ZNSt3__113basic_filebufIcNS_11char_traitsIcEEE11__read_modeEv 000000014000e7c0     Home.o
 0001:0000d880       _ZNKSt3__17codecvtIcc9_MbstatetE2inB6v15007ERS1_PKcS5_RS5_PcS7_RS7_ 000000014000e880     Home.o
 0001:0000d910       _ZNSt3__115basic_streambufIcNS_11char_traitsIcEEE5gbumpB6v15007Ei 000000014000e910     Home.o
 0001:0000d940       _ZNSt3__111char_traitsIcE7not_eofEi 000000014000e940     Home.o
 0001:0000d990       _ZNSt3__113basic_filebufIcNS_11char_traitsIcEEE12__write_modeEv 000000014000e990     Home.o
 0001:0000da60       _ZNKSt3__115basic_streambufIcNS_11char_traitsIcEEE5epptrB6v15007Ev 000000014000ea60     Home.o
 0001:0000da70       _ZNSt3__115basic_streambufIcNS_11char_traitsIcEEE5pbumpB6v15007Ei 000000014000ea70     Home.o
 0001:0000daa0       _ZNKSt3__17codecvtIcc9_MbstatetE3outB6v15007ERS1_PKcS5_RS5_PcS7_RS7_ 000000014000eaa0     Home.o
 0001:0000db30       _ZNSt3__115basic_streambufIcNS_11char_traitsIcEEE7__pbumpB6v15007Ex 000000014000eb30     Home.o
 0001:0000db60       _ZNSt3__114basic_ifstreamIcNS_11char_traitsIcEEED2Ev 000000014000eb60     Home.o
 0001:0000dbc0       _ZTv0_n24_NSt3__114basic_ifstreamIcNS_11char_traitsIcEEED1Ev 000000014000ebc0     Home.o
 0001:0000dbe0       _ZNSt3__114basic_ifstreamIcNS_11char_traitsIcEEED0Ev 000000014000ebe0     Home.o
 0001:0000dc10       _ZTv0_n24_NSt3__114basic_ifstreamIcNS_11char_traitsIcEEED0Ev 000000014000ec10     Home.o
 0001:0000dc30       _ZNSt3__111__wrap_iterIP8ComputerEpLB6v15007Ex 000000014000ec30     Home.o
 0001:0000dc60       _ZNSt3__111__wrap_iterIPK8ComputerEC2B6v15007IPS1_EERKNS0_IT_EEPNS_9enable_ifIXsr14is_convertibleIS7_S3_EE5valueEvE4typeE 000000014000ec60     Home.o
 0001:0000dca0       _ZNSt3__16vectorI8ComputerNS_9allocatorIS1_EEEC2B6v15007Ev 000000014000eca0     Home.o
 0001:0000dd00       _ZNSt3__117__compressed_pairIP8ComputerNS_9allocatorIS1_EEEC1B6v15007IDnNS_18__default_init_tagEEEOT_OT0_ 000000014000ed00     Home.o
 0001:0000dd30       _ZNSt3__119__debug_db_insert_cB6v15007INS_6vectorI8ComputerNS_9allocatorIS2_EEEEEEvPT_ 000000014000ed30     Home.o
 0001:0000dd40       _ZNSt3__117__compressed_pairIP8ComputerNS_9allocatorIS1_EEEC2B6v15007IDnNS_18__default_init_tagEEEOT_OT0_ 000000014000ed40     Home.o
 0001:0000dd80       _ZNSt3__122__compressed_pair_elemIP8ComputerLi0ELb0EEC2B6v15007IDnvEEOT_ 000000014000ed80     Home.o
 0001:0000dda0       _ZNSt3__122__compressed_pair_elemINS_9allocatorI8ComputerEELi1ELb1EEC2B6v15007ENS_18__default_init_tagE 000000014000eda0     Home.o
 0001:0000ddc0       _ZNSt3__19allocatorI8ComputerEC2B6v15007Ev 000000014000edc0     Home.o
 0001:0000dde0       _ZNSt3__116__non_trivial_ifILb1ENS_9allocatorI8ComputerEEEC2B6v15007Ev 000000014000ede0     Home.o
 0001:0000ddf0       _ZNSt3__16vectorI8ComputerNS_9allocatorIS1_EEED2B6v15007Ev 000000014000edf0     Home.o
 0001:0000de30       _ZNSt3__16vectorI8ComputerNS_9allocatorIS1_EEE16__destroy_vectorC1ERS4_ 000000014000ee30     Home.o
 0001:0000de60       _ZNSt3__16vectorI8ComputerNS_9allocatorIS1_EEE16__destroy_vectorclB6v15007Ev 000000014000ee60     Home.o
 0001:0000def0       _ZNSt3__16vectorI8ComputerNS_9allocatorIS1_EEE16__destroy_vectorC2ERS4_ 000000014000eef0     Home.o
 0001:0000df10       _ZNKSt3__16vectorI8ComputerNS_9allocatorIS1_EEE17__annotate_deleteB6v15007Ev 000000014000ef10     Home.o
 0001:0000dfe0       _ZNSt3__118__debug_db_erase_cB6v15007INS_6vectorI8ComputerNS_9allocatorIS2_EEEEEEvPT_ 000000014000efe0     Home.o
 0001:0000dff0       _ZNSt3__16vectorI8ComputerNS_9allocatorIS1_EEE7__clearB6v15007Ev 000000014000eff0     Home.o
 0001:0000e010       _ZNSt3__116allocator_traitsINS_9allocatorI8ComputerEEE10deallocateB6v15007ERS3_PS2_y 000000014000f010     Home.o
 0001:0000e040       _ZNSt3__16vectorI8ComputerNS_9allocatorIS1_EEE7__allocB6v15007Ev 000000014000f040     Home.o
 0001:0000e060       _ZNKSt3__16vectorI8ComputerNS_9allocatorIS1_EEE8capacityB6v15007Ev 000000014000f060     Home.o
 0001:0000e0a0       _ZNKSt3__16vectorI8ComputerNS_9allocatorIS1_EEE31__annotate_contiguous_containerB6v15007EPKvS6_S6_S6_ 000000014000f0a0     Home.o
 0001:0000e0d0       _ZNKSt3__16vectorI8ComputerNS_9allocatorIS1_EEE4dataB6v15007Ev 000000014000f0d0     Home.o
 0001:0000e0f0       _ZNSt3__112__to_addressB6v15007I8ComputerEEPT_S3_ 000000014000f0f0     Home.o
 0001:0000e100       _ZNSt3__16vectorI8ComputerNS_9allocatorIS1_EEE22__base_destruct_at_endB6v15007EPS1_ 000000014000f100     Home.o
 0001:0000e190       _ZNSt3__116allocator_traitsINS_9allocatorI8ComputerEEE7destroyB6v15007IS2_vEEvRS3_PT_ 000000014000f190     Home.o
 0001:0000e1c0       _ZNSt3__19allocatorI8ComputerE7destroyB6v15007EPS1_ 000000014000f1c0     Home.o
 0001:0000e1e0       _ZNSt3__19allocatorI8ComputerE10deallocateB6v15007EPS1_y 000000014000f1e0     Home.o
 0001:0000e220       _ZNSt3__117__compressed_pairIP8ComputerNS_9allocatorIS1_EEE6secondB6v15007Ev 000000014000f220     Home.o
 0001:0000e240       _ZNSt3__122__compressed_pair_elemINS_9allocatorI8ComputerEELi1ELb1EE5__getB6v15007Ev 000000014000f240     Home.o
 0001:0000e250       _ZNKSt3__16vectorI8ComputerNS_9allocatorIS1_EEE9__end_capB6v15007Ev 000000014000f250     Home.o
 0001:0000e270       _ZNKSt3__117__compressed_pairIP8ComputerNS_9allocatorIS1_EEE5firstB6v15007Ev 000000014000f270     Home.o
 0001:0000e290       _ZNKSt3__122__compressed_pair_elemIP8ComputerLi0ELb0EE5__getB6v15007Ev 000000014000f290     Home.o
 0001:0000e2a0       _ZNSt3__19basic_iosIcNS_11char_traitsIcEEEC2B6v15007Ev 000000014000f2a0     Home.o
 0001:0000e2d0       _ZNSt3__113basic_istreamIcNS_11char_traitsIcEEEC2B6v15007EPNS_15basic_streambufIcS2_EE 000000014000f2d0     Home.o
 0001:0000e330       _ZNSt3__113basic_filebufIcNS_11char_traitsIcEEEC1Ev 000000014000f330     Home.o
 0001:0000e350       _ZNSt3__113basic_filebufIcNS_11char_traitsIcEEE4openEPKcj 000000014000f350     Home.o
 0001:0000e460       _ZNSt3__18ios_baseC2B6v15007Ev 000000014000f460     Home.o
 0001:0000e480       _ZNSt3__19basic_iosIcNS_11char_traitsIcEEE4initB6v15007EPNS_15basic_streambufIcS2_EE 000000014000f480     Home.o
 0001:0000e4d0       _ZNSt3__113basic_filebufIcNS_11char_traitsIcEEEC2Ev 000000014000f4d0     Home.o
 0001:0000e680       _ZNSt3__19has_facetB6v15007INS_7codecvtIcc9_MbstatetEEEEbRKNS_6localeE 000000014000f680     Home.o
 0001:0000e6c0       _ZNKSt3__115basic_streambufIcNS_11char_traitsIcEEE6getlocB6v15007Ev 000000014000f6c0     Home.o
 0001:0000e6f0       _ZNSt3__113basic_filebufIcNS_11char_traitsIcEEE15__make_mdstringEj 000000014000f6f0     Home.o
 0001:0000e900       _ZNKSt3__19basic_iosIcNS_11char_traitsIcEEE4failB6v15007Ev 000000014000f900     Home.o
 0001:0000e920       _ZNKSt3__18ios_base4failB6v15007Ev 000000014000f920     Home.o
 0001:0000e940       _ZNSt3__16vectorI8ComputerNS_9allocatorIS1_EEE9__end_capB6v15007Ev 000000014000f940     Home.o
 0001:0000e960       _ZNSt3__16vectorI8ComputerNS_9allocatorIS1_EEE22__construct_one_at_endB6v15007IJRKS1_EEEvDpOT_ 000000014000f960     Home.o
 0001:0000ea00       _ZNSt3__16vectorI8ComputerNS_9allocatorIS1_EEE21__push_back_slow_pathIRKS1_EEvOT_ 000000014000fa00     Home.o
 0001:0000eaf0       _ZNSt3__117__compressed_pairIP8ComputerNS_9allocatorIS1_EEE5firstB6v15007Ev 000000014000faf0     Home.o
 0001:0000eb10       _ZNSt3__122__compressed_pair_elemIP8ComputerLi0ELb0EE5__getB6v15007Ev 000000014000fb10     Home.o
 0001:0000eb20       _ZNSt3__16vectorI8ComputerNS_9allocatorIS1_EEE21_ConstructTransactionC1ERS4_y 000000014000fb20     Home.o
 0001:0000eb50       _ZNSt3__116allocator_traitsINS_9allocatorI8ComputerEEE9constructB6v15007IS2_JRKS2_EvEEvRS3_PT_DpOT0_ 000000014000fb50     Home.o
 0001:0000eb80       _ZNSt3__16vectorI8ComputerNS_9allocatorIS1_EEE21_ConstructTransactionD1Ev 000000014000fb80     Home.o
 0001:0000eba0       _ZNSt3__16vectorI8ComputerNS_9allocatorIS1_EEE21_ConstructTransactionC2ERS4_y 000000014000fba0     Home.o
 0001:0000ebf0       _ZNSt3__19allocatorI8ComputerE9constructB6v15007IS1_JRKS1_EEEvPT_DpOT0_ 000000014000fbf0     Home.o
 0001:0000ec20       _ZN8ComputerC1ERKS_        000000014000fc20     Home.o
 0001:0000ec50       _ZN8ComputerC2ERKS_        000000014000fc50     Home.o
 0001:0000ed30       _ZNSt3__16vectorI9ComponentNS_9allocatorIS1_EEEC1ERKS4_ 000000014000fd30     Home.o
 0001:0000ed60       _ZNSt3__16vectorI9ComponentNS_9allocatorIS1_EEEC2ERKS4_ 000000014000fd60     Home.o
 0001:0000eea0       _ZNSt3__116allocator_traitsINS_9allocatorI9ComponentEEE37select_on_container_copy_constructionB6v15007IS3_vvEES3_RKS3_ 000000014000fea0     Home.o
 0001:0000eec0       _ZNSt3__117__compressed_pairIP9ComponentNS_9allocatorIS1_EEEC1B6v15007IDnS4_EEOT_OT0_ 000000014000fec0     Home.o
 0001:0000eef0       _ZNSt3__118__make_transactionB6v15007INS_6vectorI9ComponentNS_9allocatorIS2_EEE16__destroy_vectorEEENS_13__transactionIT_EES8_ 000000014000fef0     Home.o
 0001:0000ef30       _ZNSt3__16vectorI9ComponentNS_9allocatorIS1_EEE11__vallocateB6v15007Ey 000000014000ff30     Home.o
 0001:0000efe0       _ZNSt3__16vectorI9ComponentNS_9allocatorIS1_EEE18__construct_at_endIPS1_EENS_9enable_ifIXsr27__is_cpp17_forward_iteratorIT_EE5valueEvE4typeES8_S8_y 000000014000ffe0     Home.o
 0001:0000f080       _ZNSt3__113__transactionINS_6vectorI9ComponentNS_9allocatorIS2_EEE16__destroy_vectorEE10__completeB6v15007Ev 0000000140010080     Home.o
 0001:0000f090       _ZNSt3__113__transactionINS_6vectorI9ComponentNS_9allocatorIS2_EEE16__destroy_vectorEED1B6v15007Ev 0000000140010090     Home.o
 0001:0000f0b0       _ZNSt3__117__compressed_pairIP9ComponentNS_9allocatorIS1_EEEC2B6v15007IDnS4_EEOT_OT0_ 00000001400100b0     Home.o
 0001:0000f0f0       _ZNSt3__122__compressed_pair_elemINS_9allocatorI9ComponentEELi1ELb1EEC2B6v15007IS3_vEEOT_ 00000001400100f0     Home.o
 0001:0000f110       _ZNSt3__113__transactionINS_6vectorI9ComponentNS_9allocatorIS2_EEE16__destroy_vectorEEC1B6v15007ES6_ 0000000140010110     Home.o
 0001:0000f140       _ZNSt3__113__transactionINS_6vectorI9ComponentNS_9allocatorIS2_EEE16__destroy_vectorEEC2B6v15007ES6_ 0000000140010140     Home.o
 0001:0000f170       _ZNSt3__130__uninitialized_allocator_copyB6v15007INS_9allocatorI9ComponentEEPS2_S4_S4_EET2_RT_T0_T1_S5_ 0000000140010170     Home.o
 0001:0000f280       _ZNSt3__116allocator_traitsINS_9allocatorI9ComponentEEE9constructB6v15007IS2_JRS2_EvEEvRS3_PT_DpOT0_ 0000000140010280     Home.o
 0001:0000f2b0       _ZNSt3__129_AllocatorDestroyRangeReverseINS_9allocatorI9ComponentEEPS2_EC1B6v15007ERS3_RS4_S7_ 00000001400102b0     Home.o
 0001:0000f2f0       _ZNKSt3__129_AllocatorDestroyRangeReverseINS_9allocatorI9ComponentEEPS2_EclB6v15007Ev 00000001400102f0     Home.o
 0001:0000f350       _ZNSt3__19allocatorI9ComponentE9constructB6v15007IS1_JRS1_EEEvPT_DpOT0_ 0000000140010350     Home.o
 0001:0000f380       _ZNSt3__129_AllocatorDestroyRangeReverseINS_9allocatorI9ComponentEEPS2_EC2B6v15007ERS3_RS4_S7_ 0000000140010380     Home.o
 0001:0000f3c0       _ZNSt3__119__allocator_destroyB6v15007INS_9allocatorI9ComponentEENS_16reverse_iteratorIPS2_EES6_EEvRT_T0_T1_ 00000001400103c0     Home.o
 0001:0000f430       _ZNSt3__113__transactionINS_6vectorI9ComponentNS_9allocatorIS2_EEE16__destroy_vectorEED2B6v15007Ev 0000000140010430     Home.o
 0001:0000f470       _ZNSt3__16vectorI8ComputerNS_9allocatorIS1_EEE21_ConstructTransactionD2Ev 0000000140010470     Home.o
 0001:0000f490       _ZNKSt3__16vectorI8ComputerNS_9allocatorIS1_EEE11__recommendB6v15007Ey 0000000140010490     Home.o
 0001:0000f530       _ZNSt3__114__split_bufferI8ComputerRNS_9allocatorIS1_EEEC1EyyS4_ 0000000140010530     Home.o
 0001:0000f570       _ZNSt3__16vectorI8ComputerNS_9allocatorIS1_EEE26__swap_out_circular_bufferERNS_14__split_bufferIS1_RS3_EE 0000000140010570     Home.o
 0001:0000f6c0       _ZNSt3__114__split_bufferI8ComputerRNS_9allocatorIS1_EEED1Ev 00000001400106c0     Home.o
 0001:0000f6e0       _ZNKSt3__16vectorI8ComputerNS_9allocatorIS1_EEE8max_sizeEv 00000001400106e0     Home.o
 0001:0000f740       _ZNKSt3__16vectorI8ComputerNS_9allocatorIS1_EEE20__throw_length_errorB6v15007Ev 0000000140010740     Home.o
 0001:0000f760       _ZNSt3__116allocator_traitsINS_9allocatorI8ComputerEEE8max_sizeB6v15007IS3_vEEyRKS3_ 0000000140010760     Home.o
 0001:0000f780       _ZNKSt3__16vectorI8ComputerNS_9allocatorIS1_EEE7__allocB6v15007Ev 0000000140010780     Home.o
 0001:0000f7a0       _ZNKSt3__19allocatorI8ComputerE8max_sizeB6v15007Ev 00000001400107a0     Home.o
 0001:0000f7c0       _ZNKSt3__117__compressed_pairIP8ComputerNS_9allocatorIS1_EEE6secondB6v15007Ev 00000001400107c0     Home.o
 0001:0000f7e0       _ZNKSt3__122__compressed_pair_elemINS_9allocatorI8ComputerEELi1ELb1EE5__getB6v15007Ev 00000001400107e0     Home.o
 0001:0000f7f0       _ZNSt3__114__split_bufferI8ComputerRNS_9allocatorIS1_EEEC2EyyS4_ 00000001400107f0     Home.o
 0001:0000f8c0       _ZNSt3__117__compressed_pairIP8ComputerRNS_9allocatorIS1_EEEC1B6v15007IDnS5_EEOT_OT0_ 00000001400108c0     Home.o
 0001:0000f8f0       _ZNSt3__119__allocate_at_leastB6v15007INS_9allocatorI8ComputerEEEENS_19__allocation_resultINS_16allocator_traitsIT_E7pointerEEERS6_y 00000001400108f0     Home.o
 0001:0000f940       _ZNSt3__114__split_bufferI8ComputerRNS_9allocatorIS1_EEE7__allocB6v15007Ev 0000000140010940     Home.o
 0001:0000f960       _ZNSt3__114__split_bufferI8ComputerRNS_9allocatorIS1_EEE9__end_capB6v15007Ev 0000000140010960     Home.o
 0001:0000f980       _ZNSt3__117__compressed_pairIP8ComputerRNS_9allocatorIS1_EEEC2B6v15007IDnS5_EEOT_OT0_ 0000000140010980     Home.o
 0001:0000f9c0       _ZNSt3__122__compressed_pair_elemIRNS_9allocatorI8ComputerEELi1ELb0EEC2B6v15007IS4_vEEOT_ 00000001400109c0     Home.o
 0001:0000f9e0       _ZNSt3__19allocatorI8ComputerE8allocateB6v15007Ey 00000001400109e0     Home.o
 0001:0000fa30       _ZNSt3__117__compressed_pairIP8ComputerRNS_9allocatorIS1_EEE6secondB6v15007Ev 0000000140010a30     Home.o
 0001:0000fa50       _ZNSt3__122__compressed_pair_elemIRNS_9allocatorI8ComputerEELi1ELb0EE5__getB6v15007Ev 0000000140010a50     Home.o
 0001:0000fa60       _ZNSt3__117__compressed_pairIP8ComputerRNS_9allocatorIS1_EEE5firstB6v15007Ev 0000000140010a60     Home.o
 0001:0000fa80       _ZNSt3__142__uninitialized_allocator_move_if_noexceptB6v15007INS_9allocatorI8ComputerEENS_16reverse_iteratorIPS2_EES6_S6_EET2_RT_T0_T1_S7_ 0000000140010a80     Home.o
 0001:0000fc30       _ZNSt3__116reverse_iteratorIP8ComputerEC1B6v15007ES2_ 0000000140010c30     Home.o
 0001:0000fc60       _ZNKSt3__116reverse_iteratorIP8ComputerE4baseB6v15007Ev 0000000140010c60     Home.o
 0001:0000fc70       _ZNSt3__14swapB6v15007IP8ComputerEENS_9enable_ifIXaasr21is_move_constructibleIT_EE5valuesr18is_move_assignableIS4_EE5valueEvE4typeERS4_S7_ 0000000140010c70     Home.o
 0001:0000fcb0       _ZNKSt3__16vectorI8ComputerNS_9allocatorIS1_EEE14__annotate_newB6v15007Ey 0000000140010cb0     Home.o
 0001:0000fd70       _ZNSt3__125__debug_db_invalidate_allB6v15007INS_6vectorI8ComputerNS_9allocatorIS2_EEEEEEvPT_ 0000000140010d70     Home.o
 0001:0000fd80       _ZNSt3__1neB6v15007IP8ComputerS2_EEbRKNS_16reverse_iteratorIT_EERKNS3_IT0_EE 0000000140010d80     Home.o
 0001:0000fdc0       _ZNSt3__116allocator_traitsINS_9allocatorI8ComputerEEE9constructB6v15007IS2_JS2_EvEEvRS3_PT_DpOT0_ 0000000140010dc0     Home.o
 0001:0000fdf0       _ZNSt3__112__to_addressB6v15007INS_16reverse_iteratorIP8ComputerEEvEENS_5decayIDTclsr19__to_address_helperIT_EE6__callcl7declvalIRKS6_EEEEE4typeES8_ 0000000140010df0     Home.o
 0001:0000fe10       _ZNKSt3__116reverse_iteratorIP8ComputerEdeB6v15007Ev 0000000140010e10     Home.o
 0001:0000fe40       _ZNSt3__116reverse_iteratorIP8ComputerEppB6v15007Ev 0000000140010e40     Home.o
 0001:0000fe60       _ZNSt3__129_AllocatorDestroyRangeReverseINS_9allocatorI8ComputerEENS_16reverse_iteratorIPS2_EEEC1B6v15007ERS3_RS6_S9_ 0000000140010e60     Home.o
 0001:0000fea0       _ZNKSt3__129_AllocatorDestroyRangeReverseINS_9allocatorI8ComputerEENS_16reverse_iteratorIPS2_EEEclB6v15007Ev 0000000140010ea0     Home.o
 0001:0000ff30       _ZNSt3__19allocatorI8ComputerE9constructB6v15007IS1_JS1_EEEvPT_DpOT0_ 0000000140010f30     Home.o
 0001:0000ff60       _ZN8ComputerC1EOS_         0000000140010f60     Home.o
 0001:0000ff90       _ZN8ComputerC2EOS_         0000000140010f90     Home.o
 0001:00010010       _ZNSt3__16vectorI9ComponentNS_9allocatorIS1_EEEC1B6v15007EOS4_ 0000000140011010     Home.o
 0001:00010040       _ZNSt3__16vectorI9ComponentNS_9allocatorIS1_EEEC2B6v15007EOS4_ 0000000140011040     Home.o
 0001:00010140       _ZNSt3__115__debug_db_swapB6v15007INS_6vectorI9ComponentNS_9allocatorIS2_EEEEEEvPT_S7_ 0000000140011140     Home.o
 0001:00010160       _ZNSt3__119__to_address_helperINS_16reverse_iteratorIP8ComputerEEvE6__callB6v15007ERKS4_ 0000000140011160     Home.o
 0001:000101a0       _ZNKSt3__116reverse_iteratorIP8ComputerEptB6v15007Ev 00000001400111a0     Home.o
 0001:000101c0       _ZNSt3__129_AllocatorDestroyRangeReverseINS_9allocatorI8ComputerEENS_16reverse_iteratorIPS2_EEEC2B6v15007ERS3_RS6_S9_ 00000001400111c0     Home.o
 0001:00010200       _ZNSt3__119__allocator_destroyB6v15007INS_9allocatorI8ComputerEENS_16reverse_iteratorINS4_IPS2_EEEES7_EEvRT_T0_T1_ 0000000140011200     Home.o
 0001:00010270       _ZNSt3__116reverse_iteratorINS0_IP8ComputerEEEC1B6v15007ES3_ 0000000140011270     Home.o
 0001:00010290       _ZNSt3__1neB6v15007INS_16reverse_iteratorIP8ComputerEES4_EEbRKNS1_IT_EERKNS1_IT0_EE 0000000140011290     Home.o
 0001:000102e0       _ZNSt3__112__to_addressB6v15007INS_16reverse_iteratorINS1_IP8ComputerEEEEvEENS_5decayIDTclsr19__to_address_helperIT_EE6__callcl7declvalIRKS7_EEEEE4typeES9_ 00000001400112e0     Home.o
 0001:00010300       _ZNSt3__116reverse_iteratorINS0_IP8ComputerEEEppB6v15007Ev 0000000140011300     Home.o
 0001:00010330       _ZNKSt3__116reverse_iteratorINS0_IP8ComputerEEE4baseB6v15007Ev 0000000140011330     Home.o
 0001:00010360       _ZNSt3__119__to_address_helperINS_16reverse_iteratorINS1_IP8ComputerEEEEvE6__callB6v15007ERKS5_ 0000000140011360     Home.o
 0001:000103a0       _ZNKSt3__116reverse_iteratorINS0_IP8ComputerEEEptB6v15007Ev 00000001400113a0     Home.o
 0001:000103c0       _ZNKSt3__116reverse_iteratorINS0_IP8ComputerEEEdeB6v15007Ev 00000001400113c0     Home.o
 0001:00010400       _ZNSt3__116reverse_iteratorIP8ComputerEmmB6v15007Ev 0000000140011400     Home.o
 0001:00010420       _ZNSt3__116reverse_iteratorINS0_IP8ComputerEEEC2B6v15007ES3_ 0000000140011420     Home.o
 0001:00010450       _ZNSt3__116reverse_iteratorIP8ComputerEC2B6v15007ES2_ 0000000140011450     Home.o
 0001:00010480       _ZNSt3__114__split_bufferI8ComputerRNS_9allocatorIS1_EEED2Ev 0000000140011480     Home.o
 0001:00010500       _ZNSt3__114__split_bufferI8ComputerRNS_9allocatorIS1_EEE5clearB6v15007Ev 0000000140011500     Home.o
 0001:00010520       _ZNKSt3__114__split_bufferI8ComputerRNS_9allocatorIS1_EEE8capacityB6v15007Ev 0000000140011520     Home.o
 0001:00010560       _ZNSt3__114__split_bufferI8ComputerRNS_9allocatorIS1_EEE17__destruct_at_endB6v15007EPS1_ 0000000140011560     Home.o
 0001:00010590       _ZNSt3__114__split_bufferI8ComputerRNS_9allocatorIS1_EEE17__destruct_at_endB6v15007EPS1_NS_17integral_constantIbLb0EEE 0000000140011590     Home.o
 0001:00010610       _ZNKSt3__114__split_bufferI8ComputerRNS_9allocatorIS1_EEE9__end_capB6v15007Ev 0000000140011610     Home.o
 0001:00010630       _ZNKSt3__117__compressed_pairIP8ComputerRNS_9allocatorIS1_EEE5firstB6v15007Ev 0000000140011630     Home.o
 0001:00010650       _ZNSt3__113basic_ostreamIcNS_11char_traitsIcEEEC2B6v15007EPNS_15basic_streambufIcS2_EE 0000000140011650     Home.o
 0001:000106a0       _ZNSt3__111__wrap_iterIP8ComputerEC1B6v15007EPKvS2_ 00000001400116a0     Home.o
 0001:000106d0       _ZNSt3__111__wrap_iterIP8ComputerEC2B6v15007EPKvS2_ 00000001400116d0     Home.o
 0001:00010700       _ZN6System3SetINS_7Uitypes10TMsgDlgBtnELS2_0ELS2_11EEC2Ev 0000000140011700     Home.o
 0001:00010730       _ZNSt3__1miB6v15007IPK8ComputerS3_EEDTmicldtfp_4baseEcldtfp0_4baseEERKNS_11__wrap_iterIT_EERKNS5_IT0_EE 0000000140011730     Home.o
 0001:00010780       _ZNKSt3__16vectorI8ComputerNS_9allocatorIS1_EEE6cbeginB6v15007Ev 0000000140011780     Home.o
 0001:000107b0       _ZNSt3__16vectorI8ComputerNS_9allocatorIS1_EEE17__destruct_at_endB6v15007EPS1_ 00000001400117b0     Home.o
 0001:00010820       _ZNSt3__14moveB6v15007IP8ComputerS2_EET0_T_S4_S3_ 0000000140011820     Home.o
 0001:00010860       _ZNSt3__16vectorI8ComputerNS_9allocatorIS1_EEE27__invalidate_iterators_pastB6v15007EPS1_ 0000000140011860     Home.o
 0001:00010880       _ZNKSt3__111__wrap_iterIPK8ComputerE4baseB6v15007Ev 0000000140011880     Home.o
 0001:00010890       _ZNKSt3__16vectorI8ComputerNS_9allocatorIS1_EEE5beginB6v15007Ev 0000000140011890     Home.o
 0001:000108c0       _ZNSt3__111__wrap_iterIPK8ComputerEC1B6v15007EPKvS3_ 00000001400118c0     Home.o
 0001:000108f0       _ZNSt3__111__wrap_iterIPK8ComputerEC2B6v15007EPKvS3_ 00000001400118f0     Home.o
 0001:00010920       _ZNKSt3__16vectorI8ComputerNS_9allocatorIS1_EEE17__annotate_shrinkB6v15007Ey 0000000140011920     Home.o
 0001:000109e0       _ZNSt3__16__moveB6v15007INS_17_ClassicAlgPolicyEP8ComputerS3_S3_EENS_9enable_ifIXaaaasr21is_copy_constructibleIT0_EE5valuesr21is_copy_constructibleIT1_EE5valuesr21is_copy_constructibleIT2_EE5valueENS_4pairIS5_S7_EEE4typeES5_S6_S7_ 00000001400119e0     Home.o
 0001:00010aa0       _ZNSt3__111__move_implB6v15007INS_17_ClassicAlgPolicyEP8ComputerS3_S3_EENS_4pairIT0_T2_EES5_T1_S6_ 0000000140011aa0     Home.o
 0001:00010b30       _ZNSt3__113__unwrap_iterB6v15007IP8ComputerNS_18__unwrap_iter_implIS2_Lb1EEELi0EEEDTclsrT0_8__unwrapclsr3stdE7declvalIT_EEEES6_ 0000000140011b30     Home.o
 0001:00010b50       _ZNSt3__19make_pairB6v15007IP8ComputerS2_EENS_4pairINS_18__unwrap_ref_decayIT_E4typeENS4_IT0_E4typeEEEOS5_OS8_ 0000000140011b50     Home.o
 0001:00010b90       _ZNSt3__113__rewrap_iterB6v15007IP8ComputerS2_NS_18__unwrap_iter_implIS2_Lb1EEEEET_S5_T0_ 0000000140011b90     Home.o
 0001:00010bd0       _ZNSt3__18_IterOpsINS_17_ClassicAlgPolicyEE11__iter_moveB6v15007IRP8ComputerEENS_9enable_ifIXsr12is_referenceIDTdeclsr3stdE7declvalIRT_EEEEE5valueEDTclsr3stdE4movedeclsr3stdE7declvalIS9_EEEEE4typeEOS8_ 0000000140011bd0     Home.o
 0001:00010bf0       _ZN8ComputeraSEOS_         0000000140011bf0     Home.o
 0001:00010c70       _ZNSt3__18_IterOpsINS_17_ClassicAlgPolicyEE25__validate_iter_referenceB6v15007IRP8ComputerEEvv 0000000140011c70     Home.o
 0001:00010c80       _ZNSt3__16vectorI9ComponentNS_9allocatorIS1_EEEaSB6v15007EOS4_ 0000000140011c80     Home.o
 0001:00010cc0       _ZNSt3__112basic_stringIcNS_11char_traitsIcEENS_9allocatorIcEEEaSB6v15007EOS5_ 0000000140011cc0     Home.o
 0001:00010d00       _ZNSt3__16vectorI9ComponentNS_9allocatorIS1_EEE13__move_assignERS4_NS_17integral_constantIbLb1EEE 0000000140011d00     Home.o
 0001:00010dc0       _ZNSt3__16vectorI9ComponentNS_9allocatorIS1_EEE13__vdeallocateEv 0000000140011dc0     Home.o
 0001:00010e50       _ZNSt3__16vectorI9ComponentNS_9allocatorIS1_EEE19__move_assign_allocB6v15007ERS4_ 0000000140011e50     Home.o
 0001:00010e80       _ZNSt3__16vectorI9ComponentNS_9allocatorIS1_EEE19__move_assign_allocB6v15007ERS4_NS_17integral_constantIbLb1EEE 0000000140011e80     Home.o
 0001:00010ec0       _ZNSt3__112basic_stringIcNS_11char_traitsIcEENS_9allocatorIcEEE13__move_assignB6v15007ERS5_NS_17integral_constantIbLb1EEE 0000000140011ec0     Home.o
 0001:00010fa0       _ZNSt3__116allocator_traitsINS_9allocatorIcEEE10deallocateB6v15007ERS2_Pcy 0000000140011fa0     Home.o
 0001:00010fd0       _ZNSt3__112basic_stringIcNS_11char_traitsIcEENS_9allocatorIcEEE7__allocB6v15007Ev 0000000140011fd0     Home.o
 0001:00010ff0       _ZNKSt3__112basic_stringIcNS_11char_traitsIcEENS_9allocatorIcEEE14__get_long_capB6v15007Ev 0000000140011ff0     Home.o
 0001:00011020       _ZNSt3__112basic_stringIcNS_11char_traitsIcEENS_9allocatorIcEEE19__move_assign_allocB6v15007ERS5_ 0000000140012020     Home.o
 0001:00011050       _ZNSt3__19allocatorIcE10deallocateB6v15007EPcy 0000000140012050     Home.o
 0001:00011090       _ZNSt3__117__compressed_pairINS_12basic_stringIcNS_11char_traitsIcEENS_9allocatorIcEEE5__repES5_E6secondB6v15007Ev 0000000140012090     Home.o
 0001:000110b0       _ZNSt3__122__compressed_pair_elemINS_9allocatorIcEELi1ELb1EE5__getB6v15007Ev 00000001400120b0     Home.o
 0001:000110c0       _ZNSt3__112basic_stringIcNS_11char_traitsIcEENS_9allocatorIcEEE19__move_assign_allocB6v15007ERS5_NS_17integral_constantIbLb1EEE 00000001400120c0     Home.o
 0001:00011100       _ZNSt3__118__unwrap_iter_implIP8ComputerLb1EE8__unwrapB6v15007ES2_ 0000000140012100     Home.o
 0001:00011120       _ZNSt3__14pairIP8ComputerS2_EC1B6v15007IS2_S2_LPv0EEEOT_OT0_ 0000000140012120     Home.o
 0001:00011150       _ZNSt3__14pairIP8ComputerS2_EC2B6v15007IS2_S2_LPv0EEEOT_OT0_ 0000000140012150     Home.o
 0001:00011190       _ZNSt3__118__unwrap_iter_implIP8ComputerLb1EE8__rewrapB6v15007ES2_S2_ 0000000140012190     Home.o
 0001:000111f0       wWinMain                   00000001400121f0     Project2.o
 0001:00011520       _ZN6System7Classes15TComponentClassC1EPNS_10TMetaClassE 0000000140012520     Project2.o
 0001:00011550       _ZN6System7Classes15TComponentClassC2EPNS_10TMetaClassE 0000000140012550     Project2.o
 0001:00011580       _ZN6System15DelphiMetaClassINS_7Classes15TComponentClassEEC2EPNS_10TMetaClassE 0000000140012580     Project2.o
 0001:000115a0       __getmainargs              00000001400125a0     libucrt:lib64_libucrt_extra_a-ucrtbase_compat.o
 0001:00011630       __wgetmainargs             0000000140012630     libucrt:lib64_libucrt_extra_a-ucrtbase_compat.o
 0001:000116c0       _onexit                    00000001400126c0     libucrt:lib64_libucrt_extra_a-ucrtbase_compat.o
 0001:00011710       at_quick_exit              0000000140012710     libucrt:lib64_libucrt_extra_a-ucrtbase_compat.o
 0001:00011750       _amsg_exit                 0000000140012750     libucrt:lib64_libucrt_extra_a-ucrtbase_compat.o
 0001:00011790       _get_output_format         0000000140012790     libucrt:lib64_libucrt_extra_a-ucrtbase_compat.o
 0001:000117a0       _tzset                     00000001400127a0     libucrt:lib64_libucrt_extra_a-ucrtbase_compat.o
 0001:000117e0       tzset                      00000001400127e0     libucrt:lib64_libucrt_extra_a-ucrtbase_compat.o
 0001:000117f0       __ms_fwprintf              00000001400127f0     libucrt:lib64_libucrt_extra_a-ucrtbase_compat.o
 0001:00011850       snprintf                   0000000140012850     libucrt:lib64_libucrt_extra_a-ucrt_snprintf.o
 0001:000118b0       __do_global_dtors          00000001400128b0     libmingw32:lib64_libmingw32_a-gccmain.o
 0001:000118f0       __do_global_ctors          00000001400128f0     libmingw32:lib64_libmingw32_a-gccmain.o
 0001:000119a0       __main                     00000001400129a0     libmingw32:lib64_libmingw32_a-gccmain.o
 0001:000119d0       wmain                      00000001400129d0     libmingw32:lib64_libmingw32_a-ucrtexewin.o
 0001:00011bc0       __dyn_tls_init             0000000140012bc0     libmingw32:lib64_libmingw32_a-tlssup.o
 0001:00011ca0       __tlregdtor                0000000140012ca0     libmingw32:lib64_libmingw32_a-tlssup.o
 0001:00011d40       _matherr                   0000000140012d40     libmingw32:lib64_libmingw32_a-merr.o
 0001:00011e60       _wsetargv                  0000000140012e60     libmingw32:lib64_libmingw32_a-udllargc.o
 0001:00011e70       _fpreset                   0000000140012e70     libmingw32:lib64_libmingw32_a-CRT_fp10.o
 0001:00011e70       fpreset                    0000000140012e70     libmingw32:lib64_libmingw32_a-CRT_fp10.o
 0001:00011e80       _pei386_runtime_relocator  0000000140012e80     libmingw32:lib64_libmingw32_a-pseudo-reloc.o
 0001:00012760       __mingw_raise_matherr      0000000140013760     libmingw32:lib64_libmingw32_a-usermatherr.o
 0001:000127e0       __mingw_setusermatherr     00000001400137e0     libmingw32:lib64_libmingw32_a-usermatherr.o
 0001:00012810       _gnu_exception_handler     0000000140013810     libmingw32:lib64_libmingw32_a-crt_handler.o
 0001:00012af0       _ZNK6System14AnsiStringBase6GetRecEv 0000000140013af0     rtle:dstring.o
 0001:00012b10       _ZN6System14AnsiStringBase6GetRecEv 0000000140013b10     rtle:dstring.o
 0001:00012b30       _ZNK6System14AnsiStringBase6LengthEv 0000000140013b30     rtle:dstring.o
 0001:00012b80       _ZNK6System14AnsiStringBase17ThrowIfOutOfRangeEi 0000000140013b80     rtle:dstring.o
 0001:00012c60       _ZN6System14AnsiStringBaseC2EPKci 0000000140013c60     rtle:dstring.o
 0001:00012c60       _ZN6System14AnsiStringBaseC1EPKci 0000000140013c60     rtle:dstring.o
 0001:00012ce0       _ZN6System14AnsiStringBaseC2ERKS0_ 0000000140013ce0     rtle:dstring.o
 0001:00012ce0       _ZN6System14AnsiStringBaseC1ERKS0_ 0000000140013ce0     rtle:dstring.o
 0001:00012d60       _ZN6System14AnsiStringBaseC2ERKNS_10WideStringEi 0000000140013d60     rtle:dstring.o
 0001:00012d60       _ZN6System14AnsiStringBaseC1ERKNS_10WideStringEi 0000000140013d60     rtle:dstring.o
 0001:00012de0       _ZN6System14AnsiStringBaseC2ERKNS_13UnicodeStringEi 0000000140013de0     rtle:dstring.o
 0001:00012de0       _ZN6System14AnsiStringBaseC1ERKNS_13UnicodeStringEi 0000000140013de0     rtle:dstring.o
 0001:00012e60       _ZN6System14AnsiStringBaseC2EPKcii 0000000140013e60     rtle:dstring.o
 0001:00012e60       _ZN6System14AnsiStringBaseC1EPKcii 0000000140013e60     rtle:dstring.o
 0001:00012ee0       _ZN6System14AnsiStringBase9SetLengthEii 0000000140013ee0     rtle:dstring.o
 0001:00012f50       _ZN6System14AnsiStringBase15_AnsiFromPWCharERS0_PKwii 0000000140013f50     rtle:dstring.o
 0001:00012fd0       _ZN6System14AnsiStringBaseC2EPKwii 0000000140013fd0     rtle:dstring.o
 0001:00012fd0       _ZN6System14AnsiStringBaseC1EPKwii 0000000140013fd0     rtle:dstring.o
 0001:00013040       _ZN6System14AnsiStringBaseC2EPKDsii 0000000140014040     rtle:dstring.o
 0001:00013040       _ZN6System14AnsiStringBaseC1EPKDsii 0000000140014040     rtle:dstring.o
 0001:000130b0       _ZN6System14AnsiStringBaseC2EPKDiii 00000001400140b0     rtle:dstring.o
 0001:000130b0       _ZN6System14AnsiStringBaseC1EPKDiii 00000001400140b0     rtle:dstring.o
 0001:000131b0       _ZN6System14AnsiStringBaseaSERKS0_ 00000001400141b0     rtle:dstring.o
 0001:000131e0       _ZN6System14AnsiStringBaseC2Ewi 00000001400141e0     rtle:dstring.o
 0001:000131e0       _ZN6System14AnsiStringBaseC1Ewi 00000001400141e0     rtle:dstring.o
 0001:00013260       _ZN6System14AnsiStringBaseC2EDii 0000000140014260     rtle:dstring.o
 0001:00013260       _ZN6System14AnsiStringBaseC1EDii 0000000140014260     rtle:dstring.o
 0001:00013350       _ZN6System14AnsiStringBaseC2Edi 0000000140014350     rtle:dstring.o
 0001:00013350       _ZN6System14AnsiStringBaseC1Edi 0000000140014350     rtle:dstring.o
 0001:00013440       _ZN6System14AnsiStringBaseD2Ev 0000000140014440     rtle:dstring.o
 0001:00013440       _ZN6System14AnsiStringBaseD1Ev 0000000140014440     rtle:dstring.o
 0001:00013470       _ZN6System14AnsiStringBase8_AnsiCatERS0_RKS0_ 0000000140014470     rtle:dstring.o
 0001:000134a0       _ZN6System14AnsiStringBase8_AnsiCatERS0_RKS0_S3_ 00000001400144a0     rtle:dstring.o
 0001:000134e0       _ZNK6System14AnsiStringBaseeqERKS0_ 00000001400144e0     rtle:dstring.o
 0001:00013510       _ZNK6System14AnsiStringBase11AnsiCompareERKS0_ 0000000140014510     rtle:dstring.o
 0001:00013590       _ZNK6System14AnsiStringBaseneERKS0_ 0000000140014590     rtle:dstring.o
 0001:000135c0       _ZNK6System14AnsiStringBaseltERKS0_ 00000001400145c0     rtle:dstring.o
 0001:000135f0       _ZNK6System14AnsiStringBasegtERKS0_ 00000001400145f0     rtle:dstring.o
 0001:00013620       _ZNK6System14AnsiStringBase13AnsiCompareICERKS0_ 0000000140014620     rtle:dstring.o
 0001:00013650       _ZN6System14AnsiStringBase12StringOfCharEci 0000000140014650     rtle:dstring.o
 0001:00013700       _ZN6System14AnsiStringBase7LoadStrEii 0000000140014700     rtle:dstring.o
 0001:000137b0       _ZN6System14AnsiStringBase7LoadStrEP11HINSTANCE__ii 00000001400147b0     rtle:dstring.o
 0001:00013850       _ZN6System14AnsiStringBase11LoadStringAEP11HINSTANCE__ii 0000000140014850     rtle:dstring.o
 0001:00013a10       _ZN6System14AnsiStringBase10FmtLoadStrEiPKNS_7TVarRecEii 0000000140014a10     rtle:dstring.o
 0001:00013af0       _ZN6System14AnsiStringBase6FormatERKS0_PKNS_7TVarRecEii 0000000140014af0     rtle:dstring.o
 0001:00013bd0       _ZN6System14AnsiStringBase11FormatFloatERKS0_RKei 0000000140014bd0     rtle:dstring.o
 0001:00013cd0       _ZN6System14AnsiStringBase7vprintfEiPKcPc 0000000140014cd0     rtle:dstring.o
 0001:00013d70       _ZN6System14AnsiStringBase11cat_vprintfEiPKcPc 0000000140014d70     rtle:dstring.o
 0001:00013e20       _ZN6System14AnsiStringBase11FloatToStrFEeNS0_18TStringFloatFormatEiii 0000000140014e20     rtle:dstring.o
 0001:00013f20       _ZN6System14AnsiStringBase8IntToHexEiii 0000000140014f20     rtle:dstring.o
 0001:00013fe0       _ZN6System14AnsiStringBase9CurrToStrERKNS_8CurrencyEi 0000000140014fe0     rtle:dstring.o
 0001:00014090       _ZN6System14AnsiStringBase10CurrToStrFERKNS_8CurrencyENS0_18TStringFloatFormatEii 0000000140015090     rtle:dstring.o
 0001:00014170       _ZNK6System14AnsiStringBase15WideCharBufSizeEi 0000000140015170     rtle:dstring.o
 0001:000141f0       _ZNK6System14AnsiStringBase8WideCharEPwii 00000001400151f0     rtle:dstring.o
 0001:00014280       _ZN6System14AnsiStringBase7Insert1ERKS0_i 0000000140015280     rtle:dstring.o
 0001:000142c0       _ZN6System14AnsiStringBase7Insert0ERKS0_i 00000001400152c0     rtle:dstring.o
 0001:000144c0       _ZN6System14AnsiStringBase4swapERS0_ 00000001400154c0     rtle:dstring.o
 0001:00014500       _ZN6System14AnsiStringBase7Delete1Eii 0000000140015500     rtle:dstring.o
 0001:00014540       _ZN6System14AnsiStringBase7Delete0Eii 0000000140015540     rtle:dstring.o
 0001:00014710       _ZNK6System14AnsiStringBase4Pos1ERKS0_ 0000000140015710     rtle:dstring.o
 0001:00014740       _ZNK6System14AnsiStringBase4Pos0ERKS0_ 0000000140015740     rtle:dstring.o
 0001:00014770       _ZNK6System14AnsiStringBase9LowerCaseEi 0000000140015770     rtle:dstring.o
 0001:00014820       _ZNK6System14AnsiStringBase9UpperCaseEi 0000000140015820     rtle:dstring.o
 0001:000148d0       _ZNK6System14AnsiStringBase4TrimEi 00000001400158d0     rtle:dstring.o
 0001:00014980       _ZNK6System14AnsiStringBase8TrimLeftEi 0000000140015980     rtle:dstring.o
 0001:00014a30       _ZNK6System14AnsiStringBase9TrimRightEi 0000000140015a30     rtle:dstring.o
 0001:00014ae0       _ZNK6System14AnsiStringBase10SubString1Eii 0000000140015ae0     rtle:dstring.o
 0001:00014bd0       _ZNK6System14AnsiStringBase10SubString0Eii 0000000140015bd0     rtle:dstring.o
 0001:00014c20       _ZNK6System14AnsiStringBase5ToIntEv 0000000140015c20     rtle:dstring.o
 0001:00014c90       _ZNK6System14AnsiStringBase8ToIntDefEi 0000000140015c90     rtle:dstring.o
 0001:00014d10       _ZNK6System14AnsiStringBase8ToDoubleEv 0000000140015d10     rtle:dstring.o
 0001:00014d80       _ZNK6System14AnsiStringBase12IsDelimiter1ERKS0_i 0000000140015d80     rtle:dstring.o
 0001:00014dc0       _ZNK6System14AnsiStringBase12IsDelimiter0ERKS0_i 0000000140015dc0     rtle:dstring.o
 0001:00014ea0       _ZNK6System14AnsiStringBase8AnsiPos1ERKS0_ 0000000140015ea0     rtle:dstring.o
 0001:00014ed0       _ZNK6System14AnsiStringBase8AnsiPos0ERKS0_ 0000000140015ed0     rtle:dstring.o
 0001:00014f00       _ZNK6System14AnsiStringBase16IsPathDelimiter1Ei 0000000140015f00     rtle:dstring.o
 0001:00014f30       _ZNK6System14AnsiStringBase16IsPathDelimiter0Ei 0000000140015f30     rtle:dstring.o
 0001:00014f60       _ZNK6System14AnsiStringBase14LastDelimiter1ERKS0_ 0000000140015f60     rtle:dstring.o
 0001:00014f90       _ZNK6System14AnsiStringBase14LastDelimiter0ERKS0_ 0000000140015f90     rtle:dstring.o
 0001:00015070       _ZNK6System14AnsiStringBase9ByteType1Ei 0000000140016070     rtle:dstring.o
 0001:000150a0       _ZNK6System14AnsiStringBase9ByteType0Ei 00000001400160a0     rtle:dstring.o
 0001:000150d0       _ZNK6System14AnsiStringBase11IsLeadByte1Ei 00000001400160d0     rtle:dstring.o
 0001:00015110       _ZNK6System14AnsiStringBase11IsLeadByte0Ei 0000000140016110     rtle:dstring.o
 0001:00015140       _ZNK6System14AnsiStringBase12IsTrailByte1Ei 0000000140016140     rtle:dstring.o
 0001:00015180       _ZNK6System14AnsiStringBase12IsTrailByte0Ei 0000000140016180     rtle:dstring.o
 0001:000151b0       _ZNK6System14AnsiStringBase7BytesOfEv 00000001400161b0     rtle:dstring.o
 0001:000151f0       _ZNK6System14AnsiStringBase12AnsiLastCharEv 00000001400161f0     rtle:dstring.o
 0001:00015250       _ZN6System8Sysutils11ERangeErrorC3ENS_13UnicodeStringE 0000000140016250     rtle:dstring.o
 0001:00015330       _ZN6System8Sysutils11ERangeErrorD0Ev 0000000140016330     rtle:dstring.o
 0001:00015380       _ZN6System8_CharLenIwEEiPKT_ 0000000140016380     rtle:dstring.o
 0001:000153e0       _ZN6System8_CharLenIDsEEiPKT_ 00000001400163e0     rtle:dstring.o
 0001:00015440       _ZN6System14AnsiStringBaseC2ILt0EEEONS_11AnsiStringTIXT_EEE 0000000140016440     rtle:dstring.o
 0001:00015470       _ZN6System13UnicodeStringC2ILt0EEERKNS_11AnsiStringTIXT_EEE 0000000140016470     rtle:dstring.o
 0001:000154a0       _ZNK6System14AnsiStringBase8CodePageEv 00000001400164a0     rtle:dstring.o
 0001:000154f0       _ZNK6System14AnsiStringBaseixEi 00000001400164f0     rtle:dstring.o
 0001:00015530       _ZN6System8Sysutils9EIntErrorC3ENS_13UnicodeStringE 0000000140016530     rtle:dstring.o
 0001:00015610       _ZN6System8Sysutils9EExternalC3ENS_13UnicodeStringE 0000000140016610     rtle:dstring.o
 0001:000156f0       _ZN6System8Sysutils9EIntErrorD0Ev 00000001400166f0     rtle:dstring.o
 0001:00015740       _ZN6System8Sysutils9EExternalD0Ev 0000000140016740     rtle:dstring.o
 0001:00015790       _ZN6System18LoadResourceStringEPKNS_13TResStringRecE 0000000140016790     rtle:syssupp.o
 0001:000157c0       _ZN6System19CheckSafecallResultEl 00000001400167c0     rtle:syssupp.o
 0001:000157e0       _ZN6System16InterLockedExchgEPPvS0_ 00000001400167e0     rtle:syssupp.o
 0001:00015810       .weak._ZN6System17TAggregatedObject13GetControllerEv.default._ZN6System18LoadResourceStringEPKNS_13TResStringRecE 0000000140016810     rtle:syssupp.o
 0001:00015810       .weak._ZN6System17TAggregatedObject13GetControllerEv.default._ZN6System18LoadResourceStringEPKNS_13TResStringRecE 0000000140016810     rtle:syssupp.o
 0001:000158d0       __dynamic_delphi_cast      00000001400168d0     rtle:syssupp.o
 0001:000159c0       __delphi_type_info         00000001400169c0     rtle:syssupp.o
 0001:00015ed0       __dynamic_delphi_type_info 0000000140016ed0     rtle:syssupp.o
 0001:00015f20       System_InstWeakClear       0000000140016f20     rtle:syssupp.o
 0001:00015f30       System_InstWeakCopy        0000000140016f30     rtle:syssupp.o
 0001:00015f50       System_AsgClosureObj       0000000140016f50     rtle:syssupp.o
 0001:00015f70       System_ClosureAddWeakRef   0000000140016f70     rtle:syssupp.o
 0001:00015f80       System_ClosureRemoveWeakRef 0000000140016f80     rtle:syssupp.o
 0001:00015f90       System_CopyClosure         0000000140016f90     rtle:syssupp.o
 0001:00015fb0       bcp_storeStrong            0000000140016fb0     rtle:syssupp.o
 0001:000160b0       bcp_initStrong             00000001400170b0     rtle:syssupp.o
 0001:000161a0       bcp_addref                 00000001400171a0     rtle:syssupp.o
 0001:00016220       bcp_release                0000000140017220     rtle:syssupp.o
 0001:000162f0       bcp_initWeak               00000001400172f0     rtle:syssupp.o
 0001:000163e0       bcp_releaseWeak            00000001400173e0     rtle:syssupp.o
 0001:000164a0       bcp_storeWeak              00000001400174a0     rtle:syssupp.o
 0001:00016580       bcp_closureAddref          0000000140017580     rtle:syssupp.o
 0001:000165a0       bcp_closureRelease         00000001400175a0     rtle:syssupp.o
 0001:000165c0       bcp_closureCopy            00000001400175c0     rtle:syssupp.o
 0001:000165f0       bcp_closureAsg             00000001400175f0     rtle:syssupp.o
 0001:00016620       _Z17DebugHlpr_HRCHECKIKcEllPT_S2_i 0000000140017620     rtle:syssupp.o
 0001:000166b0       _ZN6System15DelphiInterfaceINS_10IInterfaceEEadEv 00000001400176b0     rtle:syssupp.o
 0001:000166c0       _ZN6System15DelphiInterfaceINS_10IInterfaceEED2Ev 00000001400176c0     rtle:syssupp.o
 0001:00016710       _ZNSt3__110lock_guardINS_5mutexEEC2B6v15007ERS1_ 0000000140017710     rtle:syssupp.o
 0001:00016740       _ZNSt3__113unordered_mapIPN6System7Typinfo9TTypeInfoEPSt9type_infoNS_4hashIS4_EENS_8equal_toIS4_EENS_9allocatorINS_4pairIKS4_S6_EEEEEC2B6v15007Ev 0000000140017740     rtle:syssupp.o
 0001:00016780       _ZNSt3__113unordered_mapIPN6System7Typinfo9TTypeInfoEPSt9type_infoNS_4hashIS4_EENS_8equal_toIS4_EENS_9allocatorINS_4pairIKS4_S6_EEEEED2B6v15007Ev 0000000140017780     rtle:syssupp.o
 0001:000167a0       _ZNSt3__113unordered_mapIPN6System7Typinfo9TTypeInfoEPSt9type_infoNS_4hashIS4_EENS_8equal_toIS4_EENS_9allocatorINS_4pairIKS4_S6_EEEEEixERSD_ 00000001400177a0     rtle:syssupp.o
 0001:00016830       _ZN6System11AnsiStringTILt65001EEC2ERKNS_13UnicodeStringE 0000000140017830     rtle:syssupp.o
 0001:00016880       _ZNK6System11AnsiStringTILt65001EEplERKS1_ 0000000140017880     rtle:syssupp.o
 0001:00016920       _ZN6System11AnsiStringTILt65001EEC2EPKc 0000000140017920     rtle:syssupp.o
 0001:00016970       _ZN6System11AnsiStringTILt65001EEC2Ev 0000000140017970     rtle:syssupp.o
 0001:000169a0       _ZN6System11AnsiStringTILt65001EEaSERKS1_ 00000001400179a0     rtle:syssupp.o
 0001:000169d0       _ZN6System11AnsiStringTILt65001EED2Ev 00000001400179d0     rtle:syssupp.o
 0001:000169f0       _ZN10__cxxabiv117__class_type_infoC2Ev 00000001400179f0     rtle:syssupp.o
 0001:00016a20       _ZNK6System11AnsiStringTILt65001EE5c_strEv 0000000140017a20     rtle:syssupp.o
 0001:00016a70       _ZNSt3__110lock_guardINS_5mutexEED2B6v15007Ev 0000000140017a70     rtle:syssupp.o
 0001:00016a90       _ZN10__cxxabiv116__shim_type_infoC2Ev 0000000140017a90     rtle:syssupp.o
 0001:00016ac0       _ZNSt3__112__hash_tableINS_17__hash_value_typeIPN6System7Typinfo9TTypeInfoEPSt9type_infoEENS_22__unordered_map_hasherIS5_S8_NS_4hashIS5_EENS_8equal_toIS5_EELb1EEENS_21__unordered_map_equalIS5_S8_SD_SB_Lb1EEENS_9allocatorIS8_EEEC2Ev 0000000140017ac0     rtle:syssupp.o
 0001:00016b50       _ZNSt3__119__debug_db_insert_cB6v15007INS_13unordered_mapIPN6System7Typinfo9TTypeInfoEPSt9type_infoNS_4hashIS5_EENS_8equal_toIS5_EENS_9allocatorINS_4pairIKS5_S7_EEEEEEEEvPT_ 0000000140017b50     rtle:syssupp.o
 0001:00016b60       _ZNSt3__110unique_ptrIA_PNS_16__hash_node_baseIPNS_11__hash_nodeINS_17__hash_value_typeIPN6System7Typinfo9TTypeInfoEPSt9type_infoEEPvEEEENS_25__bucket_list_deallocatorINS_9allocatorISF_EEEEEC2B6v15007ILb1EvEEv 0000000140017b60     rtle:syssupp.o
 0001:00016b90       _ZNSt3__117__compressed_pairINS_16__hash_node_baseIPNS_11__hash_nodeINS_17__hash_value_typeIPN6System7Typinfo9TTypeInfoEPSt9type_infoEEPvEEEENS_9allocatorISC_EEEC2B6v15007ILb1EvEEv 0000000140017b90     rtle:syssupp.o
 0001:00016bc0       _ZNSt3__117__compressed_pairIyNS_22__unordered_map_hasherIPN6System7Typinfo9TTypeInfoENS_17__hash_value_typeIS5_PSt9type_infoEENS_4hashIS5_EENS_8equal_toIS5_EELb1EEEEC2B6v15007IiNS_18__default_init_tagEEEOT_OT0_ 0000000140017bc0     rtle:syssupp.o
 0001:00016c00       _ZNSt3__117__compressed_pairIfNS_21__unordered_map_equalIPN6System7Typinfo9TTypeInfoENS_17__hash_value_typeIS5_PSt9type_infoEENS_8equal_toIS5_EENS_4hashIS5_EELb1EEEEC2B6v15007IfNS_18__default_init_tagEEEOT_OT0_ 0000000140017c00     rtle:syssupp.o
 0001:00016c40       _ZNSt3__117__compressed_pairIPPNS_16__hash_node_baseIPNS_11__hash_nodeINS_17__hash_value_typeIPN6System7Typinfo9TTypeInfoEPSt9type_infoEEPvEEEENS_25__bucket_list_deallocatorINS_9allocatorISF_EEEEEC2B6v15007INS_16__value_init_tagESN_EEOT_OT0_ 0000000140017c40     rtle:syssupp.o
 0001:00016c80       _ZNSt3__122__compressed_pair_elemIPPNS_16__hash_node_baseIPNS_11__hash_nodeINS_17__hash_value_typeIPN6System7Typinfo9TTypeInfoEPSt9type_infoEEPvEEEELi0ELb0EEC2B6v15007ENS_16__value_init_tagE 0000000140017c80     rtle:syssupp.o
 0001:00016ca0       _ZNSt3__122__compressed_pair_elemINS_25__bucket_list_deallocatorINS_9allocatorIPNS_16__hash_node_baseIPNS_11__hash_nodeINS_17__hash_value_typeIPN6System7Typinfo9TTypeInfoEPSt9type_infoEEPvEEEEEEEELi1ELb0EEC2B6v15007ENS_16__value_init_tagE 0000000140017ca0     rtle:syssupp.o
 0001:00016cc0       _ZNSt3__125__bucket_list_deallocatorINS_9allocatorIPNS_16__hash_node_baseIPNS_11__hash_nodeINS_17__hash_value_typeIPN6System7Typinfo9TTypeInfoEPSt9type_infoEEPvEEEEEEEC2B6v15007Ev 0000000140017cc0     rtle:syssupp.o
 0001:00016d00       _ZNSt3__117__compressed_pairIyNS_9allocatorIPNS_16__hash_node_baseIPNS_11__hash_nodeINS_17__hash_value_typeIPN6System7Typinfo9TTypeInfoEPSt9type_infoEEPvEEEEEEEC2B6v15007IiNS_18__default_init_tagEEEOT_OT0_ 0000000140017d00     rtle:syssupp.o
 0001:00016d40       _ZNSt3__122__compressed_pair_elemIyLi0ELb0EEC2B6v15007IivEEOT_ 0000000140017d40     rtle:syssupp.o
 0001:00016d70       _ZNSt3__122__compressed_pair_elemINS_9allocatorIPNS_16__hash_node_baseIPNS_11__hash_nodeINS_17__hash_value_typeIPN6System7Typinfo9TTypeInfoEPSt9type_infoEEPvEEEEEELi1ELb1EEC2B6v15007ENS_18__default_init_tagE 0000000140017d70     rtle:syssupp.o
 0001:00016d90       _ZNSt3__19allocatorIPNS_16__hash_node_baseIPNS_11__hash_nodeINS_17__hash_value_typeIPN6System7Typinfo9TTypeInfoEPSt9type_infoEEPvEEEEEC2B6v15007Ev 0000000140017d90     rtle:syssupp.o
 0001:00016db0       _ZNSt3__116__non_trivial_ifILb1ENS_9allocatorIPNS_16__hash_node_baseIPNS_11__hash_nodeINS_17__hash_value_typeIPN6System7Typinfo9TTypeInfoEPSt9type_infoEEPvEEEEEEEC2B6v15007Ev 0000000140017db0     rtle:syssupp.o
 0001:00016dc0       _ZNSt3__122__compressed_pair_elemINS_16__hash_node_baseIPNS_11__hash_nodeINS_17__hash_value_typeIPN6System7Typinfo9TTypeInfoEPSt9type_infoEEPvEEEELi0ELb0EEC2B6v15007ENS_16__value_init_tagE 0000000140017dc0     rtle:syssupp.o
 0001:00016de0       _ZNSt3__122__compressed_pair_elemINS_9allocatorINS_11__hash_nodeINS_17__hash_value_typeIPN6System7Typinfo9TTypeInfoEPSt9type_infoEEPvEEEELi1ELb1EEC2B6v15007ENS_16__value_init_tagE 0000000140017de0     rtle:syssupp.o
 0001:00016e00       _ZNSt3__116__hash_node_baseIPNS_11__hash_nodeINS_17__hash_value_typeIPN6System7Typinfo9TTypeInfoEPSt9type_infoEEPvEEEC2B6v15007Ev 0000000140017e00     rtle:syssupp.o
 0001:00016e20       _ZNSt3__19allocatorINS_11__hash_nodeINS_17__hash_value_typeIPN6System7Typinfo9TTypeInfoEPSt9type_infoEEPvEEEC2B6v15007Ev 0000000140017e20     rtle:syssupp.o
 0001:00016e40       _ZNSt3__116__non_trivial_ifILb1ENS_9allocatorINS_11__hash_nodeINS_17__hash_value_typeIPN6System7Typinfo9TTypeInfoEPSt9type_infoEEPvEEEEEC2B6v15007Ev 0000000140017e40     rtle:syssupp.o
 0001:00016e50       _ZNSt3__122__compressed_pair_elemINS_22__unordered_map_hasherIPN6System7Typinfo9TTypeInfoENS_17__hash_value_typeIS5_PSt9type_infoEENS_4hashIS5_EENS_8equal_toIS5_EELb1EEELi1ELb1EEC2B6v15007ENS_18__default_init_tagE 0000000140017e50     rtle:syssupp.o
 0001:00016e70       _ZNSt3__122__unordered_map_hasherIPN6System7Typinfo9TTypeInfoENS_17__hash_value_typeIS4_PSt9type_infoEENS_4hashIS4_EENS_8equal_toIS4_EELb1EEC2B6v15007Ev 0000000140017e70     rtle:syssupp.o
 0001:00016e80       _ZNSt3__122__compressed_pair_elemIfLi0ELb0EEC2B6v15007IfvEEOT_ 0000000140017e80     rtle:syssupp.o
 0001:00016eb0       _ZNSt3__122__compressed_pair_elemINS_21__unordered_map_equalIPN6System7Typinfo9TTypeInfoENS_17__hash_value_typeIS5_PSt9type_infoEENS_8equal_toIS5_EENS_4hashIS5_EELb1EEELi1ELb1EEC2B6v15007ENS_18__default_init_tagE 0000000140017eb0     rtle:syssupp.o
 0001:00016ed0       _ZNSt3__121__unordered_map_equalIPN6System7Typinfo9TTypeInfoENS_17__hash_value_typeIS4_PSt9type_infoEENS_8equal_toIS4_EENS_4hashIS4_EELb1EEC2B6v15007Ev 0000000140017ed0     rtle:syssupp.o
 0001:00016ee0       _ZNSt3__112__hash_tableINS_17__hash_value_typeIPN6System7Typinfo9TTypeInfoEPSt9type_infoEENS_22__unordered_map_hasherIS5_S8_NS_4hashIS5_EENS_8equal_toIS5_EELb1EEENS_21__unordered_map_equalIS5_S8_SD_SB_Lb1EEENS_9allocatorIS8_EEED2Ev 0000000140017ee0     rtle:syssupp.o
 0001:00016f40       _ZNSt3__112__hash_tableINS_17__hash_value_typeIPN6System7Typinfo9TTypeInfoEPSt9type_infoEENS_22__unordered_map_hasherIS5_S8_NS_4hashIS5_EENS_8equal_toIS5_EELb1EEENS_21__unordered_map_equalIS5_S8_SD_SB_Lb1EEENS_9allocatorIS8_EEE17__deallocate_nodeEPNS_16__hash_node_baseIPNS_11__hash_nodeIS8_PvEEEE 0000000140017f40     rtle:syssupp.o
 0001:00016ff0       _ZNSt3__117__compressed_pairINS_16__hash_node_baseIPNS_11__hash_nodeINS_17__hash_value_typeIPN6System7Typinfo9TTypeInfoEPSt9type_infoEEPvEEEENS_9allocatorISC_EEE5firstB6v15007Ev 0000000140017ff0     rtle:syssupp.o
 0001:00017010       _ZNSt3__118__debug_db_erase_cB6v15007INS_12__hash_tableINS_17__hash_value_typeIPN6System7Typinfo9TTypeInfoEPSt9type_infoEENS_22__unordered_map_hasherIS6_S9_NS_4hashIS6_EENS_8equal_toIS6_EELb1EEENS_21__unordered_map_equalIS6_S9_SE_SC_Lb1EEENS_9allocatorIS9_EEEEEEvPT_ 0000000140018010     rtle:syssupp.o
 0001:00017020       _ZNSt3__110unique_ptrIA_PNS_16__hash_node_baseIPNS_11__hash_nodeINS_17__hash_value_typeIPN6System7Typinfo9TTypeInfoEPSt9type_infoEEPvEEEENS_25__bucket_list_deallocatorINS_9allocatorISF_EEEEED2B6v15007Ev 0000000140018020     rtle:syssupp.o
 0001:00017040       _ZNSt3__112__hash_tableINS_17__hash_value_typeIPN6System7Typinfo9TTypeInfoEPSt9type_infoEENS_22__unordered_map_hasherIS5_S8_NS_4hashIS5_EENS_8equal_toIS5_EELb1EEENS_21__unordered_map_equalIS5_S8_SD_SB_Lb1EEENS_9allocatorIS8_EEE12__node_allocB6v15007Ev 0000000140018040     rtle:syssupp.o
 0001:00017060       _ZNSt3__116__hash_node_baseIPNS_11__hash_nodeINS_17__hash_value_typeIPN6System7Typinfo9TTypeInfoEPSt9type_infoEEPvEEE8__upcastB6v15007Ev 0000000140018060     rtle:syssupp.o
 0001:00017080       _ZNSt3__116allocator_traitsINS_9allocatorINS_11__hash_nodeINS_17__hash_value_typeIPN6System7Typinfo9TTypeInfoEPSt9type_infoEEPvEEEEE7destroyB6v15007INS_4pairIKS7_S9_EEvvEEvRSD_PT_ 0000000140018080     rtle:syssupp.o
 0001:000170a0       _ZNSt3__122__hash_key_value_typesINS_17__hash_value_typeIPN6System7Typinfo9TTypeInfoEPSt9type_infoEEE9__get_ptrB6v15007ERS8_ 00000001400180a0     rtle:syssupp.o
 0001:000170c0       _ZNSt3__116allocator_traitsINS_9allocatorINS_11__hash_nodeINS_17__hash_value_typeIPN6System7Typinfo9TTypeInfoEPSt9type_infoEEPvEEEEE10deallocateB6v15007ERSD_PSC_y 00000001400180c0     rtle:syssupp.o
 0001:000170f0       _ZNSt3__117__compressed_pairINS_16__hash_node_baseIPNS_11__hash_nodeINS_17__hash_value_typeIPN6System7Typinfo9TTypeInfoEPSt9type_infoEEPvEEEENS_9allocatorISC_EEE6secondB6v15007Ev 00000001400180f0     rtle:syssupp.o
 0001:00017110       _ZNSt3__122__compressed_pair_elemINS_9allocatorINS_11__hash_nodeINS_17__hash_value_typeIPN6System7Typinfo9TTypeInfoEPSt9type_infoEEPvEEEELi1ELb1EE5__getB6v15007Ev 0000000140018110     rtle:syssupp.o
 0001:00017120       _ZNSt3__114pointer_traitsIPNS_16__hash_node_baseIPNS_11__hash_nodeINS_17__hash_value_typeIPN6System7Typinfo9TTypeInfoEPSt9type_infoEEPvEEEEE10pointer_toB6v15007ERSE_ 0000000140018120     rtle:syssupp.o
 0001:00017130       _ZNSt3__117__hash_value_typeIPN6System7Typinfo9TTypeInfoEPSt9type_infoE11__get_valueB6v15007Ev 0000000140018130     rtle:syssupp.o
 0001:00017150       _ZNSt3__17launderB6v15007INS_4pairIKPN6System7Typinfo9TTypeInfoEPSt9type_infoEEEEPT_SB_ 0000000140018150     rtle:syssupp.o
 0001:00017170       _ZNSt3__19__launderB6v15007INS_4pairIKPN6System7Typinfo9TTypeInfoEPSt9type_infoEEEEPT_SB_ 0000000140018170     rtle:syssupp.o
 0001:00017180       _ZNSt3__19allocatorINS_11__hash_nodeINS_17__hash_value_typeIPN6System7Typinfo9TTypeInfoEPSt9type_infoEEPvEEE10deallocateB6v15007EPSB_y 0000000140018180     rtle:syssupp.o
 0001:000171c0       _ZNSt3__122__compressed_pair_elemINS_16__hash_node_baseIPNS_11__hash_nodeINS_17__hash_value_typeIPN6System7Typinfo9TTypeInfoEPSt9type_infoEEPvEEEELi0ELb0EE5__getB6v15007Ev 00000001400181c0     rtle:syssupp.o
 0001:000171d0       _ZNSt3__110unique_ptrIA_PNS_16__hash_node_baseIPNS_11__hash_nodeINS_17__hash_value_typeIPN6System7Typinfo9TTypeInfoEPSt9type_infoEEPvEEEENS_25__bucket_list_deallocatorINS_9allocatorISF_EEEEE5resetB6v15007EDn 00000001400181d0     rtle:syssupp.o
 0001:00017230       _ZNSt3__117__compressed_pairIPPNS_16__hash_node_baseIPNS_11__hash_nodeINS_17__hash_value_typeIPN6System7Typinfo9TTypeInfoEPSt9type_infoEEPvEEEENS_25__bucket_list_deallocatorINS_9allocatorISF_EEEEE5firstB6v15007Ev 0000000140018230     rtle:syssupp.o
 0001:00017250       _ZNSt3__117__compressed_pairIPPNS_16__hash_node_baseIPNS_11__hash_nodeINS_17__hash_value_typeIPN6System7Typinfo9TTypeInfoEPSt9type_infoEEPvEEEENS_25__bucket_list_deallocatorINS_9allocatorISF_EEEEE6secondB6v15007Ev 0000000140018250     rtle:syssupp.o
 0001:00017270       _ZNSt3__125__bucket_list_deallocatorINS_9allocatorIPNS_16__hash_node_baseIPNS_11__hash_nodeINS_17__hash_value_typeIPN6System7Typinfo9TTypeInfoEPSt9type_infoEEPvEEEEEEEclB6v15007EPSG_ 0000000140018270     rtle:syssupp.o
 0001:000172c0       _ZNSt3__122__compressed_pair_elemIPPNS_16__hash_node_baseIPNS_11__hash_nodeINS_17__hash_value_typeIPN6System7Typinfo9TTypeInfoEPSt9type_infoEEPvEEEELi0ELb0EE5__getB6v15007Ev 00000001400182c0     rtle:syssupp.o
 0001:000172d0       _ZNSt3__122__compressed_pair_elemINS_25__bucket_list_deallocatorINS_9allocatorIPNS_16__hash_node_baseIPNS_11__hash_nodeINS_17__hash_value_typeIPN6System7Typinfo9TTypeInfoEPSt9type_infoEEPvEEEEEEEELi1ELb0EE5__getB6v15007Ev 00000001400182d0     rtle:syssupp.o
 0001:000172e0       _ZNSt3__116allocator_traitsINS_9allocatorIPNS_16__hash_node_baseIPNS_11__hash_nodeINS_17__hash_value_typeIPN6System7Typinfo9TTypeInfoEPSt9type_infoEEPvEEEEEEE10deallocateB6v15007ERSH_PSG_y 00000001400182e0     rtle:syssupp.o
 0001:00017310       _ZNSt3__125__bucket_list_deallocatorINS_9allocatorIPNS_16__hash_node_baseIPNS_11__hash_nodeINS_17__hash_value_typeIPN6System7Typinfo9TTypeInfoEPSt9type_infoEEPvEEEEEEE7__allocB6v15007Ev 0000000140018310     rtle:syssupp.o
 0001:00017330       _ZNSt3__125__bucket_list_deallocatorINS_9allocatorIPNS_16__hash_node_baseIPNS_11__hash_nodeINS_17__hash_value_typeIPN6System7Typinfo9TTypeInfoEPSt9type_infoEEPvEEEEEEE4sizeB6v15007Ev 0000000140018330     rtle:syssupp.o
 0001:00017350       _ZNSt3__19allocatorIPNS_16__hash_node_baseIPNS_11__hash_nodeINS_17__hash_value_typeIPN6System7Typinfo9TTypeInfoEPSt9type_infoEEPvEEEEE10deallocateB6v15007EPSF_y 0000000140018350     rtle:syssupp.o
 0001:00017390       _ZNSt3__117__compressed_pairIyNS_9allocatorIPNS_16__hash_node_baseIPNS_11__hash_nodeINS_17__hash_value_typeIPN6System7Typinfo9TTypeInfoEPSt9type_infoEEPvEEEEEEE6secondB6v15007Ev 0000000140018390     rtle:syssupp.o
 0001:000173b0       _ZNSt3__122__compressed_pair_elemINS_9allocatorIPNS_16__hash_node_baseIPNS_11__hash_nodeINS_17__hash_value_typeIPN6System7Typinfo9TTypeInfoEPSt9type_infoEEPvEEEEEELi1ELb1EE5__getB6v15007Ev 00000001400183b0     rtle:syssupp.o
 0001:000173c0       _ZNSt3__117__compressed_pairIyNS_9allocatorIPNS_16__hash_node_baseIPNS_11__hash_nodeINS_17__hash_value_typeIPN6System7Typinfo9TTypeInfoEPSt9type_infoEEPvEEEEEEE5firstB6v15007Ev 00000001400183c0     rtle:syssupp.o
 0001:000173e0       _ZNSt3__122__compressed_pair_elemIyLi0ELb0EE5__getB6v15007Ev 00000001400183e0     rtle:syssupp.o
 0001:000173f0       _ZNSt3__112__hash_tableINS_17__hash_value_typeIPN6System7Typinfo9TTypeInfoEPSt9type_infoEENS_22__unordered_map_hasherIS5_S8_NS_4hashIS5_EENS_8equal_toIS5_EELb1EEENS_21__unordered_map_equalIS5_S8_SD_SB_Lb1EEENS_9allocatorIS8_EEE25__emplace_unique_key_argsIS5_JRKNS_21piecewise_construct_tENS_5tupleIJRKS5_EEENSO_IJEEEEEENS_4pairINS_15__hash_iteratorIPNS_11__hash_nodeIS8_PvEEEEbEERKT_DpOT0_ 00000001400183f0     rtle:syssupp.o
 0001:00017b60       _ZNSt3__116forward_as_tupleB6v15007IJRKPN6System7Typinfo9TTypeInfoEEEENS_5tupleIJDpOT_EEESA_ 0000000140018b60     rtle:syssupp.o
 0001:00017b90       _ZNSt3__116forward_as_tupleB6v15007IJEEENS_5tupleIJDpOT_EEES4_ 0000000140018b90     rtle:syssupp.o
 0001:00017ba0       _ZNKSt3__115__hash_iteratorIPNS_11__hash_nodeINS_17__hash_value_typeIPN6System7Typinfo9TTypeInfoEPSt9type_infoEEPvEEEptB6v15007Ev 0000000140018ba0     rtle:syssupp.o
 0001:00017bd0       _ZNSt3__112__hash_tableINS_17__hash_value_typeIPN6System7Typinfo9TTypeInfoEPSt9type_infoEENS_22__unordered_map_hasherIS5_S8_NS_4hashIS5_EENS_8equal_toIS5_EELb1EEENS_21__unordered_map_equalIS5_S8_SD_SB_Lb1EEENS_9allocatorIS8_EEE13hash_functionB6v15007Ev 0000000140018bd0     rtle:syssupp.o
 0001:00017bf0       _ZNKSt3__122__unordered_map_hasherIPN6System7Typinfo9TTypeInfoENS_17__hash_value_typeIS4_PSt9type_infoEENS_4hashIS4_EENS_8equal_toIS4_EELb1EEclB6v15007ERKS4_ 0000000140018bf0     rtle:syssupp.o
 0001:00017c20       _ZNKSt3__112__hash_tableINS_17__hash_value_typeIPN6System7Typinfo9TTypeInfoEPSt9type_infoEENS_22__unordered_map_hasherIS5_S8_NS_4hashIS5_EENS_8equal_toIS5_EELb1EEENS_21__unordered_map_equalIS5_S8_SD_SB_Lb1EEENS_9allocatorIS8_EEE12bucket_countB6v15007Ev 0000000140018c20     rtle:syssupp.o
 0001:00017c50       _ZNSt3__116__constrain_hashB6v15007Eyy 0000000140018c50     rtle:syssupp.o
 0001:00017ce0       _ZNKSt3__110unique_ptrIA_PNS_16__hash_node_baseIPNS_11__hash_nodeINS_17__hash_value_typeIPN6System7Typinfo9TTypeInfoEPSt9type_infoEEPvEEEENS_25__bucket_list_deallocatorINS_9allocatorISF_EEEEEixB6v15007Ey 0000000140018ce0     rtle:syssupp.o
 0001:00017d10       _ZNKSt3__116__hash_node_baseIPNS_11__hash_nodeINS_17__hash_value_typeIPN6System7Typinfo9TTypeInfoEPSt9type_infoEEPvEEE6__hashB6v15007Ev 0000000140018d10     rtle:syssupp.o
 0001:00017d20       _ZNSt3__112__hash_tableINS_17__hash_value_typeIPN6System7Typinfo9TTypeInfoEPSt9type_infoEENS_22__unordered_map_hasherIS5_S8_NS_4hashIS5_EENS_8equal_toIS5_EELb1EEENS_21__unordered_map_equalIS5_S8_SD_SB_Lb1EEENS_9allocatorIS8_EEE6key_eqB6v15007Ev 0000000140018d20     rtle:syssupp.o
 0001:00017d40       _ZNKSt3__121__unordered_map_equalIPN6System7Typinfo9TTypeInfoENS_17__hash_value_typeIS4_PSt9type_infoEENS_8equal_toIS4_EENS_4hashIS4_EELb1EEclB6v15007ERKS8_RKS4_ 0000000140018d40     rtle:syssupp.o
 0001:00017d90       _ZNSt3__112__hash_tableINS_17__hash_value_typeIPN6System7Typinfo9TTypeInfoEPSt9type_infoEENS_22__unordered_map_hasherIS5_S8_NS_4hashIS5_EENS_8equal_toIS5_EELb1EEENS_21__unordered_map_equalIS5_S8_SD_SB_Lb1EEENS_9allocatorIS8_EEE21__construct_node_hashIRKNS_21piecewise_construct_tEJNS_5tupleIJRKS5_EEENSO_IJEEEEEENS_10unique_ptrINS_11__hash_nodeIS8_PvEENS_22__hash_node_destructorINSH_ISW_EEEEEEyOT_DpOT0_ 0000000140018d90     rtle:syssupp.o
 0001:00017f40       _ZNSt3__112__hash_tableINS_17__hash_value_typeIPN6System7Typinfo9TTypeInfoEPSt9type_infoEENS_22__unordered_map_hasherIS5_S8_NS_4hashIS5_EENS_8equal_toIS5_EELb1EEENS_21__unordered_map_equalIS5_S8_SD_SB_Lb1EEENS_9allocatorIS8_EEE4sizeB6v15007Ev 0000000140018f40     rtle:syssupp.o
 0001:00017f60       _ZNSt3__112__hash_tableINS_17__hash_value_typeIPN6System7Typinfo9TTypeInfoEPSt9type_infoEENS_22__unordered_map_hasherIS5_S8_NS_4hashIS5_EENS_8equal_toIS5_EELb1EEENS_21__unordered_map_equalIS5_S8_SD_SB_Lb1EEENS_9allocatorIS8_EEE15max_load_factorB6v15007Ev 0000000140018f60     rtle:syssupp.o
 0001:00017f80       _ZNSt3__112__hash_tableINS_17__hash_value_typeIPN6System7Typinfo9TTypeInfoEPSt9type_infoEENS_22__unordered_map_hasherIS5_S8_NS_4hashIS5_EENS_8equal_toIS5_EELb1EEENS_21__unordered_map_equalIS5_S8_SD_SB_Lb1EEENS_9allocatorIS8_EEE15__rehash_uniqueB6v15007Ey 0000000140018f80     rtle:syssupp.o
 0001:00017fb0       _ZNSt3__116__is_hash_power2B6v15007Ey 0000000140018fb0     rtle:syssupp.o
 0001:00018000       _Z4ceilB6v15007f           0000000140019000     rtle:syssupp.o
 0001:00018020       _ZNSt3__116__hash_node_baseIPNS_11__hash_nodeINS_17__hash_value_typeIPN6System7Typinfo9TTypeInfoEPSt9type_infoEEPvEEE5__ptrB6v15007Ev 0000000140019020     rtle:syssupp.o
 0001:00018040       _ZNKSt3__110unique_ptrINS_11__hash_nodeINS_17__hash_value_typeIPN6System7Typinfo9TTypeInfoEPSt9type_infoEEPvEENS_22__hash_node_destructorINS_9allocatorISB_EEEEEptB6v15007Ev 0000000140019040     rtle:syssupp.o
 0001:00018060       _ZNKSt3__110unique_ptrINS_11__hash_nodeINS_17__hash_value_typeIPN6System7Typinfo9TTypeInfoEPSt9type_infoEEPvEENS_22__hash_node_destructorINS_9allocatorISB_EEEEE3getB6v15007Ev 0000000140019060     rtle:syssupp.o
 0001:00018080       _ZNSt3__110unique_ptrINS_11__hash_nodeINS_17__hash_value_typeIPN6System7Typinfo9TTypeInfoEPSt9type_infoEEPvEENS_22__hash_node_destructorINS_9allocatorISB_EEEEE7releaseB6v15007Ev 0000000140019080     rtle:syssupp.o
 0001:000180c0       _ZNSt3__110unique_ptrINS_11__hash_nodeINS_17__hash_value_typeIPN6System7Typinfo9TTypeInfoEPSt9type_infoEEPvEENS_22__hash_node_destructorINS_9allocatorISB_EEEEED2B6v15007Ev 00000001400190c0     rtle:syssupp.o
 0001:000180e0       _ZNSt3__115__hash_iteratorIPNS_11__hash_nodeINS_17__hash_value_typeIPN6System7Typinfo9TTypeInfoEPSt9type_infoEEPvEEEC2B6v15007EPNS_16__hash_node_baseISC_EEPKv 00000001400190e0     rtle:syssupp.o
 0001:00018110       _ZNSt3__14pairINS_15__hash_iteratorIPNS_11__hash_nodeINS_17__hash_value_typeIPN6System7Typinfo9TTypeInfoEPSt9type_infoEEPvEEEEbEC2B6v15007ISE_RbLSB_0EEEOT_OT0_ 0000000140019110     rtle:syssupp.o
 0001:00018150       _ZNSt3__117__compressed_pairIyNS_22__unordered_map_hasherIPN6System7Typinfo9TTypeInfoENS_17__hash_value_typeIS5_PSt9type_infoEENS_4hashIS5_EENS_8equal_toIS5_EELb1EEEE6secondB6v15007Ev 0000000140019150     rtle:syssupp.o
 0001:00018170       _ZNSt3__122__compressed_pair_elemINS_22__unordered_map_hasherIPN6System7Typinfo9TTypeInfoENS_17__hash_value_typeIS5_PSt9type_infoEENS_4hashIS5_EENS_8equal_toIS5_EELb1EEELi1ELb1EE5__getB6v15007Ev 0000000140019170     rtle:syssupp.o
 0001:00018180       _ZNKSt3__14hashIPN6System7Typinfo9TTypeInfoEEclB6v15007ES4_ 0000000140019180     rtle:syssupp.o
 0001:000181d0       _ZNSt3__121__murmur2_or_cityhashIyLy64EEclEPKvy 00000001400191d0     rtle:syssupp.o
 0001:000186e0       _ZNSt3__121__murmur2_or_cityhashIyLy64EE18__hash_len_0_to_16EPKcy 00000001400196e0     rtle:syssupp.o
 0001:00018880       _ZNSt3__121__murmur2_or_cityhashIyLy64EE19__hash_len_17_to_32EPKcy 0000000140019880     rtle:syssupp.o
 0001:00018990       _ZNSt3__121__murmur2_or_cityhashIyLy64EE19__hash_len_33_to_64EPKcy 0000000140019990     rtle:syssupp.o
 0001:00018cd0       _ZNSt3__110__loadwordB6v15007IyEET_PKv 0000000140019cd0     rtle:syssupp.o
 0001:00018cf0       _ZNSt3__121__murmur2_or_cityhashIyLy64EE13__hash_len_16Eyy 0000000140019cf0     rtle:syssupp.o
 0001:00018d90       _ZNSt3__121__murmur2_or_cityhashIyLy64EE29__weak_hash_len_32_with_seedsEPKcyy 0000000140019d90     rtle:syssupp.o
 0001:00018e40       _ZNSt3__121__murmur2_or_cityhashIyLy64EE8__rotateEyi 0000000140019e40     rtle:syssupp.o
 0001:00018ea0       _ZNSt3__14pairIyyEaSB6v15007EOS1_ 0000000140019ea0     rtle:syssupp.o
 0001:00018ed0       _ZNSt3__14swapB6v15007IyEENS_9enable_ifIXaasr21is_move_constructibleIT_EE5valuesr18is_move_assignableIS2_EE5valueEvE4typeERS2_S5_ 0000000140019ed0     rtle:syssupp.o
 0001:00018f10       _ZNSt3__121__murmur2_or_cityhashIyLy64EE11__shift_mixEy 0000000140019f10     rtle:syssupp.o
 0001:00018f30       _ZNSt3__121__murmur2_or_cityhashIyLy64EE22__rotate_by_at_least_1Eyi 0000000140019f30     rtle:syssupp.o
 0001:00018f70       _ZNSt3__110__loadwordB6v15007IjEET_PKv 0000000140019f70     rtle:syssupp.o
 0001:00018f90       _ZNSt3__121__murmur2_or_cityhashIyLy64EE29__weak_hash_len_32_with_seedsEyyyyyy 0000000140019f90     rtle:syssupp.o
 0001:000190b0       _ZNSt3__14pairIyyEC2B6v15007IyyLPv0EEEOT_OT0_ 000000014001a0b0     rtle:syssupp.o
 0001:000190f0       _ZNKSt3__110unique_ptrIA_PNS_16__hash_node_baseIPNS_11__hash_nodeINS_17__hash_value_typeIPN6System7Typinfo9TTypeInfoEPSt9type_infoEEPvEEEENS_25__bucket_list_deallocatorINS_9allocatorISF_EEEEE11get_deleterB6v15007Ev 000000014001a0f0     rtle:syssupp.o
 0001:00019110       _ZNKSt3__125__bucket_list_deallocatorINS_9allocatorIPNS_16__hash_node_baseIPNS_11__hash_nodeINS_17__hash_value_typeIPN6System7Typinfo9TTypeInfoEPSt9type_infoEEPvEEEEEEE4sizeB6v15007Ev 000000014001a110     rtle:syssupp.o
 0001:00019130       _ZNKSt3__117__compressed_pairIPPNS_16__hash_node_baseIPNS_11__hash_nodeINS_17__hash_value_typeIPN6System7Typinfo9TTypeInfoEPSt9type_infoEEPvEEEENS_25__bucket_list_deallocatorINS_9allocatorISF_EEEEE6secondB6v15007Ev 000000014001a130     rtle:syssupp.o
 0001:00019150       _ZNKSt3__122__compressed_pair_elemINS_25__bucket_list_deallocatorINS_9allocatorIPNS_16__hash_node_baseIPNS_11__hash_nodeINS_17__hash_value_typeIPN6System7Typinfo9TTypeInfoEPSt9type_infoEEPvEEEEEEEELi1ELb0EE5__getB6v15007Ev 000000014001a150     rtle:syssupp.o
 0001:00019160       _ZNKSt3__117__compressed_pairIyNS_9allocatorIPNS_16__hash_node_baseIPNS_11__hash_nodeINS_17__hash_value_typeIPN6System7Typinfo9TTypeInfoEPSt9type_infoEEPvEEEEEEE5firstB6v15007Ev 000000014001a160     rtle:syssupp.o
 0001:00019180       _ZNKSt3__122__compressed_pair_elemIyLi0ELb0EE5__getB6v15007Ev 000000014001a180     rtle:syssupp.o
 0001:00019190       _ZNKSt3__117__compressed_pairIPPNS_16__hash_node_baseIPNS_11__hash_nodeINS_17__hash_value_typeIPN6System7Typinfo9TTypeInfoEPSt9type_infoEEPvEEEENS_25__bucket_list_deallocatorINS_9allocatorISF_EEEEE5firstB6v15007Ev 000000014001a190     rtle:syssupp.o
 0001:000191b0       _ZNKSt3__122__compressed_pair_elemIPPNS_16__hash_node_baseIPNS_11__hash_nodeINS_17__hash_value_typeIPN6System7Typinfo9TTypeInfoEPSt9type_infoEEPvEEEELi0ELb0EE5__getB6v15007Ev 000000014001a1b0     rtle:syssupp.o
 0001:000191c0       _ZNSt3__117__compressed_pairIfNS_21__unordered_map_equalIPN6System7Typinfo9TTypeInfoENS_17__hash_value_typeIS5_PSt9type_infoEENS_8equal_toIS5_EENS_4hashIS5_EELb1EEEE6secondB6v15007Ev 000000014001a1c0     rtle:syssupp.o
 0001:000191e0       _ZNSt3__122__compressed_pair_elemINS_21__unordered_map_equalIPN6System7Typinfo9TTypeInfoENS_17__hash_value_typeIS5_PSt9type_infoEENS_8equal_toIS5_EENS_4hashIS5_EELb1EEELi1ELb1EE5__getB6v15007Ev 000000014001a1e0     rtle:syssupp.o
 0001:000191f0       _ZNKSt3__18equal_toIPN6System7Typinfo9TTypeInfoEEclB6v15007ERKS4_S7_ 000000014001a1f0     rtle:syssupp.o
 0001:00019220       _ZNKSt3__117__hash_value_typeIPN6System7Typinfo9TTypeInfoEPSt9type_infoE11__get_valueB6v15007Ev 000000014001a220     rtle:syssupp.o
 0001:00019240       _ZNSt3__17launderB6v15007IKNS_4pairIKPN6System7Typinfo9TTypeInfoEPSt9type_infoEEEEPT_SC_ 000000014001a240     rtle:syssupp.o
 0001:00019260       _ZNSt3__19__launderB6v15007IKNS_4pairIKPN6System7Typinfo9TTypeInfoEPSt9type_infoEEEEPT_SC_ 000000014001a260     rtle:syssupp.o
 0001:00019270       _ZNSt3__116allocator_traitsINS_9allocatorINS_11__hash_nodeINS_17__hash_value_typeIPN6System7Typinfo9TTypeInfoEPSt9type_infoEEPvEEEEE8allocateB6v15007ERSD_y 000000014001a270     rtle:syssupp.o
 0001:000192a0       _ZNSt3__122__hash_node_destructorINS_9allocatorINS_11__hash_nodeINS_17__hash_value_typeIPN6System7Typinfo9TTypeInfoEPSt9type_infoEEPvEEEEEC2B6v15007ERSD_b 000000014001a2a0     rtle:syssupp.o
 0001:000192e0       _ZNSt3__110unique_ptrINS_11__hash_nodeINS_17__hash_value_typeIPN6System7Typinfo9TTypeInfoEPSt9type_infoEEPvEENS_22__hash_node_destructorINS_9allocatorISB_EEEEEC2B6v15007ILb1EvEEPSB_NS_16__dependent_typeINS_27__unique_ptr_deleter_sfinaeISF_EEXT_EE20__good_rval_ref_typeE 000000014001a2e0     rtle:syssupp.o
 0001:00019320       _ZNSt3__116allocator_traitsINS_9allocatorINS_11__hash_nodeINS_17__hash_value_typeIPN6System7Typinfo9TTypeInfoEPSt9type_infoEEPvEEEEE9constructB6v15007INS_4pairIKS7_S9_EEJRKNS_21piecewise_construct_tENS_5tupleIJRSH_EEENSM_IJEEEEvEEvRSD_PT_DpOT0_ 000000014001a320     rtle:syssupp.o
 0001:00019370       _ZNSt3__110unique_ptrINS_11__hash_nodeINS_17__hash_value_typeIPN6System7Typinfo9TTypeInfoEPSt9type_infoEEPvEENS_22__hash_node_destructorINS_9allocatorISB_EEEEE11get_deleterB6v15007Ev 000000014001a370     rtle:syssupp.o
 0001:00019390       _ZNSt3__19allocatorINS_11__hash_nodeINS_17__hash_value_typeIPN6System7Typinfo9TTypeInfoEPSt9type_infoEEPvEEE8allocateB6v15007Ey 000000014001a390     rtle:syssupp.o
 0001:000193f0       _ZNSt3__116allocator_traitsINS_9allocatorINS_11__hash_nodeINS_17__hash_value_typeIPN6System7Typinfo9TTypeInfoEPSt9type_infoEEPvEEEEE8max_sizeB6v15007ISD_vEEyRKSD_ 000000014001a3f0     rtle:syssupp.o
 0001:00019410       _ZNKSt3__19allocatorINS_11__hash_nodeINS_17__hash_value_typeIPN6System7Typinfo9TTypeInfoEPSt9type_infoEEPvEEE8max_sizeB6v15007Ev 000000014001a410     rtle:syssupp.o
 0001:00019430       _ZNSt3__117__compressed_pairIPNS_11__hash_nodeINS_17__hash_value_typeIPN6System7Typinfo9TTypeInfoEPSt9type_infoEEPvEENS_22__hash_node_destructorINS_9allocatorISB_EEEEEC2B6v15007IRSC_SG_EEOT_OT0_ 000000014001a430     rtle:syssupp.o
 0001:00019470       _ZNSt3__122__compressed_pair_elemIPNS_11__hash_nodeINS_17__hash_value_typeIPN6System7Typinfo9TTypeInfoEPSt9type_infoEEPvEELi0ELb0EEC2B6v15007IRSC_vEEOT_ 000000014001a470     rtle:syssupp.o
 0001:000194a0       _ZNSt3__122__compressed_pair_elemINS_22__hash_node_destructorINS_9allocatorINS_11__hash_nodeINS_17__hash_value_typeIPN6System7Typinfo9TTypeInfoEPSt9type_infoEEPvEEEEEELi1ELb0EEC2B6v15007ISF_vEEOT_ 000000014001a4a0     rtle:syssupp.o
 0001:000194d0       _ZNSt3__19allocatorINS_11__hash_nodeINS_17__hash_value_typeIPN6System7Typinfo9TTypeInfoEPSt9type_infoEEPvEEE9constructB6v15007INS_4pairIKS6_S8_EEJRKNS_21piecewise_construct_tENS_5tupleIJRSF_EEENSK_IJEEEEEEvPT_DpOT0_ 000000014001a4d0     rtle:syssupp.o
 0001:00019520       _ZNSt3__14pairIKPN6System7Typinfo9TTypeInfoEPSt9type_infoEC2B6v15007IJRS5_EJEEENS_21piecewise_construct_tENS_5tupleIJDpT_EEENSC_IJDpT0_EEE 000000014001a520     rtle:syssupp.o
 0001:00019580       _ZNSt3__14pairIKPN6System7Typinfo9TTypeInfoEPSt9type_infoEC2B6v15007IJRS5_EJEJLy0EEJEEENS_21piecewise_construct_tERNS_5tupleIJDpT_EEERNSC_IJDpT0_EEENS_15__tuple_indicesIJXspT1_EEEENSL_IJXspT2_EEEE 000000014001a580     rtle:syssupp.o
 0001:000195e0       _ZNSt3__13getB6v15007ILy0EJRKPN6System7Typinfo9TTypeInfoEEEERNS_13tuple_elementIXT_ENS_5tupleIJDpT0_EEEE4typeERSB_ 000000014001a5e0     rtle:syssupp.o
 0001:00019600       _ZNSt3__112__tuple_leafILy0ERKPN6System7Typinfo9TTypeInfoELb0EE3getB6v15007Ev 000000014001a600     rtle:syssupp.o
 0001:00019610       _ZNSt3__117__compressed_pairIPNS_11__hash_nodeINS_17__hash_value_typeIPN6System7Typinfo9TTypeInfoEPSt9type_infoEEPvEENS_22__hash_node_destructorINS_9allocatorISB_EEEEE6secondB6v15007Ev 000000014001a610     rtle:syssupp.o
 0001:00019630       _ZNSt3__122__compressed_pair_elemINS_22__hash_node_destructorINS_9allocatorINS_11__hash_nodeINS_17__hash_value_typeIPN6System7Typinfo9TTypeInfoEPSt9type_infoEEPvEEEEEELi1ELb0EE5__getB6v15007Ev 000000014001a630     rtle:syssupp.o
 0001:00019640       _ZNSt3__117__compressed_pairIyNS_22__unordered_map_hasherIPN6System7Typinfo9TTypeInfoENS_17__hash_value_typeIS5_PSt9type_infoEENS_4hashIS5_EENS_8equal_toIS5_EELb1EEEE5firstB6v15007Ev 000000014001a640     rtle:syssupp.o
 0001:00019660       _ZNSt3__117__compressed_pairIfNS_21__unordered_map_equalIPN6System7Typinfo9TTypeInfoENS_17__hash_value_typeIS5_PSt9type_infoEENS_8equal_toIS5_EENS_4hashIS5_EELb1EEEE5firstB6v15007Ev 000000014001a660     rtle:syssupp.o
 0001:00019680       _ZNSt3__122__compressed_pair_elemIfLi0ELb0EE5__getB6v15007Ev 000000014001a680     rtle:syssupp.o
 0001:00019690       _ZNSt3__112__hash_tableINS_17__hash_value_typeIPN6System7Typinfo9TTypeInfoEPSt9type_infoEENS_22__unordered_map_hasherIS5_S8_NS_4hashIS5_EENS_8equal_toIS5_EELb1EEENS_21__unordered_map_equalIS5_S8_SD_SB_Lb1EEENS_9allocatorIS8_EEE8__rehashILb1EEEvy 000000014001a690     rtle:syssupp.o
 0001:000198f0       _ZNSt3__112__hash_tableINS_17__hash_value_typeIPN6System7Typinfo9TTypeInfoEPSt9type_infoEENS_22__unordered_map_hasherIS5_S8_NS_4hashIS5_EENS_8equal_toIS5_EELb1EEENS_21__unordered_map_equalIS5_S8_SD_SB_Lb1EEENS_9allocatorIS8_EEE11__do_rehashILb1EEEvy 000000014001a8f0     rtle:syssupp.o
 0001:00019bc0       _ZNSt3__116__next_hash_pow2B6v15007Ey 000000014001abc0     rtle:syssupp.o
 0001:00019c20       _ZNSt3__125__debug_db_invalidate_allB6v15007INS_12__hash_tableINS_17__hash_value_typeIPN6System7Typinfo9TTypeInfoEPSt9type_infoEENS_22__unordered_map_hasherIS6_S9_NS_4hashIS6_EENS_8equal_toIS6_EELb1EEENS_21__unordered_map_equalIS6_S9_SE_SC_Lb1EEENS_9allocatorIS9_EEEEEEvPT_ 000000014001ac20     rtle:syssupp.o
 0001:00019c30       _ZNSt3__110unique_ptrIA_PNS_16__hash_node_baseIPNS_11__hash_nodeINS_17__hash_value_typeIPN6System7Typinfo9TTypeInfoEPSt9type_infoEEPvEEEENS_25__bucket_list_deallocatorINS_9allocatorISF_EEEEE11get_deleterB6v15007Ev 000000014001ac30     rtle:syssupp.o
 0001:00019c50       _ZNSt3__110unique_ptrIA_PNS_16__hash_node_baseIPNS_11__hash_nodeINS_17__hash_value_typeIPN6System7Typinfo9TTypeInfoEPSt9type_infoEEPvEEEENS_25__bucket_list_deallocatorINS_9allocatorISF_EEEEE5resetB6v15007IPSF_EENS_9enable_ifIXsr28_CheckArrayPointerConversionIT_EE5valueEvE4typeESP_ 000000014001ac50     rtle:syssupp.o
 0001:00019cc0       _ZNSt3__116allocator_traitsINS_9allocatorIPNS_16__hash_node_baseIPNS_11__hash_nodeINS_17__hash_value_typeIPN6System7Typinfo9TTypeInfoEPSt9type_infoEEPvEEEEEEE8allocateB6v15007ERSH_y 000000014001acc0     rtle:syssupp.o
 0001:00019cf0       _ZNSt3__19allocatorIPNS_16__hash_node_baseIPNS_11__hash_nodeINS_17__hash_value_typeIPN6System7Typinfo9TTypeInfoEPSt9type_infoEEPvEEEEE8allocateB6v15007Ey 000000014001acf0     rtle:syssupp.o
 0001:00019d50       _ZNSt3__116allocator_traitsINS_9allocatorIPNS_16__hash_node_baseIPNS_11__hash_nodeINS_17__hash_value_typeIPN6System7Typinfo9TTypeInfoEPSt9type_infoEEPvEEEEEEE8max_sizeB6v15007ISH_vEEyRKSH_ 000000014001ad50     rtle:syssupp.o
 0001:00019d70       _ZNKSt3__19allocatorIPNS_16__hash_node_baseIPNS_11__hash_nodeINS_17__hash_value_typeIPN6System7Typinfo9TTypeInfoEPSt9type_infoEEPvEEEEE8max_sizeB6v15007Ev 000000014001ad70     rtle:syssupp.o
 0001:00019d90       _ZNSt3__112__libcpp_clzB6v15007Ey 000000014001ad90     rtle:syssupp.o
 0001:00019db0       _ZNKSt3__117__compressed_pairIPNS_11__hash_nodeINS_17__hash_value_typeIPN6System7Typinfo9TTypeInfoEPSt9type_infoEEPvEENS_22__hash_node_destructorINS_9allocatorISB_EEEEE5firstB6v15007Ev 000000014001adb0     rtle:syssupp.o
 0001:00019dd0       _ZNKSt3__122__compressed_pair_elemIPNS_11__hash_nodeINS_17__hash_value_typeIPN6System7Typinfo9TTypeInfoEPSt9type_infoEEPvEELi0ELb0EE5__getB6v15007Ev 000000014001add0     rtle:syssupp.o
 0001:00019de0       _ZNSt3__117__compressed_pairIPNS_11__hash_nodeINS_17__hash_value_typeIPN6System7Typinfo9TTypeInfoEPSt9type_infoEEPvEENS_22__hash_node_destructorINS_9allocatorISB_EEEEE5firstB6v15007Ev 000000014001ade0     rtle:syssupp.o
 0001:00019e00       _ZNSt3__122__compressed_pair_elemIPNS_11__hash_nodeINS_17__hash_value_typeIPN6System7Typinfo9TTypeInfoEPSt9type_infoEEPvEELi0ELb0EE5__getB6v15007Ev 000000014001ae00     rtle:syssupp.o
 0001:00019e10       _ZNSt3__110unique_ptrINS_11__hash_nodeINS_17__hash_value_typeIPN6System7Typinfo9TTypeInfoEPSt9type_infoEEPvEENS_22__hash_node_destructorINS_9allocatorISB_EEEEE5resetB6v15007EPSB_ 000000014001ae10     rtle:syssupp.o
 0001:00019e80       _ZNSt3__122__hash_node_destructorINS_9allocatorINS_11__hash_nodeINS_17__hash_value_typeIPN6System7Typinfo9TTypeInfoEPSt9type_infoEEPvEEEEEclB6v15007EPSC_ 000000014001ae80     rtle:syssupp.o
 0001:00019f10       _ZNSt3__15tupleIJRKPN6System7Typinfo9TTypeInfoEEEC2B6v15007INS_4_AndELi0EEES6_ 000000014001af10     rtle:syssupp.o
 0001:00019f50       _ZNSt3__112__tuple_implINS_15__tuple_indicesIJLy0EEEEJRKPN6System7Typinfo9TTypeInfoEEEC2B6v15007IJLy0EEJS8_EJEJEJS8_EEENS1_IJXspT_EEEENS_13__tuple_typesIJDpT0_EEENS1_IJXspT1_EEEENSC_IJDpT2_EEEDpOT3_ 000000014001af50     rtle:syssupp.o
 0001:00019f90       _ZNSt3__112__tuple_leafILy0ERKPN6System7Typinfo9TTypeInfoELb0EEC2B6v15007IS6_vEEOT_ 000000014001af90     rtle:syssupp.o
 0001:00019fb0       _ZNSt3__114pointer_traitsIPNS_17__hash_value_typeIPN6System7Typinfo9TTypeInfoEPSt9type_infoEEE10pointer_toB6v15007ERS8_ 000000014001afb0     rtle:syssupp.o
 0001:00019fc0       _ZNK6System13UnicodeString6GetRecEv 000000014001afc0     rtle:ustring.o
 0001:00019fe0       _ZN6System13UnicodeString6GetRecEv 000000014001afe0     rtle:ustring.o
 0001:0001a000       _ZNK6System13UnicodeString6LengthEv 000000014001b000     rtle:ustring.o
 0001:0001a050       _ZNK6System13UnicodeString17ThrowIfOutOfRangeEi 000000014001b050     rtle:ustring.o
 0001:0001a130       _ZN6System13UnicodeStringC1Ev 000000014001b130     rtle:ustring.o
 0001:0001a130       _ZN6System13UnicodeStringC2Ev 000000014001b130     rtle:ustring.o
 0001:0001a150       _ZN6System13UnicodeStringC1EPKc 000000014001b150     rtle:ustring.o
 0001:0001a150       _ZN6System13UnicodeStringC2EPKc 000000014001b150     rtle:ustring.o
 0001:0001a180       _ZN6System13UnicodeStringC1ERKS0_ 000000014001b180     rtle:ustring.o
 0001:0001a180       _ZN6System13UnicodeStringC2ERKS0_ 000000014001b180     rtle:ustring.o
 0001:0001a200       _ZN6System13UnicodeStringC2ERKNS_10WideStringE 000000014001b200     rtle:ustring.o
 0001:0001a200       _ZN6System13UnicodeStringC1ERKNS_10WideStringE 000000014001b200     rtle:ustring.o
 0001:0001a230       _ZN6System13UnicodeStringC2EPKwi 000000014001b230     rtle:ustring.o
 0001:0001a230       _ZN6System13UnicodeStringC1EPKwi 000000014001b230     rtle:ustring.o
 0001:0001a2c0       _ZN6System13UnicodeString9SetLengthEi 000000014001b2c0     rtle:ustring.o
 0001:0001a2f0       _ZN6System13UnicodeStringC2EPKw 000000014001b2f0     rtle:ustring.o
 0001:0001a2f0       _ZN6System13UnicodeStringC1EPKw 000000014001b2f0     rtle:ustring.o
 0001:0001a370       _ZN6System13UnicodeStringC2EPKDsi 000000014001b370     rtle:ustring.o
 0001:0001a370       _ZN6System13UnicodeStringC1EPKDsi 000000014001b370     rtle:ustring.o
 0001:0001a410       _ZN6System13UnicodeStringC1EPKDii 000000014001b410     rtle:ustring.o
 0001:0001a410       _ZN6System13UnicodeStringC2EPKDii 000000014001b410     rtle:ustring.o
 0001:0001a620       _ZN6System13UnicodeStringC2EPKci 000000014001b620     rtle:ustring.o
 0001:0001a620       _ZN6System13UnicodeStringC1EPKci 000000014001b620     rtle:ustring.o
 0001:0001a6b0       _ZN6System13UnicodeStringC2Ed 000000014001b6b0     rtle:ustring.o
 0001:0001a6b0       _ZN6System13UnicodeStringC1Ed 000000014001b6b0     rtle:ustring.o
 0001:0001a750       _ZN6System13UnicodeStringaSERKS0_ 000000014001b750     rtle:ustring.o
 0001:0001a780       _ZN6System13UnicodeStringD1Ev 000000014001b780     rtle:ustring.o
 0001:0001a780       _ZN6System13UnicodeStringD2Ev 000000014001b780     rtle:ustring.o
 0001:0001a7b0       _ZN6System13UnicodeStringpLERKS0_ 000000014001b7b0     rtle:ustring.o
 0001:0001a7e0       _ZNK6System13UnicodeStringplERKS0_ 000000014001b7e0     rtle:ustring.o
 0001:0001a890       _ZNK6System13UnicodeStringeqERKS0_ 000000014001b890     rtle:ustring.o
 0001:0001a8c0       _ZNK6System13UnicodeStringneERKS0_ 000000014001b8c0     rtle:ustring.o
 0001:0001a8f0       _ZNK6System13UnicodeStringltERKS0_ 000000014001b8f0     rtle:ustring.o
 0001:0001a920       _ZNK6System13UnicodeStringgtERKS0_ 000000014001b920     rtle:ustring.o
 0001:0001a950       _ZNK6System13UnicodeStringleERKS0_ 000000014001b950     rtle:ustring.o
 0001:0001a980       _ZNK6System13UnicodeStringgeERKS0_ 000000014001b980     rtle:ustring.o
 0001:0001a9b0       _ZNK6System13UnicodeString7CompareERKS0_ 000000014001b9b0     rtle:ustring.o
 0001:0001aa90       _ZNK6System13UnicodeString9CompareICERKS0_ 000000014001ba90     rtle:ustring.o
 0001:0001ab70       _ZN6System13UnicodeString12StringOfCharEwi 000000014001bb70     rtle:ustring.o
 0001:0001ac40       _ZN6System13UnicodeString7LoadStrEi 000000014001bc40     rtle:ustring.o
 0001:0001ac70       _ZN6System13UnicodeString7LoadStrEP11HINSTANCE__i 000000014001bc70     rtle:ustring.o
 0001:0001ad10       _ZN6System13UnicodeString11LoadStringAEP11HINSTANCE__i 000000014001bd10     rtle:ustring.o
 0001:0001aeb0       _ZN6System13UnicodeString10FmtLoadStrEiPKNS_7TVarRecEi 000000014001beb0     rtle:ustring.o
 0001:0001aef0       _ZN6System13UnicodeString6FormatERKS0_PKNS_7TVarRecEi 000000014001bef0     rtle:ustring.o
 0001:0001af40       _ZN6System13UnicodeString11FormatFloatERKS0_RKe 000000014001bf40     rtle:ustring.o
 0001:0001af80       _ZN6System13UnicodeString7vprintfEPKwPc 000000014001bf80     rtle:ustring.o
 0001:0001b090       _ZN6System13UnicodeString11cat_vprintfEPKwPc 000000014001c090     rtle:ustring.o
 0001:0001b140       _ZN6System13UnicodeString6printfEPKwz 000000014001c140     rtle:ustring.o
 0001:0001b190       _ZN6System13UnicodeString7sprintfEPKwz 000000014001c190     rtle:ustring.o
 0001:0001b1e0       _ZN6System13UnicodeString10cat_printfEPKwz 000000014001c1e0     rtle:ustring.o
 0001:0001b230       _ZN6System13UnicodeString11cat_sprintfEPKwz 000000014001c230     rtle:ustring.o
 0001:0001b280       _ZN6System13UnicodeString11FloatToStrFEeNS0_18TStringFloatFormatEii 000000014001c280     rtle:ustring.o
 0001:0001b2d0       _ZN6System13UnicodeString8IntToHexEii 000000014001c2d0     rtle:ustring.o
 0001:0001b310       _ZN6System13UnicodeString9CurrToStrENS_8CurrencyE 000000014001c310     rtle:ustring.o
 0001:0001b340       _ZN6System13UnicodeString10CurrToStrFENS_8CurrencyENS0_18TStringFloatFormatEi 000000014001c340     rtle:ustring.o
 0001:0001b380       _ZN6System13UnicodeString6UniqueEv 000000014001c380     rtle:ustring.o
 0001:0001b3b0       _ZN6System13UnicodeString7Insert1ERKS0_i 000000014001c3b0     rtle:ustring.o
 0001:0001b3f0       _ZN6System13UnicodeString7Insert0ERKS0_i 000000014001c3f0     rtle:ustring.o
 0001:0001b430       _ZN6System13UnicodeString7Delete1Eii 000000014001c430     rtle:ustring.o
 0001:0001b470       _ZN6System13UnicodeString7Delete0Eii 000000014001c470     rtle:ustring.o
 0001:0001b4a0       _ZNK6System13UnicodeString4Pos1ERKS0_ 000000014001c4a0     rtle:ustring.o
 0001:0001b4d0       _ZNK6System13UnicodeString4Pos0ERKS0_ 000000014001c4d0     rtle:ustring.o
 0001:0001b500       _ZNK6System13UnicodeString9LowerCaseEv 000000014001c500     rtle:ustring.o
 0001:0001b540       _ZNK6System13UnicodeString9UpperCaseEv 000000014001c540     rtle:ustring.o
 0001:0001b580       _ZNK6System13UnicodeString4TrimEv 000000014001c580     rtle:ustring.o
 0001:0001b5c0       _ZNK6System13UnicodeString8TrimLeftEv 000000014001c5c0     rtle:ustring.o
 0001:0001b600       _ZNK6System13UnicodeString9TrimRightEv 000000014001c600     rtle:ustring.o
 0001:0001b640       _ZNK6System13UnicodeString10SubString1Eii 000000014001c640     rtle:ustring.o
 0001:0001b730       _ZNK6System13UnicodeString10SubString0Eii 000000014001c730     rtle:ustring.o
 0001:0001b810       _ZNK6System13UnicodeString5ToIntEv 000000014001c810     rtle:ustring.o
 0001:0001b830       _ZNK6System13UnicodeString8ToIntDefEi 000000014001c830     rtle:ustring.o
 0001:0001b860       _ZNK6System13UnicodeString8ToDoubleEv 000000014001c860     rtle:ustring.o
 0001:0001b880       _ZNK6System13UnicodeString12IsDelimiter1ERKS0_i 000000014001c880     rtle:ustring.o
 0001:0001b8c0       _ZNK6System13UnicodeString12IsDelimiter0ERKS0_i 000000014001c8c0     rtle:ustring.o
 0001:0001b900       _ZNK6System13UnicodeString16IsPathDelimiter1Ei 000000014001c900     rtle:ustring.o
 0001:0001b930       _ZNK6System13UnicodeString16IsPathDelimiter0Ei 000000014001c930     rtle:ustring.o
 0001:0001b960       _ZNK6System13UnicodeString14LastDelimiter1ERKS0_ 000000014001c960     rtle:ustring.o
 0001:0001b990       _ZNK6System13UnicodeString14LastDelimiter0ERKS0_ 000000014001c990     rtle:ustring.o
 0001:0001b9c0       _ZNK6System13UnicodeString9ByteType1Ei 000000014001c9c0     rtle:ustring.o
 0001:0001b9f0       _ZNK6System13UnicodeString9ByteType0Ei 000000014001c9f0     rtle:ustring.o
 0001:0001ba30       _ZNK6System13UnicodeString16IsLeadSurrogate1Ei 000000014001ca30     rtle:ustring.o
 0001:0001ba70       _ZNK6System13UnicodeString16IsLeadSurrogate0Ei 000000014001ca70     rtle:ustring.o
 0001:0001baa0       _ZNK6System13UnicodeString17IsTrailSurrogate1Ei 000000014001caa0     rtle:ustring.o
 0001:0001bae0       _ZNK6System13UnicodeString17IsTrailSurrogate0Ei 000000014001cae0     rtle:ustring.o
 0001:0001bb10       _ZNK6System13UnicodeString7BytesOfEv 000000014001cb10     rtle:ustring.o
 0001:0001bb50       _ZN6SystemplEPKcRKNS_13UnicodeStringE 000000014001cb50     rtle:ustring.o
 0001:0001bbe0       _ZN6SystemplEPKwRKNS_13UnicodeStringE 000000014001cbe0     rtle:ustring.o
 0001:0001bc70       _ZN6SystemplEPKDsRKNS_13UnicodeStringE 000000014001cc70     rtle:ustring.o
 0001:0001bd10       _ZN6SystemplEPKDiRKNS_13UnicodeStringE 000000014001cd10     rtle:ustring.o
 0001:0001bdb0       _ZNK6System13UnicodeString9FirstCharEv 000000014001cdb0     rtle:ustring.o
 0001:0001bdc0       _ZNK6System13UnicodeString8LastCharEv 000000014001cdc0     rtle:ustring.o
 0001:0001bde0       _ZN6System13UnicodeString9FirstCharEv 000000014001cde0     rtle:ustring.o
 0001:0001bdf0       _ZN6System13UnicodeString8LastCharEv 000000014001cdf0     rtle:ustring.o
 0001:0001be10       _ZN6System13UnicodeString4swapERS0_ 000000014001ce10     rtle:ustring.o
 0001:0001be50       _ZN6System9to_stringERNS_13UnicodeStringEb 000000014001ce50     rtle:ustring.o
 0001:0001bee0       _ZN6System9to_stringERNS_13UnicodeStringEc 000000014001cee0     rtle:ustring.o
 0001:0001bfb0       _ZN6System9to_stringERNS_13UnicodeStringEa 000000014001cfb0     rtle:ustring.o
 0001:0001c040       _ZN6System9to_stringERNS_13UnicodeStringEh 000000014001d040     rtle:ustring.o
 0001:0001c0d0       _ZN6System9to_stringERNS_13UnicodeStringEs 000000014001d0d0     rtle:ustring.o
 0001:0001c160       _ZN6System9to_stringERNS_13UnicodeStringEt 000000014001d160     rtle:ustring.o
 0001:0001c1f0       _ZN6System9to_stringERNS_13UnicodeStringEi 000000014001d1f0     rtle:ustring.o
 0001:0001c280       _ZN6System9to_stringERNS_13UnicodeStringEj 000000014001d280     rtle:ustring.o
 0001:0001c310       _ZN6System9to_stringERNS_13UnicodeStringEl 000000014001d310     rtle:ustring.o
 0001:0001c3a0       _ZN6System9to_stringERNS_13UnicodeStringEm 000000014001d3a0     rtle:ustring.o
 0001:0001c430       _ZN6System9to_stringERNS_13UnicodeStringEw 000000014001d430     rtle:ustring.o
 0001:0001c4c0       _ZN6System9to_stringERNS_13UnicodeStringEx 000000014001d4c0     rtle:ustring.o
 0001:0001c550       _ZN6System9to_stringERNS_13UnicodeStringEy 000000014001d550     rtle:ustring.o
 0001:0001c5e0       _ZN6System9to_stringERNS_13UnicodeStringEf 000000014001d5e0     rtle:ustring.o
 0001:0001c670       _ZN6System9to_stringERNS_13UnicodeStringEfRKNS_8Sysutils15TFormatSettingsE 000000014001d670     rtle:ustring.o
 0001:0001c720       _ZN6System9to_stringERNS_13UnicodeStringEd 000000014001d720     rtle:ustring.o
 0001:0001c7b0       _ZN6System9to_stringERNS_13UnicodeStringEdRKNS_8Sysutils15TFormatSettingsE 000000014001d7b0     rtle:ustring.o
 0001:0001c850       _ZN6System9to_stringERNS_13UnicodeStringEe 000000014001d850     rtle:ustring.o
 0001:0001c8e0       _ZN6System9to_stringERNS_13UnicodeStringEeRKNS_8Sysutils15TFormatSettingsE 000000014001d8e0     rtle:ustring.o
 0001:0001c980       _ZN6System11from_stringERKNS_13UnicodeStringERb 000000014001d980     rtle:ustring.o
 0001:0001c9b0       _ZN6System11from_stringERKNS_13UnicodeStringERe 000000014001d9b0     rtle:ustring.o
 0001:0001c9e0       _ZN6System11from_stringERKNS_13UnicodeStringERKNS_8Sysutils15TFormatSettingsERe 000000014001d9e0     rtle:ustring.o
 0001:0001ca20       _ZN6System11from_stringERKNS_13UnicodeStringERi 000000014001da20     rtle:ustring.o
 0001:0001ca50       _ZN6System11from_stringERKNS_13UnicodeStringERx 000000014001da50     rtle:ustring.o
 0001:0001ca80       _ZN6System11from_stringERKNS_13UnicodeStringERj 000000014001da80     rtle:ustring.o
 0001:0001cab0       _ZN6System11from_stringERKNS_13UnicodeStringERy 000000014001dab0     rtle:ustring.o
 0001:0001cb20       _ZN6System11WideCharLenIwEEiPKT_ 000000014001db20     rtle:ustring.o
 0001:0001cb80       _ZN6System11WideCharLenIDsEEiPKT_ 000000014001db80     rtle:ustring.o
 0001:0001cbe0       _ZN6System11AnsiStringTILt0EEC2EPKci 000000014001dbe0     rtle:ustring.o
 0001:0001cc40       __ClassCreate              000000014001dc40     rtle:classcre64.o
 0001:0001cc4b       __ClassDestroy             000000014001dc4b     rtle:classcre64.o
 0001:0001cc51       __AfterConstruction        000000014001dc51     rtle:classcre64.o
 0001:0001cc5a       __BeforeDestruction        000000014001dc5a     rtle:classcre64.o
 0001:0001cc6c       __currMul__                000000014001dc6c     rtle:classcre64.o
 0001:0001cc90       fprintf                    000000014001dc90     libucrt:lib64_libucrt_extra_a-ucrt_fprintf.o
 0001:0001ccf0       ___w64_mingwthr_add_key_dtor 000000014001dcf0     libmingw32:lib64_libmingw32_a-tlsthrd.o
 0001:0001cdb0       ___w64_mingwthr_remove_key_dtor 000000014001ddb0     libmingw32:lib64_libmingw32_a-tlsthrd.o
 0001:0001ce90       __mingw_TLScallback        000000014001de90     libmingw32:lib64_libmingw32_a-tlsthrd.o
 0001:0001d050       _ValidateImageBase         000000014001e050     libmingw32:lib64_libmingw32_a-pesect.o
 0001:0001d100       _FindPESection             000000014001e100     libmingw32:lib64_libmingw32_a-pesect.o
 0001:0001d1e0       _FindPESectionByName       000000014001e1e0     libmingw32:lib64_libmingw32_a-pesect.o
 0001:0001d2f0       __mingw_GetSectionForAddress 000000014001e2f0     libmingw32:lib64_libmingw32_a-pesect.o
 0001:0001d360       __mingw_GetSectionCount    000000014001e360     libmingw32:lib64_libmingw32_a-pesect.o
 0001:0001d3c0       _FindPESectionExec         000000014001e3c0     libmingw32:lib64_libmingw32_a-pesect.o
 0001:0001d4c0       _GetPEImageBase            000000014001e4c0     libmingw32:lib64_libmingw32_a-pesect.o
 0001:0001d510       _IsNonwritableInCurrentImage 000000014001e510     libmingw32:lib64_libmingw32_a-pesect.o
 0001:0001d5b0       __mingw_enum_import_library_names 000000014001e5b0     libmingw32:lib64_libmingw32_a-pesect.o
 0001:0001d6fc       ___chkstk_ms               000000014001e6fc     libclang_rt.builtins-x86_64:chkstk.S.obj
 0001:0001d730       vfprintf                   000000014001e730     libucrt:lib64_libucrt_extra_a-ucrt_vfprintf.o
 0001:0001d770       _ZN6System8Internal7Strhlpr15UnicodeFromAnsiERNS_13UnicodeStringERNS_11AnsiStringTILt65535EEE 000000014001e770     rtl:System.Internal.StrHlpr.o
 0001:0001d790       _ZN6System8Internal7Strhlpr16UnicodeFromPCharERNS_13UnicodeStringEPcb 000000014001e790     rtl:System.Internal.StrHlpr.o
 0001:0001d820       _ZN6System8Internal7Strhlpr15UnicodeFromUTF8ERNS_13UnicodeStringEPKc 000000014001e820     rtl:System.Internal.StrHlpr.o
 0001:0001d830       _ZN6System8Internal7Strhlpr20UnicodeFromPWideCharERNS_13UnicodeStringEPw 000000014001e830     rtl:System.Internal.StrHlpr.o
 0001:0001d850       _ZN6System8Internal7Strhlpr13UnicodeAppendERNS_13UnicodeStringES3_ 000000014001e850     rtl:System.Internal.StrHlpr.o
 0001:0001d870       _ZN6System8Internal7Strhlpr10UnicodeCatERNS_13UnicodeStringES3_ 000000014001e870     rtl:System.Internal.StrHlpr.o
 0001:0001d890       _ZN6System8Internal7Strhlpr13UnicodeDeleteERNS_13UnicodeStringEii 000000014001e890     rtl:System.Internal.StrHlpr.o
 0001:0001d8a0       _ZN6System8Internal7Strhlpr16UnicodeSetLengthERNS_13UnicodeStringEi 000000014001e8a0     rtl:System.Internal.StrHlpr.o
 0001:0001d8b0       _ZN6System8Internal7Strhlpr10UnicodePosERNS_13UnicodeStringES3_ 000000014001e8b0     rtl:System.Internal.StrHlpr.o
 0001:0001d8d0       _ZN6System8Internal7Strhlpr11UnicodeCopyERNS_13UnicodeStringEii 000000014001e8d0     rtl:System.Internal.StrHlpr.o
 0001:0001d8f0       _ZN6System8Internal7Strhlpr13UnicodeInsertERNS_13UnicodeStringES3_i 000000014001e8f0     rtl:System.Internal.StrHlpr.o
 0001:0001d910       _ZN6System8Internal7Strhlpr13UnicodeAssignERNS_13UnicodeStringES3_ 000000014001e910     rtl:System.Internal.StrHlpr.o
 0001:0001d930       _ZN6System8Internal7Strhlpr11UnicodeFreeERNS_13UnicodeStringE 000000014001e930     rtl:System.Internal.StrHlpr.o
 0001:0001d940       _ZN6System8Internal7Strhlpr12UnicodeEqualERNS_13UnicodeStringES3_ 000000014001e940     rtl:System.Internal.StrHlpr.o
 0001:0001d960       _ZN6System8Internal7Strhlpr11UnicodeLessERNS_13UnicodeStringES3_ 000000014001e960     rtl:System.Internal.StrHlpr.o
 0001:0001d980       _ZN6System8Internal7Strhlpr14UnicodeGreaterERNS_13UnicodeStringES3_ 000000014001e980     rtl:System.Internal.StrHlpr.o
 0001:0001d9a0       _ZN6System8Internal7Strhlpr10AnsiAppendERNS_11AnsiStringTILt65535EEES4_ 000000014001e9a0     rtl:System.Internal.StrHlpr.o
 0001:0001d9c0       _ZN6System8Internal7Strhlpr7AnsiCatERNS_11AnsiStringTILt65535EEES4_ 000000014001e9c0     rtl:System.Internal.StrHlpr.o
 0001:0001d9e0       _ZN6System8Internal7Strhlpr10AnsiDeleteERNS_11AnsiStringTILt65535EEEii 000000014001e9e0     rtl:System.Internal.StrHlpr.o
 0001:0001d9f0       _ZN6System8Internal7Strhlpr13AnsiSetLengthERNS_11AnsiStringTILt65535EEEi 000000014001e9f0     rtl:System.Internal.StrHlpr.o
 0001:0001da10       _ZN6System8Internal7Strhlpr7AnsiPosERNS_11AnsiStringTILt65535EEES4_ 000000014001ea10     rtl:System.Internal.StrHlpr.o
 0001:0001da30       _ZN6System8Internal7Strhlpr8AnsiCopyERNS_11AnsiStringTILt65535EEEii 000000014001ea30     rtl:System.Internal.StrHlpr.o
 0001:0001da50       _ZN6System8Internal7Strhlpr10AnsiInsertERNS_11AnsiStringTILt65535EEES4_i 000000014001ea50     rtl:System.Internal.StrHlpr.o
 0001:0001da70       _ZN6System8Internal7Strhlpr9AnsiEqualERNS_11AnsiStringTILt65535EEES4_ 000000014001ea70     rtl:System.Internal.StrHlpr.o
 0001:0001da90       _ZN6System8Internal7Strhlpr11AnsiGreaterERNS_11AnsiStringTILt65535EEES4_ 000000014001ea90     rtl:System.Internal.StrHlpr.o
 0001:0001dab0       _ZN6System8Internal7Strhlpr8AnsiLessERNS_11AnsiStringTILt65535EEES4_ 000000014001eab0     rtl:System.Internal.StrHlpr.o
 0001:0001dad0       _ZN6System8Internal7Strhlpr10AnsiAssignERNS_11AnsiStringTILt65535EEES4_ 000000014001ead0     rtl:System.Internal.StrHlpr.o
 0001:0001daf0       _ZN6System8Internal7Strhlpr8AnsiFreeERNS_11AnsiStringTILt65535EEE 000000014001eaf0     rtl:System.Internal.StrHlpr.o
 0001:0001db00       _ZN6System8Internal7Strhlpr10WideAssignERNS_10WideStringES3_ 000000014001eb00     rtl:System.Internal.StrHlpr.o
 0001:0001db20       _ZN6System8Internal7Strhlpr8WideFreeERNS_10WideStringE 000000014001eb20     rtl:System.Internal.StrHlpr.o
 0001:0001db30       _ZN6System8Internal7Strhlpr12WideFromAnsiERNS_10WideStringERNS_11AnsiStringTILt65535EEE 000000014001eb30     rtl:System.Internal.StrHlpr.o
 0001:0001db50       _ZN6System8Internal7Strhlpr15WideFromUnicodeERNS_10WideStringERNS_13UnicodeStringE 000000014001eb50     rtl:System.Internal.StrHlpr.o
 0001:0001db70       _ZN6System8Internal7Strhlpr13WideFromPCharERNS_10WideStringEPcb 000000014001eb70     rtl:System.Internal.StrHlpr.o
 0001:0001dc00       _ZN6System8Internal7Strhlpr9WideEqualERNS_10WideStringES3_ 000000014001ec00     rtl:System.Internal.StrHlpr.o
 0001:0001dc20       _ZN6System8Internal7Strhlpr8WideLessERNS_10WideStringES3_ 000000014001ec20     rtl:System.Internal.StrHlpr.o
 0001:0001dc40       _ZN6System8Internal7Strhlpr11WideGreaterERNS_10WideStringES3_ 000000014001ec40     rtl:System.Internal.StrHlpr.o
 0001:0001dc60       _ZN6System8Internal7Strhlpr7WideCatERNS_10WideStringES3_ 000000014001ec60     rtl:System.Internal.StrHlpr.o
 0001:0001dc80       _ZN6System8Internal7Strhlpr10WideLengthERNS_10WideStringE 000000014001ec80     rtl:System.Internal.StrHlpr.o
 0001:0001dca0       _ZN6System8Internal7Strhlpr7WidePosERNS_10WideStringES3_ 000000014001eca0     rtl:System.Internal.StrHlpr.o
 0001:0001dcc0       _ZN6System8Internal7Strhlpr13WideSetLengthERNS_10WideStringEi 000000014001ecc0     rtl:System.Internal.StrHlpr.o
 0001:0001dcd0       _ZN6System8Internal7Strhlpr10WideDeleteERNS_10WideStringEii 000000014001ecd0     rtl:System.Internal.StrHlpr.o
 0001:0001dce0       _ZN6System8Internal7Strhlpr10WideInsertERNS_10WideStringES3_i 000000014001ece0     rtl:System.Internal.StrHlpr.o
 0001:0001dd00       _ZN6System8Internal7Strhlpr8WideCopyERNS_10WideStringEii 000000014001ed00     rtl:System.Internal.StrHlpr.o
 0001:0001dd20       _ZN6System8Internal7Strhlpr10WideAppendERNS_10WideStringES3_ 000000014001ed20     rtl:System.Internal.StrHlpr.o
 0001:0001dd40       _ZN6System8Internal7Strhlpr12WideFromUTF8ERNS_10WideStringEPKc 000000014001ed40     rtl:System.Internal.StrHlpr.o
 0001:0001ddb0       _ZN6System8Internal7Strhlpr15UnicodeFromWideERNS_13UnicodeStringERNS_10WideStringE 000000014001edb0     rtl:System.Internal.StrHlpr.o
 0001:0001ddd0       _ZN6System8Internal7Strhlpr12FinalizationEv 000000014001edd0     rtl:System.Internal.StrHlpr.o
 0001:0001dde0       _ZN6System8Internal7Strhlpr14initializationEv 000000014001ede0     rtl:System.Internal.StrHlpr.o
 0001:0001ddf0       vsnprintf                  000000014001edf0     libucrt:lib64_libucrt_extra_a-ucrt_vsnprintf.o
 0001:0001de40       sprintf                    000000014001ee40     libucrt:lib64_libucrt_extra_a-ucrt_sprintf.o
 0001:0001e050       _ZN6System8Internal7Initcpp15InitializeUnitsEPNS1_20TUnitDescriptorBlockES3_ 000000014001f050     rtl:System.Internal.InitCPP.o
 0001:0001e0a0       _ZN6System8Internal7Initcpp13FinalizeUnitsEPNS1_20TUnitDescriptorBlockES3_ 000000014001f0a0     rtl:System.Internal.InitCPP.o
 0001:0001e0f0       _ZN6System8Internal7Initcpp15InitializeUnitsEPPNS1_20TUnitDescriptorBlockES4_ 000000014001f0f0     rtl:System.Internal.InitCPP.o
 0001:0001e140       _ZN6System8Internal7Initcpp13FinalizeUnitsEPPNS1_20TUnitDescriptorBlockES4_ 000000014001f140     rtl:System.Internal.InitCPP.o
 0001:0001e190       _ZN6System8Internal7Initcpp15InitializeUnitsEPNS1_15TUnitDescriptorES3_ 000000014001f190     rtl:System.Internal.InitCPP.o
 0001:0001e1a0       _ZN6System8Internal7Initcpp13FinalizeUnitsEPNS1_15TUnitDescriptorES3_ 000000014001f1a0     rtl:System.Internal.InitCPP.o
 0001:0001e1b0       _ZN6System8Internal7Initcpp15CalculateDegreeEPNS1_20TUnitDescriptorBlockES3_ 000000014001f1b0     rtl:System.Internal.InitCPP.o
 0001:0001e1e0       _ZN6System8Internal7Initcpp15CalculateDegreeEPPNS1_20TUnitDescriptorBlockES4_ 000000014001f1e0     rtl:System.Internal.InitCPP.o
 0001:0001e210       _ZN6System8Internal7Initcpp18InitializeRootUnitEPNS1_15TUnitDescriptorE 000000014001f210     rtl:System.Internal.InitCPP.o
 0001:0001e3f0       _ZN6System8Internal7Initcpp16FinalizeRootUnitEPNS1_15TUnitDescriptorE 000000014001f3f0     rtl:System.Internal.InitCPP.o
 0001:0001e4c0       _ZN6System8Internal7Initcpp12FinalizationEv 000000014001f4c0     rtl:System.Internal.InitCPP.o
 0001:0001e4d0       _ZN6System8Internal7Initcpp14initializationEv 000000014001f4d0     rtl:System.Internal.InitCPP.o
 0001:0001e5b0       _Z15__hook_delphiehv       000000014001f5b0     libmingw32:lib64_libmingw32_a-hook_delphieh.o
 0001:0001e6d0       _internal_malloc           000000014001f6d0     libmingw32:lib64_libmingw32_a-hook_delphimm.o
 0001:0001e6f0       _internal_allocmem         000000014001f6f0     libmingw32:lib64_libmingw32_a-hook_delphimm.o
 0001:0001e710       _internal_free             000000014001f710     libmingw32:lib64_libmingw32_a-hook_delphimm.o
 0001:0001e740       _internal_realloc          000000014001f740     libmingw32:lib64_libmingw32_a-hook_delphimm.o
 0001:0001e7d0       _internal_free_heaps       000000014001f7d0     libmingw32:lib64_libmingw32_a-hook_delphimm.o
 0001:0001e7e0       _internal_regmem           000000014001f7e0     libmingw32:lib64_libmingw32_a-hook_delphimm.o
 0001:0001e7f0       _internal_unreg_mem        000000014001f7f0     libmingw32:lib64_libmingw32_a-hook_delphimm.o
 0001:0001e800       _Z15__hook_delphimmv       000000014001f800     libmingw32:lib64_libmingw32_a-hook_delphimm.o
 0001:0001e870       _ZN6System23_DelphiExceptionHandlerEPNS_16TExceptionRecordEyPvS2_ 000000014001f870     rtl:rtl290.bpl
 0001:0001e880       _ZN6System9_RunErrorEh     000000014001f880     rtl:rtl290.bpl
 0001:0001e890       _ZN6System14RegisterModuleEPNS_10TLibModuleE 000000014001f890     rtl:rtl290.bpl
 0001:0001e8a0       _ZN6System16UnregisterModuleEPNS_10TLibModuleE 000000014001f8a0     rtl:rtl290.bpl
 0001:0001e8b0       _ZN6System13FindHInstanceEPv 000000014001f8b0     rtl:rtl290.bpl
 0001:0001e8c0       _ZN6System11_DoneExceptEv  000000014001f8c0     rtl:rtl290.bpl
 0001:0001e8d0       _ZN6System17_DestroyExceptionEP18TExceptionPointersy 000000014001f8d0     rtl:rtl290.bpl
 0001:0001e8e0       _ZN6System12_PackageLoadEPNS_16PackageInfoTableEPNS_10TLibModuleE 000000014001f8e0     rtl:rtl290.bpl
 0001:0001e8f0       _ZN6System14_PackageUnloadEPNS_16PackageInfoTableEPNS_10TLibModuleE 000000014001f8f0     rtl:rtl290.bpl
 0001:0001e900       _ZN6System9_StartLibEPNS_12TInitContextEPNS_16PackageInfoTableEPNS_10TLibModuleEPvPFviS6_EyjS6_ 000000014001f900     rtl:rtl290.bpl
 0001:0001e910       _ZN6System9_StartExeEPNS_16PackageInfoTableEPNS_10TLibModuleE 000000014001f910     rtl:rtl290.bpl
 0001:0001e920       _ZN6System14initializationEv 000000014001f920     rtl:rtl290.bpl
 0001:0001e930       _ZN3Vcl5Forms11TCustomFormC3EPN6System7Classes10TComponentE 000000014001f930     vcl:vcl290.bpl
 0001:0001e940       _ZN3Vcl8Controls8TControl7GetTextEv 000000014001f940     vcl:vcl290.bpl
 0001:0001e950       _ZN3Vcl7Dialogs11ShowMessageEN6System13UnicodeStringE 000000014001f950     vcl:vcl290.bpl
 0001:0001e960       _ZN3Vcl5Forms11TCustomFormC3EPN6System7Classes10TComponentEi 000000014001f960     vcl:vcl290.bpl
 0001:0001e970       _ZN3Vcl5Forms11TCustomFormC3EPN6System7Classes10TComponentEii 000000014001f970     vcl:vcl290.bpl
 0001:0001e980       _ZN3Vcl5Forms11TCustomFormD0Ev 000000014001f980     vcl:vcl290.bpl
 0001:0001e990       _ZN6System7TObject6EqualsEPS0_ 000000014001f990     rtl:rtl290.bpl
 0001:0001e9a0       _ZN6System7TObject11GetHashCodeEv 000000014001f9a0     rtl:rtl290.bpl
 0001:0001e9b0       _ZN6System7TObject8ToStringEv 000000014001f9b0     rtl:rtl290.bpl
 0001:0001e9c0       _ZN6System7Classes10TComponent17SafeCallExceptionEPNS_7TObjectEPv 000000014001f9c0     rtl:rtl290.bpl
 0001:0001e9d0       _ZN3Vcl5Forms11TCustomForm17AfterConstructionEv 000000014001f9d0     vcl:vcl290.bpl
 0001:0001e9e0       _ZN3Vcl5Forms11TCustomForm17BeforeDestructionEv 000000014001f9e0     vcl:vcl290.bpl
 0001:0001e9f0       _ZN6System7TObject8DispatchEPv 000000014001f9f0     rtl:rtl290.bpl
 0001:0001ea00       _ZN3Vcl5Forms11TCustomForm14DefaultHandlerEPv 000000014001fa00     vcl:vcl290.bpl
 0001:0001ea10       _ZN6System7TObject11NewInstanceEv 000000014001fa10     rtl:rtl290.bpl
 0001:0001ea20       _ZN6System7TObject12FreeInstanceEv 000000014001fa20     rtl:rtl290.bpl
 0001:0001ea30       _ZN3Vcl8Controls11TWinControl8AssignToEPN6System7Classes11TPersistentE 000000014001fa30     vcl:vcl290.bpl
 0001:0001ea40       _ZN3Vcl5Forms11TCustomForm16DefinePropertiesEPN6System7Classes6TFilerE 000000014001fa40     vcl:vcl290.bpl
 0001:0001ea50       _ZN6System7Classes11TPersistent6AssignEPS1_ 000000014001fa50     rtl:rtl290.bpl
 0001:0001ea60       _ZN3Vcl8Controls11TWinControl13AsyncScheduleEPN6System7Classes16TBaseAsyncResultE 000000014001fa60     vcl:vcl290.bpl
 0001:0001ea70       _ZN3Vcl5Forms11TCustomForm6LoadedEv 000000014001fa70     vcl:vcl290.bpl
 0001:0001ea80       _ZN3Vcl5Forms11TCustomForm12NotificationEPN6System7Classes10TComponentENS3_10TOperationE 000000014001fa80     vcl:vcl290.bpl
 0001:0001ea90       _ZN3Vcl5Forms11TCustomForm9ReadStateEPN6System7Classes7TReaderE 000000014001fa90     vcl:vcl290.bpl
 0001:0001eaa0       _ZN6System7Classes10TComponent10CanObserveEi 000000014001faa0     rtl:rtl290.bpl
 0001:0001eab0       _ZN6System7Classes10TComponent13ObserverAddedEiNS_15DelphiInterfaceINS0_9IObserverEEE 000000014001fab0     rtl:rtl290.bpl
 0001:0001eac0       _ZN6System7Classes10TComponent12GetObserversEv 000000014001fac0     rtl:rtl290.bpl
 0001:0001ead0       _ZN3Vcl8Controls8TControl7SetNameEN6System13UnicodeStringE 000000014001fad0     vcl:vcl290.bpl
 0001:0001eae0       _ZN6System7Classes10TComponent14UpdateRegistryEbNS_13UnicodeStringES2_ 000000014001fae0     rtl:rtl290.bpl
 0001:0001eaf0       _ZN3Vcl5Forms11TCustomForm14ValidateRenameEPN6System7Classes10TComponentENS2_13UnicodeStringES6_ 000000014001faf0     vcl:vcl290.bpl
 0001:0001eb00       _ZN6System7Classes10TComponent10WriteStateEPNS0_7TWriterE 000000014001fb00     rtl:rtl290.bpl
 0001:0001eb10       _ZN3Vcl5Forms11TCustomForm14QueryInterfaceERK5_GUIDPv 000000014001fb10     vcl:vcl290.bpl
 0001:0001eb20       _ZN6System7Classes10TComponent12UpdateActionEPNS0_12TBasicActionE 000000014001fb20     rtl:rtl290.bpl
 0001:0001eb30       _ZN3Vcl5Forms11TCustomForm12GetDesignDpiEv 000000014001fb30     vcl:vcl290.bpl
 0001:0001eb40       _ZN3Vcl8Controls8TControl19GetParentCurrentDpiEv 000000014001fb40     vcl:vcl290.bpl
 0001:0001eb50       _ZN3Vcl8Controls8TControl13GetCurrentPPIEv 000000014001fb50     vcl:vcl290.bpl
 0001:0001eb60       _ZN3Vcl8Controls11TWinControl17GetDPIForDesignerEv 000000014001fb60     vcl:vcl290.bpl
 0001:0001eb70       _ZN3Vcl8Controls11TWinControl9CanResizeERiS2_ 000000014001fb70     vcl:vcl290.bpl
 0001:0001eb80       _ZN3Vcl8Controls11TWinControl11CanAutoSizeERiS2_ 000000014001fb80     vcl:vcl290.bpl
 0001:0001eb90       _ZN3Vcl8Controls11TWinControl17ConstrainedResizeERiS2_S2_S2_ 000000014001fb90     vcl:vcl290.bpl
 0001:0001eba0       _ZN3Vcl8Controls8TControl18CreateTouchManagerEv 000000014001fba0     vcl:vcl290.bpl
 0001:0001ebb0       _ZN3Vcl5Forms20TScrollingWinControl9DoGestureERKNS_8Controls17TGestureEventInfoERb 000000014001fbb0     vcl:vcl290.bpl
 0001:0001ebc0       _ZN3Vcl5Forms20TScrollingWinControl19DoGetGestureOptionsERN6System3SetINS_8Controls19TInteractiveGestureELS5_0ELS5_4EEERNS3_INS4_25TInteractiveGestureOptionELS8_0ELS8_4EEE 000000014001fbc0     vcl:vcl290.bpl
 0001:0001ebd0       _ZN3Vcl8Controls11TWinControl22DoStyleElementsChangedEv 000000014001fbd0     vcl:vcl290.bpl
 0001:0001ebe0       _ZN3Vcl8Controls8TControl9GetActionEv 000000014001fbe0     vcl:vcl290.bpl
 0001:0001ebf0       _ZN3Vcl8Controls11TWinControl15GetClientOriginEv 000000014001fbf0     vcl:vcl290.bpl
 0001:0001ec00       _ZN3Vcl5Forms11TCustomForm13GetClientRectEv 000000014001fc00     vcl:vcl290.bpl
 0001:0001ec10       _ZN3Vcl8Controls11TWinControl16GetDeviceContextERP6HWND__ 000000014001fc10     vcl:vcl290.bpl
 0001:0001ec20       _ZN3Vcl8Controls8TControl10GetEnabledEv 000000014001fc20     vcl:vcl290.bpl
 0001:0001ec30       _ZN3Vcl5Forms11TCustomForm11GetFloatingEv 000000014001fc30     vcl:vcl290.bpl
 0001:0001ec40       _ZN3Vcl8Controls8TControl24GetFloatingDockSiteClassEv 000000014001fc40     vcl:vcl290.bpl
 0001:0001ec50       _ZN3Vcl5Forms11TCustomForm12RequestAlignEv 000000014001fc50     vcl:vcl290.bpl
 0001:0001ec60       _ZN3Vcl8Controls8TControl19DefaultScalingFlagsEv 000000014001fc60     vcl:vcl290.bpl
 0001:0001ec70       _ZN3Vcl8Controls8TControl11SetAutoSizeEb 000000014001fc70     vcl:vcl290.bpl
 0001:0001ec80       _ZN3Vcl8Controls8TControl11SetDragModeEN6System7Uitypes9TDragModeE 000000014001fc80     vcl:vcl290.bpl
 0001:0001ec90       _ZN3Vcl8Controls8TControl10SetEnabledEb 000000014001fc90     vcl:vcl290.bpl
 0001:0001eca0       _ZN3Vcl5Forms11TCustomForm9SetParentEPNS_8Controls11TWinControlE 000000014001fca0     vcl:vcl290.bpl
 0001:0001ecb0       _ZN3Vcl5Forms11TCustomForm17SetParentBiDiModeEb 000000014001fcb0     vcl:vcl290.bpl
 0001:0001ecc0       _ZN3Vcl8Controls8TControl11SetBiDiModeEN6System7Classes9TBiDiModeE 000000014001fcc0     vcl:vcl290.bpl
 0001:0001ecd0       _ZN3Vcl8Controls8TControl16GetStyleElementsEv 000000014001fcd0     vcl:vcl290.bpl
 0001:0001ece0       _ZN3Vcl8Controls8TControl16SetStyleElementsEN6System3SetINS0_13TStyleElementELS4_0ELS4_2EEE 000000014001fce0     vcl:vcl290.bpl
 0001:0001ecf0       _ZN3Vcl8Controls8TControl12SetStyleNameEN6System13UnicodeStringE 000000014001fcf0     vcl:vcl290.bpl
 0001:0001ed00       _ZN3Vcl5Forms11TCustomForm7WndProcERN6Winapi8Messages8TMessageE 000000014001fd00     vcl:vcl290.bpl
 0001:0001ed10       _ZN3Vcl5Forms11TCustomForm19UpdateStyleElementsEv 000000014001fd10     vcl:vcl290.bpl
 0001:0001ed20       _ZN3Vcl8Controls8TControl13GetDragImagesEv 000000014001fd20     vcl:vcl290.bpl
 0001:0001ed30       _ZN3Vcl8Controls11TWinControl24GetAllocatedWindowHandleEv 000000014001fd30     vcl:vcl290.bpl
 0001:0001ed40       _ZN3Vcl8Controls8TControl19IsCustomStyleActiveEv 000000014001fd40     vcl:vcl290.bpl
 0001:0001ed50       _ZN3Vcl8Controls8TControl17IsLightStyleColorEN6System7Uitypes6TColorE 000000014001fd50     vcl:vcl290.bpl
 0001:0001ed60       _ZN3Vcl5Forms11TCustomForm11ScaleForPPIEi 000000014001fd60     vcl:vcl290.bpl
 0001:0001ed70       _ZN3Vcl8Controls8TControl14InitiateActionEv 000000014001fd70     vcl:vcl290.bpl
 0001:0001ed80       _ZN3Vcl8Controls11TWinControl10InvalidateEv 000000014001fd80     vcl:vcl290.bpl
 0001:0001ed90       _ZN3Vcl8Controls11TWinControl7RepaintEv 000000014001fd90     vcl:vcl290.bpl
 0001:0001eda0       _ZN3Vcl8Controls11TWinControl9SetBoundsEiiii 000000014001fda0     vcl:vcl290.bpl
 0001:0001edb0       _ZN3Vcl8Controls11TWinControl6UpdateEv 000000014001fdb0     vcl:vcl290.bpl
 0001:0001edc0       _ZN3Vcl8Controls8TControl16GetSystemMetricsEi 000000014001fdc0     vcl:vcl290.bpl
 0001:0001edd0       _ZN3Vcl8Controls8TControl12GetStyleNameEv 000000014001fdd0     vcl:vcl290.bpl
 0001:0001ede0       _ZN3Vcl8Controls11TWinControl21CanUseDoubleBufferingEv 000000014001fde0     vcl:vcl290.bpl
 0001:0001edf0       _ZN3Vcl8Controls11TWinControl17GetDoubleBufferedEv 000000014001fdf0     vcl:vcl290.bpl
 0001:0001ee00       _ZN3Vcl5Forms11TCustomForm16AdjustClientRectERN6System5Types5TRectE 000000014001fe00     vcl:vcl290.bpl
 0001:0001ee10       _ZN3Vcl5Forms11TCustomForm13AlignControlsEPNS_8Controls8TControlERN6System5Types5TRectE 000000014001fe10     vcl:vcl290.bpl
 0001:0001ee20       _ZN3Vcl8Controls11TWinControl12CreateHandleEv 000000014001fe20     vcl:vcl290.bpl
 0001:0001ee30       _ZN3Vcl5Forms11TCustomForm12CreateParamsERNS_8Controls13TCreateParamsE 000000014001fe30     vcl:vcl290.bpl
 0001:0001ee40       _ZN3Vcl5Forms11TCustomForm18CreateWindowHandleERKNS_8Controls13TCreateParamsE 000000014001fe40     vcl:vcl290.bpl
 0001:0001ee50       _ZN3Vcl5Forms11TCustomForm9CreateWndEv 000000014001fe50     vcl:vcl290.bpl
 0001:0001ee60       _ZN3Vcl8Controls11TWinControl23CustomAlignInsertBeforeEPNS0_8TControlES3_ 000000014001fe60     vcl:vcl290.bpl
 0001:0001ee70       _ZN3Vcl8Controls11TWinControl19CustomAlignPositionEPNS0_8TControlERiS4_S4_S4_RN6System5Types5TRectERKNS0_10TAlignInfoE 000000014001fe70     vcl:vcl290.bpl
 0001:0001ee80       _ZN3Vcl5Forms11TCustomForm13DestroyHandleEv 000000014001fe80     vcl:vcl290.bpl
 0001:0001ee90       _ZN3Vcl5Forms11TCustomForm19DestroyWindowHandleEv 000000014001fe90     vcl:vcl290.bpl
 0001:0001eea0       _ZN3Vcl8Controls11TWinControl10DestroyWndEv 000000014001fea0     vcl:vcl290.bpl
 0001:0001eeb0       _ZN3Vcl8Controls11TWinControl21DockReplaceDockClientEPNS0_8TControlEPS1_S3_NS0_6TAlignES3_ 000000014001feb0     vcl:vcl290.bpl
 0001:0001eec0       _ZN3Vcl5Forms11TCustomForm20DoWritePixelsPerInchEPN6System7Classes6TFilerE 000000014001fec0     vcl:vcl290.bpl
 0001:0001eed0       _ZN3Vcl8Controls11TWinControl17GetControlExtentsEv 000000014001fed0     vcl:vcl290.bpl
 0001:0001eee0       _ZN3Vcl5Forms11TCustomForm11PaintWindowEP5HDC__ 000000014001fee0     vcl:vcl290.bpl
 0001:0001eef0       _ZN3Vcl8Controls11TWinControl8ResetImeEP6HWND__ 000000014001fef0     vcl:vcl290.bpl
 0001:0001ef00       _ZN3Vcl8Controls11TWinControl19ScaleControlsForDpiEi 000000014001ff00     vcl:vcl290.bpl
 0001:0001ef10       _ZN3Vcl8Controls11TWinControl16GetPixelsPerInchEv 000000014001ff10     vcl:vcl290.bpl
 0001:0001ef20       _ZN3Vcl5Forms11TCustomForm16SetPixelsPerInchEi 000000014001ff20     vcl:vcl290.bpl
 0001:0001ef30       _ZN3Vcl8Controls11TWinControl20IsDPIScalingRequiredEv 000000014001ff30     vcl:vcl290.bpl
 0001:0001ef40       _ZN3Vcl8Controls11TWinControl6SetImeEP6HWND__ 000000014001ff40     vcl:vcl290.bpl
 0001:0001ef50       _ZN3Vcl8Controls11TWinControl19SetParentBackgroundEb 000000014001ff50     vcl:vcl290.bpl
 0001:0001ef60       _ZN3Vcl8Controls11TWinControl23SetParentDoubleBufferedEb 000000014001ff60     vcl:vcl290.bpl
 0001:0001ef70       _ZN3Vcl8Controls11TWinControl11ShowControlEPNS0_8TControlE 000000014001ff70     vcl:vcl290.bpl
 0001:0001ef80       _ZN3Vcl8Controls11TWinControl31UpdateControlOriginalParentSizeEPNS0_8TControlERN6System5Types6TPointE 000000014001ff80     vcl:vcl290.bpl
 0001:0001ef90       _ZN3Vcl8Controls11TWinControl15UpdateTIPStatusEv 000000014001ff90     vcl:vcl290.bpl
 0001:0001efa0       _ZN3Vcl8Controls11TWinControl18InitMessageHandlerENS0_30TWinControlMessageHandlerClassE 000000014001ffa0     vcl:vcl290.bpl
 0001:0001efb0       _ZN3Vcl5Forms11TCustomForm8SetFocusEv 000000014001ffb0     vcl:vcl290.bpl
 0001:0001efc0       _ZN3Vcl8Controls11TWinControl19CanEnumerateControlEPNS0_8TControlE 000000014001ffc0     vcl:vcl290.bpl
 0001:0001efd0       _ZN3Vcl5Forms20TScrollingWinControl17AutoScrollEnabledEv 000000014001ffd0     vcl:vcl290.bpl
 0001:0001efe0       _ZN3Vcl5Forms20TScrollingWinControl16AutoScrollInViewEPNS_8Controls8TControlE 000000014001ffe0     vcl:vcl290.bpl
 0001:0001eff0       _ZN3Vcl5Forms11TCustomForm8ResizingEN6System7Uitypes12TWindowStateE 000000014001fff0     vcl:vcl290.bpl
 0001:0001f000       _ZN3Vcl5Forms11TCustomForm16CanShowInTaskBarEv 0000000140020000     vcl:vcl290.bpl
 0001:0001f010       _ZN3Vcl5Forms11TCustomForm13ClientWndProcERN6Winapi8Messages8TMessageE 0000000140020010     vcl:vcl290.bpl
 0001:0001f020       _ZN3Vcl5Forms11TCustomForm8DoCreateEv 0000000140020020     vcl:vcl290.bpl
 0001:0001f030       _ZN3Vcl5Forms11TCustomForm9DoDestroyEv 0000000140020030     vcl:vcl290.bpl
 0001:0001f040       _ZN3Vcl5Forms11TCustomForm19DoThumbButtonNotifyEt 0000000140020040     vcl:vcl290.bpl
 0001:0001f050       _ZN3Vcl5Forms11TCustomForm22DoWindowPreviewRequestEv 0000000140020050     vcl:vcl290.bpl
 0001:0001f060       _ZN3Vcl5Forms11TCustomForm21DoThumbPreviewRequestEtt 0000000140020060     vcl:vcl290.bpl
 0001:0001f070       _ZN3Vcl5Forms11TCustomForm13UpdateActionsEv 0000000140020070     vcl:vcl290.bpl
 0001:0001f080       _ZN3Vcl5Forms11TCustomForm25DoBeforeMonitorDpiChangedEii 0000000140020080     vcl:vcl290.bpl
 0001:0001f090       _ZN3Vcl5Forms11TCustomForm24DoAfterMonitorDpiChangedEii 0000000140020090     vcl:vcl290.bpl
 0001:0001f0a0       _ZN3Vcl5Forms11TCustomForm18ScaleForCurrentDPIEb 00000001400200a0     vcl:vcl290.bpl
 0001:0001f0b0       _ZN3Vcl5Forms11TCustomForm10CloseQueryEv 00000001400200b0     vcl:vcl290.bpl
 0001:0001f0c0       _ZN3Vcl5Forms11TCustomForm17SetFocusedControlEPNS_8Controls11TWinControlE 00000001400200c0     vcl:vcl290.bpl
 0001:0001f0d0       _ZN3Vcl5Forms11TCustomForm9ShowModalEv 00000001400200d0     vcl:vcl290.bpl
 0001:0001f0e0       _ZN3Vcl5Forms11TCustomForm12WantChildKeyEPNS_8Controls8TControlERN6Winapi8Messages8TMessageE 00000001400200e0     vcl:vcl290.bpl
 0001:0001f0f0       _ZN3Vcl8Extctrls6TTimer11SetIntervalEj 00000001400200f0     vcl:vcl290.bpl
 0001:0001f100       _ZN3Vcl8Extctrls6TTimer10SetEnabledEb 0000000140020100     vcl:vcl290.bpl
 0001:0001f110       _ZN3Vcl8Controls8TControl7SetTextEN6System13UnicodeStringE 0000000140020110     vcl:vcl290.bpl
 0001:0001f120       _ZN3Vcl8Comctrls10TListItems5ClearEv 0000000140020120     vcl:vcl290.bpl
 0001:0001f130       _ZN3Vcl8Comctrls10TListItems3AddEv 0000000140020130     vcl:vcl290.bpl
 0001:0001f140       _ZN3Vcl8Comctrls10TListItems7GetItemEi 0000000140020140     vcl:vcl290.bpl
 0001:0001f150       _ZN3Vcl8Comctrls9TListItem10SetCaptionEN6System13UnicodeStringE 0000000140020150     vcl:vcl290.bpl
 0001:0001f160       _ZN3Vcl7Dialogs10MessageDlgEN6System13UnicodeStringENS1_7Uitypes11TMsgDlgTypeENS1_3SetINS3_10TMsgDlgBtnELS6_0ELS6_11EEEi 0000000140020160     vcl:vcl290.bpl
 0001:0001f170       _ZN3Vcl8Comctrls10TListItems6DeleteEi 0000000140020170     vcl:vcl290.bpl
 0001:0001f180       _ZN3Vcl5Forms12TApplication10InitializeEv 0000000140020180     vcl:vcl290.bpl
 0001:0001f190       _ZN3Vcl5Forms12TApplication20SetMainFormOnTaskBarEb 0000000140020190     vcl:vcl290.bpl
 0001:0001f1a0       _ZN3Vcl5Forms12TApplication10CreateFormEN6System7Classes15TComponentClassEPv 00000001400201a0     vcl:vcl290.bpl
 0001:0001f1b0       _ZN3Vcl5Forms12TApplication3RunEv 00000001400201b0     vcl:vcl290.bpl
 0001:0001f1c0       _ZN3Vcl5Forms12TApplication13ShowExceptionEPN6System8Sysutils9ExceptionE 00000001400201c0     vcl:vcl290.bpl
 0001:0001f1d0       _ZN6System8Sysutils9ExceptionC3ENS_13UnicodeStringE 00000001400201d0     rtl:rtl290.bpl
 0001:0001f1e0       _ZN6System8Sysutils9ExceptionD0Ev 00000001400201e0     rtl:rtl290.bpl
 0001:0001f1f0       malloc                     00000001400201f0     libucrt:api-ms-win-crt-heap-l1-1-0.dll
 0001:0001f200       __C_specific_handler       0000000140020200     libucrt:api-ms-win-crt-private-l1-1-0.dll
 0001:0001f210       memcpy                     0000000140020210     libucrt:api-ms-win-crt-private-l1-1-0.dll
 0001:0001f220       memmove                    0000000140020220     libucrt:api-ms-win-crt-private-l1-1-0.dll
 0001:0001f230       _cexit                     0000000140020230     libucrt:api-ms-win-crt-runtime-l1-1-0.dll
 0001:0001f240       _initterm                  0000000140020240     libucrt:api-ms-win-crt-runtime-l1-1-0.dll
 0001:0001f250       _set_invalid_parameter_handler 0000000140020250     libucrt:api-ms-win-crt-runtime-l1-1-0.dll
 0001:0001f260       exit                       0000000140020260     libucrt:api-ms-win-crt-runtime-l1-1-0.dll
 0001:0001f270       __p__commode               0000000140020270     libucrt:api-ms-win-crt-stdio-l1-1-0.dll
 0001:0001f280       __p__fmode                 0000000140020280     libucrt:api-ms-win-crt-stdio-l1-1-0.dll
 0001:0001f290       fclose                     0000000140020290     libucrt:api-ms-win-crt-stdio-l1-1-0.dll
 0001:0001f2a0       fflush                     00000001400202a0     libucrt:api-ms-win-crt-stdio-l1-1-0.dll
 0001:0001f2b0       fopen                      00000001400202b0     libucrt:api-ms-win-crt-stdio-l1-1-0.dll
 0001:0001f2c0       fread                      00000001400202c0     libucrt:api-ms-win-crt-stdio-l1-1-0.dll
 0001:0001f2d0       fseek                      00000001400202d0     libucrt:api-ms-win-crt-stdio-l1-1-0.dll
 0001:0001f2e0       ftell                      00000001400202e0     libucrt:api-ms-win-crt-stdio-l1-1-0.dll
 0001:0001f2f0       fwrite                     00000001400202f0     libucrt:api-ms-win-crt-stdio-l1-1-0.dll
 0001:0001f300       memset                     0000000140020300     libucrt:api-ms-win-crt-string-l1-1-0.dll
 0001:0001f310       strlen                     0000000140020310     libucrt:api-ms-win-crt-string-l1-1-0.dll
 0001:0001f320       wcslen                     0000000140020320     libucrt:api-ms-win-crt-string-l1-1-0.dll
 0001:0001f330       rand                       0000000140020330     libucrt:api-ms-win-crt-utility-l1-1-0.dll
 0001:0001f340       _ZNKSt3__16locale9has_facetERNS0_2idE 0000000140020340     libc++.dll:libc++.dll
 0001:0001f350       _ZNKSt3__16locale9use_facetERNS0_2idE 0000000140020350     libc++.dll:libc++.dll
 0001:0001f360       _ZNKSt3__18ios_base6getlocEv 0000000140020360     libc++.dll:libc++.dll
 0001:0001f370       _ZNSt11logic_errorC2EPKc   0000000140020370     libc++.dll:libc++.dll
 0001:0001f380       _ZNSt12length_errorD1Ev    0000000140020380     libc++.dll:libc++.dll
 0001:0001f390       _ZNSt20bad_array_new_lengthC1Ev 0000000140020390     libc++.dll:libc++.dll
 0001:0001f3a0       _ZNSt20bad_array_new_lengthD1Ev 00000001400203a0     libc++.dll:libc++.dll
 0001:0001f3b0       _ZNSt3__112basic_stringIcNS_11char_traitsIcEENS_9allocatorIcEEE6__initEPKcy 00000001400203b0     libc++.dll:libc++.dll
 0001:0001f3c0       _ZNSt3__112basic_stringIcNS_11char_traitsIcEENS_9allocatorIcEEE6__initEyc 00000001400203c0     libc++.dll:libc++.dll
 0001:0001f3d0       _ZNSt3__112basic_stringIcNS_11char_traitsIcEENS_9allocatorIcEEE6insertEyPKc 00000001400203d0     libc++.dll:libc++.dll
 0001:0001f3e0       _ZNSt3__112basic_stringIcNS_11char_traitsIcEENS_9allocatorIcEEE9push_backEc 00000001400203e0     libc++.dll:libc++.dll
 0001:0001f3f0       _ZNSt3__112basic_stringIcNS_11char_traitsIcEENS_9allocatorIcEEEC1ERKS5_ 00000001400203f0     libc++.dll:libc++.dll
 0001:0001f400       _ZNSt3__112basic_stringIcNS_11char_traitsIcEENS_9allocatorIcEEED1Ev 0000000140020400     libc++.dll:libc++.dll
 0001:0001f410       _ZNSt3__112basic_stringIcNS_11char_traitsIcEENS_9allocatorIcEEEaSERKS5_ 0000000140020410     libc++.dll:libc++.dll
 0001:0001f420       _ZNSt3__113basic_istreamIcNS_11char_traitsIcEEED0Ev 0000000140020420     libc++.dll:libc++.dll
 0001:0001f430       _ZNSt3__113basic_istreamIcNS_11char_traitsIcEEED1Ev 0000000140020430     libc++.dll:libc++.dll
 0001:0001f440       _ZNSt3__113basic_istreamIcNS_11char_traitsIcEEED2Ev 0000000140020440     libc++.dll:libc++.dll
 0001:0001f450       _ZNSt3__113basic_istreamIcNS_11char_traitsIcEEErsERb 0000000140020450     libc++.dll:libc++.dll
 0001:0001f460       _ZNSt3__113basic_istreamIcNS_11char_traitsIcEEErsERd 0000000140020460     libc++.dll:libc++.dll
 0001:0001f470       _ZNSt3__113basic_istreamIcNS_11char_traitsIcEEErsERi 0000000140020470     libc++.dll:libc++.dll
 0001:0001f480       _ZNSt3__113basic_istreamIcNS_11char_traitsIcEEErsERy 0000000140020480     libc++.dll:libc++.dll
 0001:0001f490       _ZNSt3__113basic_ostreamIcNS_11char_traitsIcEEE5flushEv 0000000140020490     libc++.dll:libc++.dll
 0001:0001f4a0       _ZNSt3__113basic_ostreamIcNS_11char_traitsIcEEED0Ev 00000001400204a0     libc++.dll:libc++.dll
 0001:0001f4b0       _ZNSt3__113basic_ostreamIcNS_11char_traitsIcEEED1Ev 00000001400204b0     libc++.dll:libc++.dll
 0001:0001f4c0       _ZNSt3__113basic_ostreamIcNS_11char_traitsIcEEED2Ev 00000001400204c0     libc++.dll:libc++.dll
 0001:0001f4d0       _ZNSt3__113basic_ostreamIcNS_11char_traitsIcEEElsEb 00000001400204d0     libc++.dll:libc++.dll
 0001:0001f4e0       _ZNSt3__113basic_ostreamIcNS_11char_traitsIcEEElsEd 00000001400204e0     libc++.dll:libc++.dll
 0001:0001f4f0       _ZNSt3__113basic_ostreamIcNS_11char_traitsIcEEElsEi 00000001400204f0     libc++.dll:libc++.dll
 0001:0001f500       _ZNSt3__113basic_ostreamIcNS_11char_traitsIcEEElsEy 0000000140020500     libc++.dll:libc++.dll
 0001:0001f510       _ZNSt3__115basic_streambufIcNS_11char_traitsIcEEE5uflowEv 0000000140020510     libc++.dll:libc++.dll
 0001:0001f520       _ZNSt3__115basic_streambufIcNS_11char_traitsIcEEE6xsgetnEPcx 0000000140020520     libc++.dll:libc++.dll
 0001:0001f530       _ZNSt3__115basic_streambufIcNS_11char_traitsIcEEE6xsputnEPKcx 0000000140020530     libc++.dll:libc++.dll
 0001:0001f540       _ZNSt3__115basic_streambufIcNS_11char_traitsIcEEE9showmanycEv 0000000140020540     libc++.dll:libc++.dll
 0001:0001f550       _ZNSt3__115basic_streambufIcNS_11char_traitsIcEEEC2Ev 0000000140020550     libc++.dll:libc++.dll
 0001:0001f560       _ZNSt3__115basic_streambufIcNS_11char_traitsIcEEED2Ev 0000000140020560     libc++.dll:libc++.dll
 0001:0001f570       _ZNSt3__16localeC1ERKS0_   0000000140020570     libc++.dll:libc++.dll
 0001:0001f580       _ZNSt3__16localeD1Ev       0000000140020580     libc++.dll:libc++.dll
 0001:0001f590       _ZNSt3__18ios_base33__set_badbit_and_consider_rethrowEv 0000000140020590     libc++.dll:libc++.dll
 0001:0001f5a0       _ZNSt3__18ios_base4initEPv 00000001400205a0     libc++.dll:libc++.dll
 0001:0001f5b0       _ZNSt3__18ios_base5clearEj 00000001400205b0     libc++.dll:libc++.dll
 0001:0001f5c0       _ZNSt3__19basic_iosIcNS_11char_traitsIcEEED2Ev 00000001400205c0     libc++.dll:libc++.dll
 0001:0001f5d0       _ZNSt3__19to_stringEi      00000001400205d0     libc++.dll:libc++.dll
 0001:0001f5e0       _ZNSt8bad_castC1Ev         00000001400205e0     libc++.dll:libc++.dll
 0001:0001f5f0       _ZNSt8bad_castD1Ev         00000001400205f0     libc++.dll:libc++.dll
 0001:0001f600       _ZSt18uncaught_exceptionv  0000000140020600     libc++.dll:libc++.dll
 0001:0001f610       _ZSt9terminatev            0000000140020610     libc++.dll:libc++.dll
 0001:0001f620       _ZTv0_n24_NSt3__113basic_istreamIcNS_11char_traitsIcEEED0Ev 0000000140020620     libc++.dll:libc++.dll
 0001:0001f630       _ZTv0_n24_NSt3__113basic_istreamIcNS_11char_traitsIcEEED1Ev 0000000140020630     libc++.dll:libc++.dll
 0001:0001f640       _ZTv0_n24_NSt3__113basic_ostreamIcNS_11char_traitsIcEEED0Ev 0000000140020640     libc++.dll:libc++.dll
 0001:0001f650       _ZTv0_n24_NSt3__113basic_ostreamIcNS_11char_traitsIcEEED1Ev 0000000140020650     libc++.dll:libc++.dll
 0001:0001f660       _ZdaPv                     0000000140020660     libc++.dll:libc++.dll
 0001:0001f670       _ZdlPv                     0000000140020670     libc++.dll:libc++.dll
 0001:0001f680       _ZdlPvSt11align_val_t      0000000140020680     libc++.dll:libc++.dll
 0001:0001f690       _Znay                      0000000140020690     libc++.dll:libc++.dll
 0001:0001f6a0       _Znwy                      00000001400206a0     libc++.dll:libc++.dll
 0001:0001f6b0       _ZnwySt11align_val_t       00000001400206b0     libc++.dll:libc++.dll
 0001:0001f6c0       __cxa_allocate_exception   00000001400206c0     libc++.dll:libc++.dll
 0001:0001f6d0       __cxa_begin_catch          00000001400206d0     libc++.dll:libc++.dll
 0001:0001f6e0       __cxa_end_catch            00000001400206e0     libc++.dll:libc++.dll
 0001:0001f6f0       __cxa_free_exception       00000001400206f0     libc++.dll:libc++.dll
 0001:0001f700       __cxa_guard_acquire        0000000140020700     libc++.dll:libc++.dll
 0001:0001f710       __cxa_guard_release        0000000140020710     libc++.dll:libc++.dll
 0001:0001f720       __cxa_rethrow              0000000140020720     libc++.dll:libc++.dll
 0001:0001f730       __cxa_throw                0000000140020730     libc++.dll:libc++.dll
 0001:0001f740       __gxx_personality_seh0     0000000140020740     libc++.dll:libc++.dll
 0001:0001f750       _Unwind_Resume             0000000140020750     libunwind.dll:libunwind.dll
 0001:0001f760       FreeLibrary                0000000140020760     import64:KERNEL32.dll
 0001:0001f770       GetCommandLineW            0000000140020770     import64:KERNEL32.dll
 0001:0001f780       GetLastError               0000000140020780     import64:KERNEL32.dll
 0001:0001f790       GetModuleHandleW           0000000140020790     import64:KERNEL32.dll
 0001:0001f7a0       GetProcAddress             00000001400207a0     import64:KERNEL32.dll
 0001:0001f7b0       LoadLibraryA               00000001400207b0     import64:KERNEL32.dll
 0001:0001f7c0       LocalAlloc                 00000001400207c0     import64:KERNEL32.dll
 0001:0001f7d0       LocalFree                  00000001400207d0     import64:KERNEL32.dll
 0001:0001f7e0       RaiseException             00000001400207e0     import64:KERNEL32.dll
 0001:0001f7f0       SetUnhandledExceptionFilter 00000001400207f0     import64:KERNEL32.dll
 0001:0001f800       Sleep                      0000000140020800     import64:KERNEL32.dll
 0001:0001f810       TlsAlloc                   0000000140020810     import64:KERNEL32.dll
 0001:0001f820       TlsFree                    0000000140020820     import64:KERNEL32.dll
 0001:0001f830       TlsGetValue                0000000140020830     import64:KERNEL32.dll
 0001:0001f840       TlsSetValue                0000000140020840     import64:KERNEL32.dll
 0001:0001f850       _set_app_type              0000000140020850     libucrt:api-ms-win-crt-runtime-l1-1-0.dll
 0001:0001f850       _set_app_type              0000000140020850     libucrt:api-ms-win-crt-runtime-l1-1-0.dll
 0001:0001f860       _initialize_narrow_environment 0000000140020860     libucrt:api-ms-win-crt-runtime-l1-1-0.dll
 0001:0001f870       _configure_narrow_argv     0000000140020870     libucrt:api-ms-win-crt-runtime-l1-1-0.dll
 0001:0001f880       __p___argc                 0000000140020880     libucrt:api-ms-win-crt-runtime-l1-1-0.dll
 0001:0001f890       __p___argv                 0000000140020890     libucrt:api-ms-win-crt-runtime-l1-1-0.dll
 0001:0001f8a0       __p__environ               00000001400208a0     libucrt:api-ms-win-crt-environment-l1-1-0.dll
 0001:0001f8b0       _set_new_mode              00000001400208b0     libucrt:api-ms-win-crt-heap-l1-1-0.dll
 0001:0001f8c0       _initialize_wide_environment 00000001400208c0     libucrt:api-ms-win-crt-runtime-l1-1-0.dll
 0001:0001f8d0       _configure_wide_argv       00000001400208d0     libucrt:api-ms-win-crt-runtime-l1-1-0.dll
 0001:0001f8e0       __p___wargv                00000001400208e0     libucrt:api-ms-win-crt-runtime-l1-1-0.dll
 0001:0001f8f0       __p__wenviron              00000001400208f0     libucrt:api-ms-win-crt-environment-l1-1-0.dll
 0001:0001f900       _crt_atexit                0000000140020900     libucrt:api-ms-win-crt-runtime-l1-1-0.dll
 0001:0001f910       _crt_at_quick_exit         0000000140020910     libucrt:api-ms-win-crt-runtime-l1-1-0.dll
 0001:0001f920       __acrt_iob_func            0000000140020920     libucrt:api-ms-win-crt-stdio-l1-1-0.dll
 0001:0001f930       _exit                      0000000140020930     libucrt:api-ms-win-crt-runtime-l1-1-0.dll
 0001:0001f940       __tzname                   0000000140020940     libucrt:api-ms-win-crt-time-l1-1-0.dll
 0001:0001f950       __timezone                 0000000140020950     libucrt:api-ms-win-crt-time-l1-1-0.dll
 0001:0001f960       __daylight                 0000000140020960     libucrt:api-ms-win-crt-time-l1-1-0.dll
 0001:0001f970       __stdio_common_vfwprintf   0000000140020970     libucrt:api-ms-win-crt-stdio-l1-1-0.dll
 0001:0001f980       __stdio_common_vsprintf    0000000140020980     libucrt:api-ms-win-crt-stdio-l1-1-0.dll
 0001:0001f990       __p__wcmdln                0000000140020990     libucrt:api-ms-win-crt-runtime-l1-1-0.dll
 0001:0001f9a0       GetStartupInfoW            00000001400209a0     import64:KERNEL32.dll
 0001:0001f9b0       VirtualProtect             00000001400209b0     import64:KERNEL32.dll
 0001:0001f9c0       abort                      00000001400209c0     libucrt:api-ms-win-crt-runtime-l1-1-0.dll
 0001:0001f9d0       VirtualQuery               00000001400209d0     import64:KERNEL32.dll
 0001:0001f9e0       __setusermatherr           00000001400209e0     libucrt:api-ms-win-crt-math-l1-1-0.dll
 0001:0001f9f0       signal                     00000001400209f0     libucrt:api-ms-win-crt-runtime-l1-1-0.dll
 0001:0001fa00       _ZN6System14_LStrFromPCharERNS_11AnsiStringTILt0EEEPct 0000000140020a00     rtl:rtl290.bpl
 0001:0001fa10       _ZN6System8Syncobjs12TInterlocked9IncrementERi 0000000140020a10     rtl:rtl290.bpl
 0001:0001fa20       _ZN6System8_LStrAsgERNS_11AnsiStringTILt0EEES1_ 0000000140020a20     rtl:rtl290.bpl
 0001:0001fa30       _ZN6System13_LStrFromWStrERNS_11AnsiStringTILt0EEENS_10WideStringEt 0000000140020a30     rtl:rtl290.bpl
 0001:0001fa40       _ZN6System13_LStrFromUStrERNS_11AnsiStringTILt0EEENS_13UnicodeStringEt 0000000140020a40     rtl:rtl290.bpl
 0001:0001fa50       _ZN6System14_LStrSetLengthERNS_11AnsiStringTILt0EEEit 0000000140020a50     rtl:rtl290.bpl
 0001:0001fa60       _ZN6System18_LStrFromPWCharLenERNS_11AnsiStringTILt0EEEPwit 0000000140020a60     rtl:rtl290.bpl
 0001:0001fa70       _ZN6System14_LStrFromWCharERNS_11AnsiStringTILt0EEEwt 0000000140020a70     rtl:rtl290.bpl
 0001:0001fa80       _ZN6System8Sysutils10FloatToStrEe 0000000140020a80     rtl:rtl290.bpl
 0001:0001fa90       _ZN6System8_LStrClrEPv     0000000140020a90     rtl:rtl290.bpl
 0001:0001faa0       _ZN6System8_LStrCatERNS_11AnsiStringTILt0EEES1_ 0000000140020aa0     rtl:rtl290.bpl
 0001:0001fab0       _ZN6System9_LStrCat3ERNS_11AnsiStringTILt0EEES1_S1_ 0000000140020ab0     rtl:rtl290.bpl
 0001:0001fac0       _ZN6System11Ansistrings15AnsiCompareTextENS_11AnsiStringTILt0EEES2_ 0000000140020ac0     rtl:rtl290.bpl
 0001:0001fad0       _ZN6System12StringOfCharEci 0000000140020ad0     rtl:rtl290.bpl
 0001:0001fae0       _ZN6System8Sysutils7LoadStrEy 0000000140020ae0     rtl:rtl290.bpl
 0001:0001faf0       FindResourceA              0000000140020af0     import64:KERNEL32.dll
 0001:0001fb00       LoadResource               0000000140020b00     import64:KERNEL32.dll
 0001:0001fb10       LockResource               0000000140020b10     import64:KERNEL32.dll
 0001:0001fb20       FreeResource               0000000140020b20     import64:KERNEL32.dll
 0001:0001fb30       _ZN6System8Sysutils10FmtLoadStrEyPKNS_7TVarRecEx 0000000140020b30     rtl:rtl290.bpl
 0001:0001fb40       _ZN6System11Ansistrings6FormatENS_11AnsiStringTILt0EEEPKNS_7TVarRecEx 0000000140020b40     rtl:rtl290.bpl
 0001:0001fb50       _ZN6System8Sysutils11FormatFloatENS_13UnicodeStringEe 0000000140020b50     rtl:rtl290.bpl
 0001:0001fb60       _ZN6System8Sysutils11FloatToStrFEeNS0_12TFloatFormatEii 0000000140020b60     rtl:rtl290.bpl
 0001:0001fb70       _ZN6System8Sysutils8IntToHexEii 0000000140020b70     rtl:rtl290.bpl
 0001:0001fb80       _ZN6System8Sysutils9CurrToStrENS_8CurrencyE 0000000140020b80     rtl:rtl290.bpl
 0001:0001fb90       _ZN6System8Sysutils10CurrToStrFENS_8CurrencyENS0_12TFloatFormatEi 0000000140020b90     rtl:rtl290.bpl
 0001:0001fba0       MultiByteToWideChar        0000000140020ba0     import64:KERNEL32.dll
 0001:0001fbb0       _ZN6System11_LStrInsertENS_11AnsiStringTILt0EEERS1_i 0000000140020bb0     rtl:rtl290.bpl
 0001:0001fbc0       _ZN6System8Syncobjs12TInterlocked8ExchangeERPvS2_ 0000000140020bc0     rtl:rtl290.bpl
 0001:0001fbd0       _ZN6System11_LStrDeleteERNS_11AnsiStringTILt0EEEii 0000000140020bd0     rtl:rtl290.bpl
 0001:0001fbe0       _ZN6System3PosENS_11AnsiStringTILt65535EEES1_i 0000000140020be0     rtl:rtl290.bpl
 0001:0001fbf0       _ZN6System11Ansistrings13AnsiLowerCaseENS_11AnsiStringTILt0EEE 0000000140020bf0     rtl:rtl290.bpl
 0001:0001fc00       _ZN6System11Ansistrings13AnsiUpperCaseENS_11AnsiStringTILt0EEE 0000000140020c00     rtl:rtl290.bpl
 0001:0001fc10       _ZN6System11Ansistrings4TrimENS_11AnsiStringTILt0EEE 0000000140020c10     rtl:rtl290.bpl
 0001:0001fc20       _ZN6System11Ansistrings8TrimLeftENS_11AnsiStringTILt0EEE 0000000140020c20     rtl:rtl290.bpl
 0001:0001fc30       _ZN6System11Ansistrings9TrimRightENS_11AnsiStringTILt0EEE 0000000140020c30     rtl:rtl290.bpl
 0001:0001fc40       _ZN6System8Sysutils8StrToIntENS_13UnicodeStringE 0000000140020c40     rtl:rtl290.bpl
 0001:0001fc50       _ZN6System8Sysutils11StrToIntDefENS_13UnicodeStringEi 0000000140020c50     rtl:rtl290.bpl
 0001:0001fc60       _ZN6System8Sysutils10StrToFloatENS_13UnicodeStringE 0000000140020c60     rtl:rtl290.bpl
 0001:0001fc70       _ZN6System11Ansistrings11IsDelimiterENS_11AnsiStringTILt0EEES2_i 0000000140020c70     rtl:rtl290.bpl
 0001:0001fc80       _ZN6System11Ansistrings7AnsiPosENS_11AnsiStringTILt0EEES2_ 0000000140020c80     rtl:rtl290.bpl
 0001:0001fc90       _ZN6System11Ansistrings15IsPathDelimiterENS_11AnsiStringTILt0EEEi 0000000140020c90     rtl:rtl290.bpl
 0001:0001fca0       _ZN6System11Ansistrings13LastDelimiterENS_11AnsiStringTILt0EEES2_ 0000000140020ca0     rtl:rtl290.bpl
 0001:0001fcb0       _ZN6System11Ansistrings8ByteTypeENS_11AnsiStringTILt0EEEi 0000000140020cb0     rtl:rtl290.bpl
 0001:0001fcc0       _ZN6System8Sysutils7BytesOfENS_11AnsiStringTILt65535EEE 0000000140020cc0     rtl:rtl290.bpl
 0001:0001fcd0       _ZN6System11Ansistrings12AnsiLastCharENS_11AnsiStringTILt0EEE 0000000140020cd0     rtl:rtl290.bpl
 0001:0001fce0       _ZN6System13LoadResStringEPNS_13TResStringRecE 0000000140020ce0     rtl:rtl290.bpl
 0001:0001fcf0       _ZN6System16_CheckAutoResultEl 0000000140020cf0     rtl:rtl290.bpl
 0001:0001fd00       _assert                    0000000140020d00     libucrt:api-ms-win-crt-runtime-l1-1-0.dll
 0001:0001fd10       _ZN6System7TObject12InheritsFromEPNS_10TMetaClassE 0000000140020d10     rtl:rtl290.bpl
 0001:0001fd20       _ZN6System7Typinfo11GetTypeNameEPNS0_9TTypeInfoE 0000000140020d20     rtl:rtl290.bpl
 0001:0001fd30       _ZN6System7Typinfo11GetTypeDataEPNS0_9TTypeInfoE 0000000140020d30     rtl:rtl290.bpl
 0001:0001fd40       _ZN6System7Typinfo9TTypeData11UnitNameFldEv 0000000140020d40     rtl:rtl290.bpl
 0001:0001fd50       _ZN6System7Typinfo22TTypeInfoFieldAccessor8ToStringEv 0000000140020d50     rtl:rtl290.bpl
 0001:0001fd60       _ZNSt3__15mutex4lockEv     0000000140020d60     libc++.dll:libc++.dll
 0001:0001fd70       _ZNSt3__15mutex6unlockEv   0000000140020d70     libc++.dll:libc++.dll
 0001:0001fd80       _ZN6System7TObject9ClassInfoEv 0000000140020d80     rtl:rtl290.bpl
 0001:0001fd90       ceilf                      0000000140020d90     libucrt:api-ms-win-crt-math-l1-1-0.dll
 0001:0001fda0       _ZNSt3__112__next_primeEy  0000000140020da0     libc++.dll:libc++.dll
 0001:0001fdb0       CompareStringW             0000000140020db0     import64:KERNEL32.dll
 0001:0001fdc0       _ZN6System8Sysutils6FormatENS_13UnicodeStringEPKNS_7TVarRecEx 0000000140020dc0     rtl:rtl290.bpl
 0001:0001fdd0       __stdio_common_vswprintf   0000000140020dd0     libucrt:api-ms-win-crt-stdio-l1-1-0.dll
 0001:0001fde0       _ZN6System12UniqueStringERNS_13UnicodeStringE 0000000140020de0     rtl:rtl290.bpl
 0001:0001fdf0       _ZN6System8Sysutils13AnsiLowerCaseENS_13UnicodeStringE 0000000140020df0     rtl:rtl290.bpl
 0001:0001fe00       _ZN6System8Sysutils13AnsiUpperCaseENS_13UnicodeStringE 0000000140020e00     rtl:rtl290.bpl
 0001:0001fe10       _ZN6System8Sysutils4TrimENS_13UnicodeStringE 0000000140020e10     rtl:rtl290.bpl
 0001:0001fe20       _ZN6System8Sysutils8TrimLeftENS_13UnicodeStringE 0000000140020e20     rtl:rtl290.bpl
 0001:0001fe30       _ZN6System8Sysutils9TrimRightENS_13UnicodeStringE 0000000140020e30     rtl:rtl290.bpl
 0001:0001fe40       _ZN6System8Sysutils11IsDelimiterENS_13UnicodeStringES1_i 0000000140020e40     rtl:rtl290.bpl
 0001:0001fe50       _ZN6System8Sysutils15IsPathDelimiterENS_13UnicodeStringEi 0000000140020e50     rtl:rtl290.bpl
 0001:0001fe60       _ZN6System8Sysutils13LastDelimiterENS_13UnicodeStringES1_ 0000000140020e60     rtl:rtl290.bpl
 0001:0001fe70       _ZN6System8Sysutils8ByteTypeENS_13UnicodeStringEi 0000000140020e70     rtl:rtl290.bpl
 0001:0001fe80       _ZN6System8Sysutils7BytesOfENS_13UnicodeStringE 0000000140020e80     rtl:rtl290.bpl
 0001:0001fe90       _ZN6System8Sysutils12AnsiLastCharENS_13UnicodeStringE 0000000140020e90     rtl:rtl290.bpl
 0001:0001fea0       _ZN6System8Sysutils9BoolToStrEbb 0000000140020ea0     rtl:rtl290.bpl
 0001:0001feb0       _ZN6System8Sysutils8IntToStrEi 0000000140020eb0     rtl:rtl290.bpl
 0001:0001fec0       _ZN6System8Sysutils9UIntToStrEj 0000000140020ec0     rtl:rtl290.bpl
 0001:0001fed0       _ZN6System8Sysutils8IntToStrEx 0000000140020ed0     rtl:rtl290.bpl
 0001:0001fee0       _ZN6System8Sysutils9UIntToStrEy 0000000140020ee0     rtl:rtl290.bpl
 0001:0001fef0       _ZN6System12StringOfCharEwi 0000000140020ef0     rtl:rtl290.bpl
 0001:0001ff00       _ZN6System8Sysutils10FloatToStrEeRKNS0_15TFormatSettingsE 0000000140020f00     rtl:rtl290.bpl
 0001:0001ff10       _ZN6System8Sysutils12TryStrToBoolENS_13UnicodeStringERb 0000000140020f10     rtl:rtl290.bpl
 0001:0001ff20       _ZN6System8Sysutils13TryStrToFloatENS_13UnicodeStringERe 0000000140020f20     rtl:rtl290.bpl
 0001:0001ff30       _ZN6System8Sysutils13TryStrToFloatENS_13UnicodeStringEReRKNS0_15TFormatSettingsE 0000000140020f30     rtl:rtl290.bpl
 0001:0001ff40       _ZN6System8Sysutils11TryStrToIntENS_13UnicodeStringERi 0000000140020f40     rtl:rtl290.bpl
 0001:0001ff50       _ZN6System8Sysutils13TryStrToInt64ENS_13UnicodeStringERx 0000000140020f50     rtl:rtl290.bpl
 0001:0001ff60       _ZN6System8Sysutils12TryStrToUIntENS_13UnicodeStringERj 0000000140020f60     rtl:rtl290.bpl
 0001:0001ff70       _ZN6System8Sysutils14TryStrToUInt64ENS_13UnicodeStringERy 0000000140020f70     rtl:rtl290.bpl
 0001:0001ff80       __stdio_common_vfprintf    0000000140020f80     libucrt:api-ms-win-crt-stdio-l1-1-0.dll
 0001:0001ff90       calloc                     0000000140020f90     libucrt:api-ms-win-crt-heap-l1-1-0.dll
 0001:0001ffa0       EnterCriticalSection       0000000140020fa0     import64:KERNEL32.dll
 0001:0001ffb0       LeaveCriticalSection       0000000140020fb0     import64:KERNEL32.dll
 0001:0001ffc0       free                       0000000140020fc0     libucrt:api-ms-win-crt-heap-l1-1-0.dll
 0001:0001ffd0       InitializeCriticalSection  0000000140020fd0     import64:KERNEL32.dll
 0001:0001ffe0       DeleteCriticalSection      0000000140020fe0     import64:KERNEL32.dll
 0001:0001fff0       strncmp                    0000000140020ff0     libucrt:api-ms-win-crt-string-l1-1-0.dll
 0001:00020000       _ZN6System13_UStrFromLStrERNS_13UnicodeStringENS_11AnsiStringTILt0EEE 0000000140021000     rtl:rtl290.bpl
 0001:00020010       _ZN6System14_UStrFromPCharERNS_13UnicodeStringEPc 0000000140021010     rtl:rtl290.bpl
 0001:00020020       _ZN6System19UTF8ToUnicodeStringEPKc 0000000140021020     rtl:rtl290.bpl
 0001:00020030       _ZN6System15_UStrFromPWCharERNS_13UnicodeStringEPw 0000000140021030     rtl:rtl290.bpl
 0001:00020040       _ZN6System8_UStrCatERNS_13UnicodeStringES0_ 0000000140021040     rtl:rtl290.bpl
 0001:00020050       _ZN6System9_UStrCat3ERNS_13UnicodeStringES0_S0_ 0000000140021050     rtl:rtl290.bpl
 0001:00020060       _ZN6System11_UStrDeleteERNS_13UnicodeStringEii 0000000140021060     rtl:rtl290.bpl
 0001:00020070       _ZN6System14_UStrSetLengthERNS_13UnicodeStringEi 0000000140021070     rtl:rtl290.bpl
 0001:00020080       _ZN6System8_UStrPosEPwS0_i 0000000140021080     rtl:rtl290.bpl
 0001:00020090       _ZN6System9_UStrCopyENS_13UnicodeStringEii 0000000140021090     rtl:rtl290.bpl
 0001:000200a0       _ZN6System11_UStrInsertENS_13UnicodeStringERS0_i 00000001400210a0     rtl:rtl290.bpl
 0001:000200b0       _ZN6System8_UStrAsgERNS_13UnicodeStringES0_ 00000001400210b0     rtl:rtl290.bpl
 0001:000200c0       _ZN6System8_UStrClrEPv     00000001400210c0     rtl:rtl290.bpl
 0001:000200d0       _ZN6System10_UStrEqualENS_13UnicodeStringES0_ 00000001400210d0     rtl:rtl290.bpl
 0001:000200e0       _ZN6System8_UStrCmpENS_13UnicodeStringES0_ 00000001400210e0     rtl:rtl290.bpl
 0001:000200f0       _ZN6System8_LStrPosEPcS0_i 00000001400210f0     rtl:rtl290.bpl
 0001:00020100       _ZN6System9_LStrCopyENS_11AnsiStringTILt0EEEii 0000000140021100     rtl:rtl290.bpl
 0001:00020110       _ZN6System10_LStrEqualENS_11AnsiStringTILt0EEES1_ 0000000140021110     rtl:rtl290.bpl
 0001:00020120       _ZN6System8_LStrCmpENS_11AnsiStringTILt0EEES1_ 0000000140021120     rtl:rtl290.bpl
 0001:00020130       _ZN6System8_WStrAsgERNS_10WideStringES0_ 0000000140021130     rtl:rtl290.bpl
 0001:00020140       _ZN6System8_WStrClrEPv     0000000140021140     rtl:rtl290.bpl
 0001:00020150       _ZN6System13_WStrFromLStrERNS_10WideStringENS_11AnsiStringTILt0EEE 0000000140021150     rtl:rtl290.bpl
 0001:00020160       _ZN6System13_WStrFromUStrERNS_10WideStringENS_13UnicodeStringE 0000000140021160     rtl:rtl290.bpl
 0001:00020170       _ZN6System14_WStrFromPCharERNS_10WideStringEPc 0000000140021170     rtl:rtl290.bpl
 0001:00020180       _ZN6System10_WStrEqualENS_10WideStringES0_ 0000000140021180     rtl:rtl290.bpl
 0001:00020190       _ZN6System8_WStrCmpENS_10WideStringES0_ 0000000140021190     rtl:rtl290.bpl
 0001:000201a0       _ZN6System9_WStrCat3ERNS_10WideStringES0_S0_ 00000001400211a0     rtl:rtl290.bpl
 0001:000201b0       _ZN6System8_WStrPosEPwS0_i 00000001400211b0     rtl:rtl290.bpl
 0001:000201c0       _ZN6System14_WStrSetLengthERNS_10WideStringEi 00000001400211c0     rtl:rtl290.bpl
 0001:000201d0       _ZN6System11_WStrDeleteERNS_10WideStringEii 00000001400211d0     rtl:rtl290.bpl
 0001:000201e0       _ZN6System11_WStrInsertENS_10WideStringERS0_i 00000001400211e0     rtl:rtl290.bpl
 0001:000201f0       _ZN6System9_WStrCopyENS_10WideStringEii 00000001400211f0     rtl:rtl290.bpl
 0001:00020200       _ZN6System8_WStrCatERNS_10WideStringES0_ 0000000140021200     rtl:rtl290.bpl
 0001:00020210       _ZN6System13_UStrFromWStrERNS_13UnicodeStringENS_10WideStringE 0000000140021210     rtl:rtl290.bpl
 0001:00020220       _strdup                    0000000140021220     libucrt:api-ms-win-crt-string-l1-1-0.dll
 0001:00020220       _strdup                    0000000140021220     libucrt:api-ms-win-crt-string-l1-1-0.dll
 0001:00020230       _ZN6System11_RaiseAgainEv  0000000140021230     rtl:rtl290.bpl
 0001:00020240       __delphi_init_eh           0000000140021240     libc++.dll:libc++.dll
 0001:00020250       _ZN6System9RaiseListEv     0000000140021250     rtl:rtl290.bpl
 0001:00020260       _ZN6System12SetRaiseListEPv 0000000140021260     rtl:rtl290.bpl
 0001:00020270       realloc                    0000000140021270     libucrt:api-ms-win-crt-heap-l1-1-0.dll
 0001:00020280       _ZN6System18IsMemoryManagerSetEv 0000000140021280     rtl:rtl290.bpl
 0001:00020290       _ZN6System16SetMemoryManagerERKNS_16TMemoryManagerExE 0000000140021290     rtl:rtl290.bpl
 0002:00000000       .refptr._MINGW_INSTALL_DEBUG_MATHERR 0000000140022000     crt2u.o
 0002:00000008       .refptr.__dyn_tls_init_callback 0000000140022008     crt2u.o
 0002:00000010       .refptr.__globallocalestatus 0000000140022010     crt2u.o
 0002:00000018       .refptr.__image_base__     0000000140022018     crt2u.o
 0002:00000020       .refptr.__imp___winitenv   0000000140022020     crt2u.o
 0002:00000028       .refptr.__mingw_app_type   0000000140022028     crt2u.o
 0002:00000030       .refptr.__mingw_initltsdrot_force 0000000140022030     crt2u.o
 0002:00000038       .refptr.__mingw_initltsdyn_force 0000000140022038     crt2u.o
 0002:00000040       .refptr.__mingw_initltssuo_force 0000000140022040     crt2u.o
 0002:00000048       .refptr.__mingw_oldexcpt_handler 0000000140022048     crt2u.o
 0002:00000050       .refptr.__native_startup_lock 0000000140022050     crt2u.o
 0002:00000058       .refptr.__native_startup_state 0000000140022058     crt2u.o
 0002:00000060       .refptr.__xc_a             0000000140022060     crt2u.o
 0002:00000068       .refptr.__xc_z             0000000140022068     crt2u.o
 0002:00000070       .refptr.__xi_a             0000000140022070     crt2u.o
 0002:00000078       .refptr.__xi_z             0000000140022078     crt2u.o
 0002:00000080       .refptr._commode           0000000140022080     crt2u.o
 0002:00000088       .refptr._dowildcard        0000000140022088     crt2u.o
 0002:00000090       .refptr._fmode             0000000140022090     crt2u.o
 0002:00000098       .refptr._hInstance         0000000140022098     crt2u.o
 0002:000000a0       .refptr._newmode           00000001400220a0     crt2u.o
 0002:000000ec       _ZTRN7Sysinit15PImageThunkDataE 00000001400220ec     sysinit.o
 0002:00000110       _ZTRN7Sysinit15TImageThunkDataE 0000000140022110     sysinit.o
 0002:000001b8       _ZTRN7Sysinit13ImgDelayDescrE 00000001400221b8     sysinit.o
 0002:000002b8       _ZTRN7Sysinit14PImgDelayDescrE 00000001400222b8     sysinit.o
 0002:000002dc       _ZTRN7Sysinit13DelayLoadProcE 00000001400222dc     sysinit.o
 0002:00000360       _ZTRN7Sysinit14PDelayLoadProcE 0000000140022360     sysinit.o
 0002:00000384       _ZTRN7Sysinit13DelayLoadInfoE 0000000140022384     sysinit.o
 0002:00000478       _ZTRN7Sysinit14PDelayLoadInfoE 0000000140022478     sysinit.o
 0002:0000049c       _ZTRN7Sysinit10PfnDliHookE 000000014002249c     sysinit.o
 0002:00005a90       _ZTV16TAddComputerForm     0000000140027a90     AddComputer.o
